libkiapi.so.9.0.1:_ZN5kiapi5board11BoardFinish12InternalSwapEPS1_
libkiapi.so.9.0.1:_ZN5kiapi5board11BoardFinish14_InternalParseEPKcPN6google8protobuf8internal12ParseContextE
libkiapi.so.9.0.1:_ZN5kiapi5board11BoardFinish5ClearEv
libkiapi.so.9.0.1:_ZN5kiapi5board11BoardFinish8CopyFromERKS1_
libkiapi.so.9.0.1:_ZN5kiapi5board11BoardFinish9MergeImplERN6google8protobuf7MessageERKS4_
libkiapi.so.9.0.1:_ZN5kiapi5board11BoardFinishC1EPN6google8protobuf5ArenaE
libkiapi.so.9.0.1:_ZN5kiapi5board11BoardFinishC1EPN6google8protobuf5ArenaERKS1_
libkiapi.so.9.0.1:_ZN5kiapi5board11BoardFinishC2EPN6google8protobuf5ArenaE
libkiapi.so.9.0.1:_ZN5kiapi5board11BoardFinishC2EPN6google8protobuf5ArenaERKS1_
libkiapi.so.9.0.1:_ZN5kiapi5board11BoardFinishD0Ev
libkiapi.so.9.0.1:_ZN5kiapi5board11BoardFinishD1Ev
libkiapi.so.9.0.1:_ZN5kiapi5board11BoardFinishD2Ev
libkiapi.so.9.0.1:_ZN5kiapi5board11EdgePlating12InternalSwapEPS1_
libkiapi.so.9.0.1:_ZN5kiapi5board11EdgePlating14_InternalParseEPKcPN6google8protobuf8internal12ParseContextE
libkiapi.so.9.0.1:_ZN5kiapi5board11EdgePlating5ClearEv
libkiapi.so.9.0.1:_ZN5kiapi5board11EdgePlating8CopyFromERKS1_
libkiapi.so.9.0.1:_ZN5kiapi5board11EdgePlating9MergeImplERN6google8protobuf7MessageERKS4_
libkiapi.so.9.0.1:_ZN5kiapi5board11EdgePlatingC1EPN6google8protobuf5ArenaE
libkiapi.so.9.0.1:_ZN5kiapi5board11EdgePlatingC1EPN6google8protobuf5ArenaERKS1_
libkiapi.so.9.0.1:_ZN5kiapi5board11EdgePlatingC2EPN6google8protobuf5ArenaE
libkiapi.so.9.0.1:_ZN5kiapi5board11EdgePlatingC2EPN6google8protobuf5ArenaERKS1_
libkiapi.so.9.0.1:_ZN5kiapi5board11EdgePlatingD0Ev
libkiapi.so.9.0.1:_ZN5kiapi5board11EdgePlatingD1Ev
libkiapi.so.9.0.1:_ZN5kiapi5board11EdgePlatingD2Ev
libkiapi.so.9.0.1:_ZN5kiapi5board12BoardStackup12InternalSwapEPS1_
libkiapi.so.9.0.1:_ZN5kiapi5board12BoardStackup14_InternalParseEPKcPN6google8protobuf8internal12ParseContextE
libkiapi.so.9.0.1:_ZN5kiapi5board12BoardStackup5ClearEv
libkiapi.so.9.0.1:_ZN5kiapi5board12BoardStackup8CopyFromERKS1_
libkiapi.so.9.0.1:_ZN5kiapi5board12BoardStackup9MergeImplERN6google8protobuf7MessageERKS4_
libkiapi.so.9.0.1:_ZN5kiapi5board12BoardStackup9_Internal4edgeEPKS1_
libkiapi.so.9.0.1:_ZN5kiapi5board12BoardStackup9_Internal6finishEPKS1_
libkiapi.so.9.0.1:_ZN5kiapi5board12BoardStackup9_Internal9impedanceEPKS1_
libkiapi.so.9.0.1:_ZN5kiapi5board12BoardStackupC1EPN6google8protobuf5ArenaE
libkiapi.so.9.0.1:_ZN5kiapi5board12BoardStackupC1EPN6google8protobuf5ArenaERKS1_
libkiapi.so.9.0.1:_ZN5kiapi5board12BoardStackupC2EPN6google8protobuf5ArenaE
libkiapi.so.9.0.1:_ZN5kiapi5board12BoardStackupC2EPN6google8protobuf5ArenaERKS1_
libkiapi.so.9.0.1:_ZN5kiapi5board12BoardStackupD0Ev
libkiapi.so.9.0.1:_ZN5kiapi5board12BoardStackupD1Ev
libkiapi.so.9.0.1:_ZN5kiapi5board12BoardStackupD2Ev
libkiapi.so.9.0.1:_ZN5kiapi5board12Castellation12InternalSwapEPS1_
libkiapi.so.9.0.1:_ZN5kiapi5board12Castellation14_InternalParseEPKcPN6google8protobuf8internal12ParseContextE
libkiapi.so.9.0.1:_ZN5kiapi5board12Castellation5ClearEv
libkiapi.so.9.0.1:_ZN5kiapi5board12Castellation8CopyFromERKS1_
libkiapi.so.9.0.1:_ZN5kiapi5board12Castellation9MergeImplERN6google8protobuf7MessageERKS4_
libkiapi.so.9.0.1:_ZN5kiapi5board12CastellationC1EPN6google8protobuf5ArenaE
libkiapi.so.9.0.1:_ZN5kiapi5board12CastellationC1EPN6google8protobuf5ArenaERKS1_
libkiapi.so.9.0.1:_ZN5kiapi5board12CastellationC2EPN6google8protobuf5ArenaE
libkiapi.so.9.0.1:_ZN5kiapi5board12CastellationC2EPN6google8protobuf5ArenaERKS1_
libkiapi.so.9.0.1:_ZN5kiapi5board12CastellationD0Ev
libkiapi.so.9.0.1:_ZN5kiapi5board12CastellationD1Ev
libkiapi.so.9.0.1:_ZN5kiapi5board12CastellationD2Ev
libkiapi.so.9.0.1:_ZN5kiapi5board13BoardSettings12InternalSwapEPS1_
libkiapi.so.9.0.1:_ZN5kiapi5board13BoardSettings14_InternalParseEPKcPN6google8protobuf8internal12ParseContextE
libkiapi.so.9.0.1:_ZN5kiapi5board13BoardSettings5ClearEv
libkiapi.so.9.0.1:_ZN5kiapi5board13BoardSettings8CopyFromERKS1_
libkiapi.so.9.0.1:_ZN5kiapi5board13BoardSettings9MergeImplERN6google8protobuf7MessageERKS4_
libkiapi.so.9.0.1:_ZN5kiapi5board13BoardSettings9_Internal17graphics_defaultsEPKS1_
libkiapi.so.9.0.1:_ZN5kiapi5board13BoardSettingsC1EPN6google8protobuf5ArenaE
libkiapi.so.9.0.1:_ZN5kiapi5board13BoardSettingsC1EPN6google8protobuf5ArenaERKS1_
libkiapi.so.9.0.1:_ZN5kiapi5board13BoardSettingsC2EPN6google8protobuf5ArenaE
libkiapi.so.9.0.1:_ZN5kiapi5board13BoardSettingsC2EPN6google8protobuf5ArenaERKS1_
libkiapi.so.9.0.1:_ZN5kiapi5board13BoardSettingsD0Ev
libkiapi.so.9.0.1:_ZN5kiapi5board13BoardSettingsD1Ev
libkiapi.so.9.0.1:_ZN5kiapi5board13BoardSettingsD2Ev
libkiapi.so.9.0.1:_ZN5kiapi5board16BoardDesignRulesC1EPN6google8protobuf5ArenaE
libkiapi.so.9.0.1:_ZN5kiapi5board16BoardDesignRulesC1EPN6google8protobuf5ArenaERKS1_
libkiapi.so.9.0.1:_ZN5kiapi5board16BoardDesignRulesC2EPN6google8protobuf5ArenaE
libkiapi.so.9.0.1:_ZN5kiapi5board16BoardDesignRulesC2EPN6google8protobuf5ArenaERKS1_
libkiapi.so.9.0.1:_ZN5kiapi5board16GraphicsDefaults12InternalSwapEPS1_
libkiapi.so.9.0.1:_ZN5kiapi5board16GraphicsDefaults14_InternalParseEPKcPN6google8protobuf8internal12ParseContextE
libkiapi.so.9.0.1:_ZN5kiapi5board16GraphicsDefaults5ClearEv
libkiapi.so.9.0.1:_ZN5kiapi5board16GraphicsDefaults8CopyFromERKS1_
libkiapi.so.9.0.1:_ZN5kiapi5board16GraphicsDefaults9MergeImplERN6google8protobuf7MessageERKS4_
libkiapi.so.9.0.1:_ZN5kiapi5board16GraphicsDefaultsC1EPN6google8protobuf5ArenaE
libkiapi.so.9.0.1:_ZN5kiapi5board16GraphicsDefaultsC1EPN6google8protobuf5ArenaERKS1_
libkiapi.so.9.0.1:_ZN5kiapi5board16GraphicsDefaultsC2EPN6google8protobuf5ArenaE
libkiapi.so.9.0.1:_ZN5kiapi5board16GraphicsDefaultsC2EPN6google8protobuf5ArenaERKS1_
libkiapi.so.9.0.1:_ZN5kiapi5board16GraphicsDefaultsD0Ev
libkiapi.so.9.0.1:_ZN5kiapi5board16GraphicsDefaultsD1Ev
libkiapi.so.9.0.1:_ZN5kiapi5board16GraphicsDefaultsD2Ev
libkiapi.so.9.0.1:_ZN5kiapi5board17BoardEdgeSettings12InternalSwapEPS1_
libkiapi.so.9.0.1:_ZN5kiapi5board17BoardEdgeSettings14_InternalParseEPKcPN6google8protobuf8internal12ParseContextE
libkiapi.so.9.0.1:_ZN5kiapi5board17BoardEdgeSettings5ClearEv
libkiapi.so.9.0.1:_ZN5kiapi5board17BoardEdgeSettings8CopyFromERKS1_
libkiapi.so.9.0.1:_ZN5kiapi5board17BoardEdgeSettings9MergeImplERN6google8protobuf7MessageERKS4_
libkiapi.so.9.0.1:_ZN5kiapi5board17BoardEdgeSettings9_Internal12castellationEPKS1_
libkiapi.so.9.0.1:_ZN5kiapi5board17BoardEdgeSettings9_Internal7platingEPKS1_
libkiapi.so.9.0.1:_ZN5kiapi5board17BoardEdgeSettings9_Internal9connectorEPKS1_
libkiapi.so.9.0.1:_ZN5kiapi5board17BoardEdgeSettingsC1EPN6google8protobuf5ArenaE
libkiapi.so.9.0.1:_ZN5kiapi5board17BoardEdgeSettingsC1EPN6google8protobuf5ArenaERKS1_
libkiapi.so.9.0.1:_ZN5kiapi5board17BoardEdgeSettingsC2EPN6google8protobuf5ArenaE
libkiapi.so.9.0.1:_ZN5kiapi5board17BoardEdgeSettingsC2EPN6google8protobuf5ArenaERKS1_
libkiapi.so.9.0.1:_ZN5kiapi5board17BoardEdgeSettingsD0Ev
libkiapi.so.9.0.1:_ZN5kiapi5board17BoardEdgeSettingsD1Ev
libkiapi.so.9.0.1:_ZN5kiapi5board17BoardEdgeSettingsD2Ev
libkiapi.so.9.0.1:_ZN5kiapi5board17BoardStackupLayer11clear_colorEv
libkiapi.so.9.0.1:_ZN5kiapi5board17BoardStackupLayer12InternalSwapEPS1_
libkiapi.so.9.0.1:_ZN5kiapi5board17BoardStackupLayer14_InternalParseEPKcPN6google8protobuf8internal12ParseContextE
libkiapi.so.9.0.1:_ZN5kiapi5board17BoardStackupLayer15clear_thicknessEv
libkiapi.so.9.0.1:_ZN5kiapi5board17BoardStackupLayer5ClearEv
libkiapi.so.9.0.1:_ZN5kiapi5board17BoardStackupLayer8CopyFromERKS1_
libkiapi.so.9.0.1:_ZN5kiapi5board17BoardStackupLayer9MergeImplERN6google8protobuf7MessageERKS4_
libkiapi.so.9.0.1:_ZN5kiapi5board17BoardStackupLayer9_Internal10dielectricEPKS1_
libkiapi.so.9.0.1:_ZN5kiapi5board17BoardStackupLayer9_Internal5colorEPKS1_
libkiapi.so.9.0.1:_ZN5kiapi5board17BoardStackupLayer9_Internal9thicknessEPKS1_
libkiapi.so.9.0.1:_ZN5kiapi5board17BoardStackupLayerC1EPN6google8protobuf5ArenaE
libkiapi.so.9.0.1:_ZN5kiapi5board17BoardStackupLayerC1EPN6google8protobuf5ArenaERKS1_
libkiapi.so.9.0.1:_ZN5kiapi5board17BoardStackupLayerC2EPN6google8protobuf5ArenaE
libkiapi.so.9.0.1:_ZN5kiapi5board17BoardStackupLayerC2EPN6google8protobuf5ArenaERKS1_
libkiapi.so.9.0.1:_ZN5kiapi5board17BoardStackupLayerD0Ev
libkiapi.so.9.0.1:_ZN5kiapi5board17BoardStackupLayerD1Ev
libkiapi.so.9.0.1:_ZN5kiapi5board17BoardStackupLayerD2Ev
libkiapi.so.9.0.1:_ZN5kiapi5board18BoardEdgeConnectorC1EPN6google8protobuf5ArenaE
libkiapi.so.9.0.1:_ZN5kiapi5board18BoardEdgeConnectorC1EPN6google8protobuf5ArenaERKS1_
libkiapi.so.9.0.1:_ZN5kiapi5board18BoardEdgeConnectorC2EPN6google8protobuf5ArenaE
libkiapi.so.9.0.1:_ZN5kiapi5board18BoardEdgeConnectorC2EPN6google8protobuf5ArenaERKS1_
libkiapi.so.9.0.1:_ZN5kiapi5board21BoardImpedanceControl12InternalSwapEPS1_
libkiapi.so.9.0.1:_ZN5kiapi5board21BoardImpedanceControl14_InternalParseEPKcPN6google8protobuf8internal12ParseContextE
libkiapi.so.9.0.1:_ZN5kiapi5board21BoardImpedanceControl5ClearEv
libkiapi.so.9.0.1:_ZN5kiapi5board21BoardImpedanceControl8CopyFromERKS1_
libkiapi.so.9.0.1:_ZN5kiapi5board21BoardImpedanceControl9MergeImplERN6google8protobuf7MessageERKS4_
libkiapi.so.9.0.1:_ZN5kiapi5board21BoardImpedanceControlC1EPN6google8protobuf5ArenaE
libkiapi.so.9.0.1:_ZN5kiapi5board21BoardImpedanceControlC1EPN6google8protobuf5ArenaERKS1_
libkiapi.so.9.0.1:_ZN5kiapi5board21BoardImpedanceControlC2EPN6google8protobuf5ArenaE
libkiapi.so.9.0.1:_ZN5kiapi5board21BoardImpedanceControlC2EPN6google8protobuf5ArenaERKS1_
libkiapi.so.9.0.1:_ZN5kiapi5board21BoardImpedanceControlD0Ev
libkiapi.so.9.0.1:_ZN5kiapi5board21BoardImpedanceControlD1Ev
libkiapi.so.9.0.1:_ZN5kiapi5board21BoardImpedanceControlD2Ev
libkiapi.so.9.0.1:_ZN5kiapi5board23BoardLayerClass_IsValidEi
libkiapi.so.9.0.1:_ZN5kiapi5board23BoardStackupCopperLayerC1EPN6google8protobuf5ArenaE
libkiapi.so.9.0.1:_ZN5kiapi5board23BoardStackupCopperLayerC1EPN6google8protobuf5ArenaERKS1_
libkiapi.so.9.0.1:_ZN5kiapi5board23BoardStackupCopperLayerC2EPN6google8protobuf5ArenaE
libkiapi.so.9.0.1:_ZN5kiapi5board23BoardStackupCopperLayerC2EPN6google8protobuf5ArenaERKS1_
libkiapi.so.9.0.1:_ZN5kiapi5board26BoardLayerClass_descriptorEv
libkiapi.so.9.0.1:_ZN5kiapi5board26BoardLayerGraphicsDefaults10clear_textEv
libkiapi.so.9.0.1:_ZN5kiapi5board26BoardLayerGraphicsDefaults12InternalSwapEPS1_
libkiapi.so.9.0.1:_ZN5kiapi5board26BoardLayerGraphicsDefaults14_InternalParseEPKcPN6google8protobuf8internal12ParseContextE
libkiapi.so.9.0.1:_ZN5kiapi5board26BoardLayerGraphicsDefaults20clear_line_thicknessEv
libkiapi.so.9.0.1:_ZN5kiapi5board26BoardLayerGraphicsDefaults5ClearEv
libkiapi.so.9.0.1:_ZN5kiapi5board26BoardLayerGraphicsDefaults8CopyFromERKS1_
libkiapi.so.9.0.1:_ZN5kiapi5board26BoardLayerGraphicsDefaults9MergeImplERN6google8protobuf7MessageERKS4_
libkiapi.so.9.0.1:_ZN5kiapi5board26BoardLayerGraphicsDefaults9_Internal14line_thicknessEPKS1_
libkiapi.so.9.0.1:_ZN5kiapi5board26BoardLayerGraphicsDefaults9_Internal4textEPKS1_
libkiapi.so.9.0.1:_ZN5kiapi5board26BoardLayerGraphicsDefaultsC1EPN6google8protobuf5ArenaE
libkiapi.so.9.0.1:_ZN5kiapi5board26BoardLayerGraphicsDefaultsC1EPN6google8protobuf5ArenaERKS1_
libkiapi.so.9.0.1:_ZN5kiapi5board26BoardLayerGraphicsDefaultsC2EPN6google8protobuf5ArenaE
libkiapi.so.9.0.1:_ZN5kiapi5board26BoardLayerGraphicsDefaultsC2EPN6google8protobuf5ArenaERKS1_
libkiapi.so.9.0.1:_ZN5kiapi5board26BoardLayerGraphicsDefaultsD0Ev
libkiapi.so.9.0.1:_ZN5kiapi5board26BoardLayerGraphicsDefaultsD1Ev
libkiapi.so.9.0.1:_ZN5kiapi5board26BoardLayerGraphicsDefaultsD2Ev
libkiapi.so.9.0.1:_ZN5kiapi5board27BoardStackupDielectricLayer12InternalSwapEPS1_
libkiapi.so.9.0.1:_ZN5kiapi5board27BoardStackupDielectricLayer14_InternalParseEPKcPN6google8protobuf8internal12ParseContextE
libkiapi.so.9.0.1:_ZN5kiapi5board27BoardStackupDielectricLayer5ClearEv
libkiapi.so.9.0.1:_ZN5kiapi5board27BoardStackupDielectricLayer8CopyFromERKS1_
libkiapi.so.9.0.1:_ZN5kiapi5board27BoardStackupDielectricLayer9MergeImplERN6google8protobuf7MessageERKS4_
libkiapi.so.9.0.1:_ZN5kiapi5board27BoardStackupDielectricLayerC1EPN6google8protobuf5ArenaE
libkiapi.so.9.0.1:_ZN5kiapi5board27BoardStackupDielectricLayerC1EPN6google8protobuf5ArenaERKS1_
libkiapi.so.9.0.1:_ZN5kiapi5board27BoardStackupDielectricLayerC2EPN6google8protobuf5ArenaE
libkiapi.so.9.0.1:_ZN5kiapi5board27BoardStackupDielectricLayerC2EPN6google8protobuf5ArenaERKS1_
libkiapi.so.9.0.1:_ZN5kiapi5board27BoardStackupDielectricLayerD0Ev
libkiapi.so.9.0.1:_ZN5kiapi5board27BoardStackupDielectricLayerD1Ev
libkiapi.so.9.0.1:_ZN5kiapi5board27BoardStackupDielectricLayerD2Ev
libkiapi.so.9.0.1:_ZN5kiapi5board29BoardStackupLayerType_IsValidEi
libkiapi.so.9.0.1:_ZN5kiapi5board32BoardStackupDielectricProperties12InternalSwapEPS1_
libkiapi.so.9.0.1:_ZN5kiapi5board32BoardStackupDielectricProperties14_InternalParseEPKcPN6google8protobuf8internal12ParseContextE
libkiapi.so.9.0.1:_ZN5kiapi5board32BoardStackupDielectricProperties15clear_thicknessEv
libkiapi.so.9.0.1:_ZN5kiapi5board32BoardStackupDielectricProperties5ClearEv
libkiapi.so.9.0.1:_ZN5kiapi5board32BoardStackupDielectricProperties8CopyFromERKS1_
libkiapi.so.9.0.1:_ZN5kiapi5board32BoardStackupDielectricProperties9MergeImplERN6google8protobuf7MessageERKS4_
libkiapi.so.9.0.1:_ZN5kiapi5board32BoardStackupDielectricProperties9_Internal9thicknessEPKS1_
libkiapi.so.9.0.1:_ZN5kiapi5board32BoardStackupDielectricPropertiesC1EPN6google8protobuf5ArenaE
libkiapi.so.9.0.1:_ZN5kiapi5board32BoardStackupDielectricPropertiesC1EPN6google8protobuf5ArenaERKS1_
libkiapi.so.9.0.1:_ZN5kiapi5board32BoardStackupDielectricPropertiesC2EPN6google8protobuf5ArenaE
libkiapi.so.9.0.1:_ZN5kiapi5board32BoardStackupDielectricPropertiesC2EPN6google8protobuf5ArenaERKS1_
libkiapi.so.9.0.1:_ZN5kiapi5board32BoardStackupDielectricPropertiesD0Ev
libkiapi.so.9.0.1:_ZN5kiapi5board32BoardStackupDielectricPropertiesD1Ev
libkiapi.so.9.0.1:_ZN5kiapi5board32BoardStackupDielectricPropertiesD2Ev
libkiapi.so.9.0.1:_ZN5kiapi5board32BoardStackupLayerType_descriptorEv
libkiapi.so.9.0.1:_ZN5kiapi5board5types12BoardTextBox12InternalSwapEPS2_
libkiapi.so.9.0.1:_ZN5kiapi5board5types12BoardTextBox13clear_textboxEv
libkiapi.so.9.0.1:_ZN5kiapi5board5types12BoardTextBox14_InternalParseEPKcPN6google8protobuf8internal12ParseContextE
libkiapi.so.9.0.1:_ZN5kiapi5board5types12BoardTextBox5ClearEv
libkiapi.so.9.0.1:_ZN5kiapi5board5types12BoardTextBox8CopyFromERKS2_
libkiapi.so.9.0.1:_ZN5kiapi5board5types12BoardTextBox8clear_idEv
libkiapi.so.9.0.1:_ZN5kiapi5board5types12BoardTextBox9MergeImplERN6google8protobuf7MessageERKS5_
libkiapi.so.9.0.1:_ZN5kiapi5board5types12BoardTextBox9_Internal2idEPKS2_
libkiapi.so.9.0.1:_ZN5kiapi5board5types12BoardTextBox9_Internal7textboxEPKS2_
libkiapi.so.9.0.1:_ZN5kiapi5board5types12BoardTextBoxC1EPN6google8protobuf5ArenaE
libkiapi.so.9.0.1:_ZN5kiapi5board5types12BoardTextBoxC1EPN6google8protobuf5ArenaERKS2_
libkiapi.so.9.0.1:_ZN5kiapi5board5types12BoardTextBoxC2EPN6google8protobuf5ArenaE
libkiapi.so.9.0.1:_ZN5kiapi5board5types12BoardTextBoxC2EPN6google8protobuf5ArenaERKS2_
libkiapi.so.9.0.1:_ZN5kiapi5board5types12BoardTextBoxD0Ev
libkiapi.so.9.0.1:_ZN5kiapi5board5types12BoardTextBoxD1Ev
libkiapi.so.9.0.1:_ZN5kiapi5board5types12BoardTextBoxD2Ev
libkiapi.so.9.0.1:_ZN5kiapi5board5types13PadStackLayer10clear_sizeEv
libkiapi.so.9.0.1:_ZN5kiapi5board5types13PadStackLayer12InternalSwapEPS2_
libkiapi.so.9.0.1:_ZN5kiapi5board5types13PadStackLayer12clear_offsetEv
libkiapi.so.9.0.1:_ZN5kiapi5board5types13PadStackLayer14_InternalParseEPKcPN6google8protobuf8internal12ParseContextE
libkiapi.so.9.0.1:_ZN5kiapi5board5types13PadStackLayer21clear_trapezoid_deltaEv
libkiapi.so.9.0.1:_ZN5kiapi5board5types13PadStackLayer5ClearEv
libkiapi.so.9.0.1:_ZN5kiapi5board5types13PadStackLayer8CopyFromERKS2_
libkiapi.so.9.0.1:_ZN5kiapi5board5types13PadStackLayer9MergeImplERN6google8protobuf7MessageERKS5_
libkiapi.so.9.0.1:_ZN5kiapi5board5types13PadStackLayer9_Internal13zone_settingsEPKS2_
libkiapi.so.9.0.1:_ZN5kiapi5board5types13PadStackLayer9_Internal15trapezoid_deltaEPKS2_
libkiapi.so.9.0.1:_ZN5kiapi5board5types13PadStackLayer9_Internal17chamfered_cornersEPKS2_
libkiapi.so.9.0.1:_ZN5kiapi5board5types13PadStackLayer9_Internal4sizeEPKS2_
libkiapi.so.9.0.1:_ZN5kiapi5board5types13PadStackLayer9_Internal6offsetEPKS2_
libkiapi.so.9.0.1:_ZN5kiapi5board5types13PadStackLayerC1EPN6google8protobuf5ArenaE
libkiapi.so.9.0.1:_ZN5kiapi5board5types13PadStackLayerC1EPN6google8protobuf5ArenaERKS2_
libkiapi.so.9.0.1:_ZN5kiapi5board5types13PadStackLayerC2EPN6google8protobuf5ArenaE
libkiapi.so.9.0.1:_ZN5kiapi5board5types13PadStackLayerC2EPN6google8protobuf5ArenaERKS2_
libkiapi.so.9.0.1:_ZN5kiapi5board5types13PadStackLayerD0Ev
libkiapi.so.9.0.1:_ZN5kiapi5board5types13PadStackLayerD1Ev
libkiapi.so.9.0.1:_ZN5kiapi5board5types13PadStackLayerD2Ev
libkiapi.so.9.0.1:_ZN5kiapi5board5types14ReferenceImageC1EPN6google8protobuf5ArenaE
libkiapi.so.9.0.1:_ZN5kiapi5board5types14ReferenceImageC1EPN6google8protobuf5ArenaERKS2_
libkiapi.so.9.0.1:_ZN5kiapi5board5types14ReferenceImageC2EPN6google8protobuf5ArenaE
libkiapi.so.9.0.1:_ZN5kiapi5board5types14ReferenceImageC2EPN6google8protobuf5ArenaERKS2_
libkiapi.so.9.0.1:_ZN5kiapi5board5types15DrillProperties12InternalSwapEPS2_
libkiapi.so.9.0.1:_ZN5kiapi5board5types15DrillProperties14_InternalParseEPKcPN6google8protobuf8internal12ParseContextE
libkiapi.so.9.0.1:_ZN5kiapi5board5types15DrillProperties14clear_diameterEv
libkiapi.so.9.0.1:_ZN5kiapi5board5types15DrillProperties5ClearEv
libkiapi.so.9.0.1:_ZN5kiapi5board5types15DrillProperties8CopyFromERKS2_
libkiapi.so.9.0.1:_ZN5kiapi5board5types15DrillProperties9MergeImplERN6google8protobuf7MessageERKS5_
libkiapi.so.9.0.1:_ZN5kiapi5board5types15DrillProperties9_Internal8diameterEPKS2_
libkiapi.so.9.0.1:_ZN5kiapi5board5types15DrillPropertiesC1EPN6google8protobuf5ArenaE
libkiapi.so.9.0.1:_ZN5kiapi5board5types15DrillPropertiesC1EPN6google8protobuf5ArenaERKS2_
libkiapi.so.9.0.1:_ZN5kiapi5board5types15DrillPropertiesC2EPN6google8protobuf5ArenaE
libkiapi.so.9.0.1:_ZN5kiapi5board5types15DrillPropertiesC2EPN6google8protobuf5ArenaERKS2_
libkiapi.so.9.0.1:_ZN5kiapi5board5types15DrillPropertiesD0Ev
libkiapi.so.9.0.1:_ZN5kiapi5board5types15DrillPropertiesD1Ev
libkiapi.so.9.0.1:_ZN5kiapi5board5types15DrillPropertiesD2Ev
libkiapi.so.9.0.1:_ZN5kiapi5board5types15PadType_IsValidEi
libkiapi.so.9.0.1:_ZN5kiapi5board5types15ViaType_IsValidEi
libkiapi.so.9.0.1:_ZN5kiapi5board5types16Footprint3DModel11clear_scaleEv
libkiapi.so.9.0.1:_ZN5kiapi5board5types16Footprint3DModel12InternalSwapEPS2_
libkiapi.so.9.0.1:_ZN5kiapi5board5types16Footprint3DModel12clear_offsetEv
libkiapi.so.9.0.1:_ZN5kiapi5board5types16Footprint3DModel14_InternalParseEPKcPN6google8protobuf8internal12ParseContextE
libkiapi.so.9.0.1:_ZN5kiapi5board5types16Footprint3DModel14clear_rotationEv
libkiapi.so.9.0.1:_ZN5kiapi5board5types16Footprint3DModel5ClearEv
libkiapi.so.9.0.1:_ZN5kiapi5board5types16Footprint3DModel8CopyFromERKS2_
libkiapi.so.9.0.1:_ZN5kiapi5board5types16Footprint3DModel9MergeImplERN6google8protobuf7MessageERKS5_
libkiapi.so.9.0.1:_ZN5kiapi5board5types16Footprint3DModel9_Internal5scaleEPKS2_
libkiapi.so.9.0.1:_ZN5kiapi5board5types16Footprint3DModel9_Internal6offsetEPKS2_
libkiapi.so.9.0.1:_ZN5kiapi5board5types16Footprint3DModel9_Internal8rotationEPKS2_
libkiapi.so.9.0.1:_ZN5kiapi5board5types16Footprint3DModelC1EPN6google8protobuf5ArenaE
libkiapi.so.9.0.1:_ZN5kiapi5board5types16Footprint3DModelC1EPN6google8protobuf5ArenaERKS2_
libkiapi.so.9.0.1:_ZN5kiapi5board5types16Footprint3DModelC2EPN6google8protobuf5ArenaE
libkiapi.so.9.0.1:_ZN5kiapi5board5types16Footprint3DModelC2EPN6google8protobuf5ArenaERKS2_
libkiapi.so.9.0.1:_ZN5kiapi5board5types16Footprint3DModelD0Ev
libkiapi.so.9.0.1:_ZN5kiapi5board5types16Footprint3DModelD1Ev
libkiapi.so.9.0.1:_ZN5kiapi5board5types16Footprint3DModelD2Ev
libkiapi.so.9.0.1:_ZN5kiapi5board5types16NetTieDefinition12InternalSwapEPS2_
libkiapi.so.9.0.1:_ZN5kiapi5board5types16NetTieDefinition14_InternalParseEPKcPN6google8protobuf8internal12ParseContextE
libkiapi.so.9.0.1:_ZN5kiapi5board5types16NetTieDefinition5ClearEv
libkiapi.so.9.0.1:_ZN5kiapi5board5types16NetTieDefinition8CopyFromERKS2_
libkiapi.so.9.0.1:_ZN5kiapi5board5types16NetTieDefinition9MergeImplERN6google8protobuf7MessageERKS5_
libkiapi.so.9.0.1:_ZN5kiapi5board5types16NetTieDefinitionC1EPN6google8protobuf5ArenaE
libkiapi.so.9.0.1:_ZN5kiapi5board5types16NetTieDefinitionC1EPN6google8protobuf5ArenaERKS2_
libkiapi.so.9.0.1:_ZN5kiapi5board5types16NetTieDefinitionC2EPN6google8protobuf5ArenaE
libkiapi.so.9.0.1:_ZN5kiapi5board5types16NetTieDefinitionC2EPN6google8protobuf5ArenaERKS2_
libkiapi.so.9.0.1:_ZN5kiapi5board5types16NetTieDefinitionD0Ev
libkiapi.so.9.0.1:_ZN5kiapi5board5types16NetTieDefinitionD1Ev
libkiapi.so.9.0.1:_ZN5kiapi5board5types16NetTieDefinitionD2Ev
libkiapi.so.9.0.1:_ZN5kiapi5board5types16RuleAreaSettings12InternalSwapEPS2_
libkiapi.so.9.0.1:_ZN5kiapi5board5types16RuleAreaSettings14_InternalParseEPKcPN6google8protobuf8internal12ParseContextE
libkiapi.so.9.0.1:_ZN5kiapi5board5types16RuleAreaSettings5ClearEv
libkiapi.so.9.0.1:_ZN5kiapi5board5types16RuleAreaSettings8CopyFromERKS2_
libkiapi.so.9.0.1:_ZN5kiapi5board5types16RuleAreaSettings9MergeImplERN6google8protobuf7MessageERKS5_
libkiapi.so.9.0.1:_ZN5kiapi5board5types16RuleAreaSettingsC1EPN6google8protobuf5ArenaE
libkiapi.so.9.0.1:_ZN5kiapi5board5types16RuleAreaSettingsC1EPN6google8protobuf5ArenaERKS2_
libkiapi.so.9.0.1:_ZN5kiapi5board5types16RuleAreaSettingsC2EPN6google8protobuf5ArenaE
libkiapi.so.9.0.1:_ZN5kiapi5board5types16RuleAreaSettingsC2EPN6google8protobuf5ArenaERKS2_
libkiapi.so.9.0.1:_ZN5kiapi5board5types16RuleAreaSettingsD0Ev
libkiapi.so.9.0.1:_ZN5kiapi5board5types16RuleAreaSettingsD1Ev
libkiapi.so.9.0.1:_ZN5kiapi5board5types16RuleAreaSettingsD2Ev
libkiapi.so.9.0.1:_ZN5kiapi5board5types16TeardropSettings12InternalSwapEPS2_
libkiapi.so.9.0.1:_ZN5kiapi5board5types16TeardropSettings14_InternalParseEPKcPN6google8protobuf8internal12ParseContextE
libkiapi.so.9.0.1:_ZN5kiapi5board5types16TeardropSettings5ClearEv
libkiapi.so.9.0.1:_ZN5kiapi5board5types16TeardropSettings8CopyFromERKS2_
libkiapi.so.9.0.1:_ZN5kiapi5board5types16TeardropSettings9MergeImplERN6google8protobuf7MessageERKS5_
libkiapi.so.9.0.1:_ZN5kiapi5board5types16TeardropSettingsC1EPN6google8protobuf5ArenaE
libkiapi.so.9.0.1:_ZN5kiapi5board5types16TeardropSettingsC1EPN6google8protobuf5ArenaERKS2_
libkiapi.so.9.0.1:_ZN5kiapi5board5types16TeardropSettingsC2EPN6google8protobuf5ArenaE
libkiapi.so.9.0.1:_ZN5kiapi5board5types16TeardropSettingsC2EPN6google8protobuf5ArenaERKS2_
libkiapi.so.9.0.1:_ZN5kiapi5board5types16TeardropSettingsD0Ev
libkiapi.so.9.0.1:_ZN5kiapi5board5types16TeardropSettingsD1Ev
libkiapi.so.9.0.1:_ZN5kiapi5board5types16TeardropSettingsD2Ev
libkiapi.so.9.0.1:_ZN5kiapi5board5types16ZoneType_IsValidEi
libkiapi.so.9.0.1:_ZN5kiapi5board5types17BoardGraphicShape11clear_shapeEv
libkiapi.so.9.0.1:_ZN5kiapi5board5types17BoardGraphicShape12InternalSwapEPS2_
libkiapi.so.9.0.1:_ZN5kiapi5board5types17BoardGraphicShape14_InternalParseEPKcPN6google8protobuf8internal12ParseContextE
libkiapi.so.9.0.1:_ZN5kiapi5board5types17BoardGraphicShape5ClearEv
libkiapi.so.9.0.1:_ZN5kiapi5board5types17BoardGraphicShape8CopyFromERKS2_
libkiapi.so.9.0.1:_ZN5kiapi5board5types17BoardGraphicShape8clear_idEv
libkiapi.so.9.0.1:_ZN5kiapi5board5types17BoardGraphicShape9MergeImplERN6google8protobuf7MessageERKS5_
libkiapi.so.9.0.1:_ZN5kiapi5board5types17BoardGraphicShape9_Internal2idEPKS2_
libkiapi.so.9.0.1:_ZN5kiapi5board5types17BoardGraphicShape9_Internal3netEPKS2_
libkiapi.so.9.0.1:_ZN5kiapi5board5types17BoardGraphicShape9_Internal5shapeEPKS2_
libkiapi.so.9.0.1:_ZN5kiapi5board5types17BoardGraphicShapeC1EPN6google8protobuf5ArenaE
libkiapi.so.9.0.1:_ZN5kiapi5board5types17BoardGraphicShapeC1EPN6google8protobuf5ArenaERKS2_
libkiapi.so.9.0.1:_ZN5kiapi5board5types17BoardGraphicShapeC2EPN6google8protobuf5ArenaE
libkiapi.so.9.0.1:_ZN5kiapi5board5types17BoardGraphicShapeC2EPN6google8protobuf5ArenaERKS2_
libkiapi.so.9.0.1:_ZN5kiapi5board5types17BoardGraphicShapeD0Ev
libkiapi.so.9.0.1:_ZN5kiapi5board5types17BoardGraphicShapeD1Ev
libkiapi.so.9.0.1:_ZN5kiapi5board5types17BoardGraphicShapeD2Ev
libkiapi.so.9.0.1:_ZN5kiapi5board5types17FootprintInstance12InternalSwapEPS2_
libkiapi.so.9.0.1:_ZN5kiapi5board5types17FootprintInstance14_InternalParseEPKcPN6google8protobuf8internal12ParseContextE
libkiapi.so.9.0.1:_ZN5kiapi5board5types17FootprintInstance14clear_positionEv
libkiapi.so.9.0.1:_ZN5kiapi5board5types17FootprintInstance17clear_orientationEv
libkiapi.so.9.0.1:_ZN5kiapi5board5types17FootprintInstance5ClearEv
libkiapi.so.9.0.1:_ZN5kiapi5board5types17FootprintInstance8CopyFromERKS2_
libkiapi.so.9.0.1:_ZN5kiapi5board5types17FootprintInstance8clear_idEv
libkiapi.so.9.0.1:_ZN5kiapi5board5types17FootprintInstance9MergeImplERN6google8protobuf7MessageERKS5_
libkiapi.so.9.0.1:_ZN5kiapi5board5types17FootprintInstance9_Internal10attributesEPKS2_
libkiapi.so.9.0.1:_ZN5kiapi5board5types17FootprintInstance9_Internal10definitionEPKS2_
libkiapi.so.9.0.1:_ZN5kiapi5board5types17FootprintInstance9_Internal11orientationEPKS2_
libkiapi.so.9.0.1:_ZN5kiapi5board5types17FootprintInstance9_Internal11value_fieldEPKS2_
libkiapi.so.9.0.1:_ZN5kiapi5board5types17FootprintInstance9_Internal15datasheet_fieldEPKS2_
libkiapi.so.9.0.1:_ZN5kiapi5board5types17FootprintInstance9_Internal15reference_fieldEPKS2_
libkiapi.so.9.0.1:_ZN5kiapi5board5types17FootprintInstance9_Internal17description_fieldEPKS2_
libkiapi.so.9.0.1:_ZN5kiapi5board5types17FootprintInstance9_Internal2idEPKS2_
libkiapi.so.9.0.1:_ZN5kiapi5board5types17FootprintInstance9_Internal8positionEPKS2_
libkiapi.so.9.0.1:_ZN5kiapi5board5types17FootprintInstance9_Internal9overridesEPKS2_
libkiapi.so.9.0.1:_ZN5kiapi5board5types17FootprintInstanceC1EPN6google8protobuf5ArenaE
libkiapi.so.9.0.1:_ZN5kiapi5board5types17FootprintInstanceC1EPN6google8protobuf5ArenaERKS2_
libkiapi.so.9.0.1:_ZN5kiapi5board5types17FootprintInstanceC2EPN6google8protobuf5ArenaE
libkiapi.so.9.0.1:_ZN5kiapi5board5types17FootprintInstanceC2EPN6google8protobuf5ArenaERKS2_
libkiapi.so.9.0.1:_ZN5kiapi5board5types17FootprintInstanceD0Ev
libkiapi.so.9.0.1:_ZN5kiapi5board5types17FootprintInstanceD1Ev
libkiapi.so.9.0.1:_ZN5kiapi5board5types17FootprintInstanceD2Ev
libkiapi.so.9.0.1:_ZN5kiapi5board5types17HatchFillSettings12InternalSwapEPS2_
libkiapi.so.9.0.1:_ZN5kiapi5board5types17HatchFillSettings14_InternalParseEPKcPN6google8protobuf8internal12ParseContextE
libkiapi.so.9.0.1:_ZN5kiapi5board5types17HatchFillSettings15clear_thicknessEv
libkiapi.so.9.0.1:_ZN5kiapi5board5types17HatchFillSettings17clear_orientationEv
libkiapi.so.9.0.1:_ZN5kiapi5board5types17HatchFillSettings5ClearEv
libkiapi.so.9.0.1:_ZN5kiapi5board5types17HatchFillSettings8CopyFromERKS2_
libkiapi.so.9.0.1:_ZN5kiapi5board5types17HatchFillSettings9MergeImplERN6google8protobuf7MessageERKS5_
libkiapi.so.9.0.1:_ZN5kiapi5board5types17HatchFillSettings9_Internal11orientationEPKS2_
libkiapi.so.9.0.1:_ZN5kiapi5board5types17HatchFillSettings9_Internal3gapEPKS2_
libkiapi.so.9.0.1:_ZN5kiapi5board5types17HatchFillSettings9_Internal9thicknessEPKS2_
libkiapi.so.9.0.1:_ZN5kiapi5board5types17HatchFillSettings9clear_gapEv
libkiapi.so.9.0.1:_ZN5kiapi5board5types17HatchFillSettingsC1EPN6google8protobuf5ArenaE
libkiapi.so.9.0.1:_ZN5kiapi5board5types17HatchFillSettingsC1EPN6google8protobuf5ArenaERKS2_
libkiapi.so.9.0.1:_ZN5kiapi5board5types17HatchFillSettingsC2EPN6google8protobuf5ArenaE
libkiapi.so.9.0.1:_ZN5kiapi5board5types17HatchFillSettingsC2EPN6google8protobuf5ArenaERKS2_
libkiapi.so.9.0.1:_ZN5kiapi5board5types17HatchFillSettingsD0Ev
libkiapi.so.9.0.1:_ZN5kiapi5board5types17HatchFillSettingsD1Ev
libkiapi.so.9.0.1:_ZN5kiapi5board5types17HatchFillSettingsD2Ev
libkiapi.so.9.0.1:_ZN5kiapi5board5types18BoardLayer_IsValidEi
libkiapi.so.9.0.1:_ZN5kiapi5board5types18CopperZoneSettings12InternalSwapEPS2_
libkiapi.so.9.0.1:_ZN5kiapi5board5types18CopperZoneSettings14_InternalParseEPKcPN6google8protobuf8internal12ParseContextE
libkiapi.so.9.0.1:_ZN5kiapi5board5types18CopperZoneSettings15clear_clearanceEv
libkiapi.so.9.0.1:_ZN5kiapi5board5types18CopperZoneSettings19clear_min_thicknessEv
libkiapi.so.9.0.1:_ZN5kiapi5board5types18CopperZoneSettings5ClearEv
libkiapi.so.9.0.1:_ZN5kiapi5board5types18CopperZoneSettings8CopyFromERKS2_
libkiapi.so.9.0.1:_ZN5kiapi5board5types18CopperZoneSettings9MergeImplERN6google8protobuf7MessageERKS5_
libkiapi.so.9.0.1:_ZN5kiapi5board5types18CopperZoneSettings9_Internal10connectionEPKS2_
libkiapi.so.9.0.1:_ZN5kiapi5board5types18CopperZoneSettings9_Internal13min_thicknessEPKS2_
libkiapi.so.9.0.1:_ZN5kiapi5board5types18CopperZoneSettings9_Internal14hatch_settingsEPKS2_
libkiapi.so.9.0.1:_ZN5kiapi5board5types18CopperZoneSettings9_Internal3netEPKS2_
libkiapi.so.9.0.1:_ZN5kiapi5board5types18CopperZoneSettings9_Internal8teardropEPKS2_
libkiapi.so.9.0.1:_ZN5kiapi5board5types18CopperZoneSettings9_Internal9clearanceEPKS2_
libkiapi.so.9.0.1:_ZN5kiapi5board5types18CopperZoneSettingsC1EPN6google8protobuf5ArenaE
libkiapi.so.9.0.1:_ZN5kiapi5board5types18CopperZoneSettingsC1EPN6google8protobuf5ArenaERKS2_
libkiapi.so.9.0.1:_ZN5kiapi5board5types18CopperZoneSettingsC2EPN6google8protobuf5ArenaE
libkiapi.so.9.0.1:_ZN5kiapi5board5types18CopperZoneSettingsC2EPN6google8protobuf5ArenaERKS2_
libkiapi.so.9.0.1:_ZN5kiapi5board5types18CopperZoneSettingsD0Ev
libkiapi.so.9.0.1:_ZN5kiapi5board5types18CopperZoneSettingsD1Ev
libkiapi.so.9.0.1:_ZN5kiapi5board5types18CopperZoneSettingsD2Ev
libkiapi.so.9.0.1:_ZN5kiapi5board5types18DrillShape_IsValidEi
libkiapi.so.9.0.1:_ZN5kiapi5board5types18PadStackOuterLayer12InternalSwapEPS2_
libkiapi.so.9.0.1:_ZN5kiapi5board5types18PadStackOuterLayer14_InternalParseEPKcPN6google8protobuf8internal12ParseContextE
libkiapi.so.9.0.1:_ZN5kiapi5board5types18PadStackOuterLayer5ClearEv
libkiapi.so.9.0.1:_ZN5kiapi5board5types18PadStackOuterLayer8CopyFromERKS2_
libkiapi.so.9.0.1:_ZN5kiapi5board5types18PadStackOuterLayer9MergeImplERN6google8protobuf7MessageERKS5_
libkiapi.so.9.0.1:_ZN5kiapi5board5types18PadStackOuterLayer9_Internal20solder_mask_settingsEPKS2_
libkiapi.so.9.0.1:_ZN5kiapi5board5types18PadStackOuterLayer9_Internal21solder_paste_settingsEPKS2_
libkiapi.so.9.0.1:_ZN5kiapi5board5types18PadStackOuterLayerC1EPN6google8protobuf5ArenaE
libkiapi.so.9.0.1:_ZN5kiapi5board5types18PadStackOuterLayerC1EPN6google8protobuf5ArenaERKS2_
libkiapi.so.9.0.1:_ZN5kiapi5board5types18PadStackOuterLayerC2EPN6google8protobuf5ArenaE
libkiapi.so.9.0.1:_ZN5kiapi5board5types18PadStackOuterLayerC2EPN6google8protobuf5ArenaERKS2_
libkiapi.so.9.0.1:_ZN5kiapi5board5types18PadStackOuterLayerD0Ev
libkiapi.so.9.0.1:_ZN5kiapi5board5types18PadStackOuterLayerD1Ev
libkiapi.so.9.0.1:_ZN5kiapi5board5types18PadStackOuterLayerD2Ev
libkiapi.so.9.0.1:_ZN5kiapi5board5types18PadType_descriptorEv
libkiapi.so.9.0.1:_ZN5kiapi5board5types18ViaType_descriptorEv
libkiapi.so.9.0.1:_ZN5kiapi5board5types18ZoneBorderSettings11clear_pitchEv
libkiapi.so.9.0.1:_ZN5kiapi5board5types18ZoneBorderSettings12InternalSwapEPS2_
libkiapi.so.9.0.1:_ZN5kiapi5board5types18ZoneBorderSettings14_InternalParseEPKcPN6google8protobuf8internal12ParseContextE
libkiapi.so.9.0.1:_ZN5kiapi5board5types18ZoneBorderSettings5ClearEv
libkiapi.so.9.0.1:_ZN5kiapi5board5types18ZoneBorderSettings8CopyFromERKS2_
libkiapi.so.9.0.1:_ZN5kiapi5board5types18ZoneBorderSettings9MergeImplERN6google8protobuf7MessageERKS5_
libkiapi.so.9.0.1:_ZN5kiapi5board5types18ZoneBorderSettings9_Internal5pitchEPKS2_
libkiapi.so.9.0.1:_ZN5kiapi5board5types18ZoneBorderSettingsC1EPN6google8protobuf5ArenaE
libkiapi.so.9.0.1:_ZN5kiapi5board5types18ZoneBorderSettingsC1EPN6google8protobuf5ArenaERKS2_
libkiapi.so.9.0.1:_ZN5kiapi5board5types18ZoneBorderSettingsC2EPN6google8protobuf5ArenaE
libkiapi.so.9.0.1:_ZN5kiapi5board5types18ZoneBorderSettingsC2EPN6google8protobuf5ArenaERKS2_
libkiapi.so.9.0.1:_ZN5kiapi5board5types18ZoneBorderSettingsD0Ev
libkiapi.so.9.0.1:_ZN5kiapi5board5types18ZoneBorderSettingsD1Ev
libkiapi.so.9.0.1:_ZN5kiapi5board5types18ZoneBorderSettingsD2Ev
libkiapi.so.9.0.1:_ZN5kiapi5board5types18ZoneFilledPolygons12InternalSwapEPS2_
libkiapi.so.9.0.1:_ZN5kiapi5board5types18ZoneFilledPolygons12clear_shapesEv
libkiapi.so.9.0.1:_ZN5kiapi5board5types18ZoneFilledPolygons14_InternalParseEPKcPN6google8protobuf8internal12ParseContextE
libkiapi.so.9.0.1:_ZN5kiapi5board5types18ZoneFilledPolygons5ClearEv
libkiapi.so.9.0.1:_ZN5kiapi5board5types18ZoneFilledPolygons8CopyFromERKS2_
libkiapi.so.9.0.1:_ZN5kiapi5board5types18ZoneFilledPolygons9MergeImplERN6google8protobuf7MessageERKS5_
libkiapi.so.9.0.1:_ZN5kiapi5board5types18ZoneFilledPolygons9_Internal6shapesEPKS2_
libkiapi.so.9.0.1:_ZN5kiapi5board5types18ZoneFilledPolygonsC1EPN6google8protobuf5ArenaE
libkiapi.so.9.0.1:_ZN5kiapi5board5types18ZoneFilledPolygonsC1EPN6google8protobuf5ArenaERKS2_
libkiapi.so.9.0.1:_ZN5kiapi5board5types18ZoneFilledPolygonsC2EPN6google8protobuf5ArenaE
libkiapi.so.9.0.1:_ZN5kiapi5board5types18ZoneFilledPolygonsC2EPN6google8protobuf5ArenaERKS2_
libkiapi.so.9.0.1:_ZN5kiapi5board5types18ZoneFilledPolygonsD0Ev
libkiapi.so.9.0.1:_ZN5kiapi5board5types18ZoneFilledPolygonsD1Ev
libkiapi.so.9.0.1:_ZN5kiapi5board5types18ZoneFilledPolygonsD2Ev
libkiapi.so.9.0.1:_ZN5kiapi5board5types19FootprintAttributes12InternalSwapEPS2_
libkiapi.so.9.0.1:_ZN5kiapi5board5types19FootprintAttributes14_InternalParseEPKcPN6google8protobuf8internal12ParseContextE
libkiapi.so.9.0.1:_ZN5kiapi5board5types19FootprintAttributes5ClearEv
libkiapi.so.9.0.1:_ZN5kiapi5board5types19FootprintAttributes8CopyFromERKS2_
libkiapi.so.9.0.1:_ZN5kiapi5board5types19FootprintAttributes9MergeImplERN6google8protobuf7MessageERKS5_
libkiapi.so.9.0.1:_ZN5kiapi5board5types19FootprintAttributesC1EPN6google8protobuf5ArenaE
libkiapi.so.9.0.1:_ZN5kiapi5board5types19FootprintAttributesC1EPN6google8protobuf5ArenaERKS2_
libkiapi.so.9.0.1:_ZN5kiapi5board5types19FootprintAttributesC2EPN6google8protobuf5ArenaE
libkiapi.so.9.0.1:_ZN5kiapi5board5types19FootprintAttributesC2EPN6google8protobuf5ArenaERKS2_
libkiapi.so.9.0.1:_ZN5kiapi5board5types19FootprintAttributesD0Ev
libkiapi.so.9.0.1:_ZN5kiapi5board5types19FootprintAttributesD1Ev
libkiapi.so.9.0.1:_ZN5kiapi5board5types19FootprintAttributesD2Ev
libkiapi.so.9.0.1:_ZN5kiapi5board5types19SolderMaskOverrides12InternalSwapEPS2_
libkiapi.so.9.0.1:_ZN5kiapi5board5types19SolderMaskOverrides14_InternalParseEPKcPN6google8protobuf8internal12ParseContextE
libkiapi.so.9.0.1:_ZN5kiapi5board5types19SolderMaskOverrides24clear_solder_mask_marginEv
libkiapi.so.9.0.1:_ZN5kiapi5board5types19SolderMaskOverrides5ClearEv
libkiapi.so.9.0.1:_ZN5kiapi5board5types19SolderMaskOverrides8CopyFromERKS2_
libkiapi.so.9.0.1:_ZN5kiapi5board5types19SolderMaskOverrides9MergeImplERN6google8protobuf7MessageERKS5_
libkiapi.so.9.0.1:_ZN5kiapi5board5types19SolderMaskOverrides9_Internal18solder_mask_marginEPKS2_
libkiapi.so.9.0.1:_ZN5kiapi5board5types19SolderMaskOverridesC1EPN6google8protobuf5ArenaE
libkiapi.so.9.0.1:_ZN5kiapi5board5types19SolderMaskOverridesC1EPN6google8protobuf5ArenaERKS2_
libkiapi.so.9.0.1:_ZN5kiapi5board5types19SolderMaskOverridesC2EPN6google8protobuf5ArenaE
libkiapi.so.9.0.1:_ZN5kiapi5board5types19SolderMaskOverridesC2EPN6google8protobuf5ArenaERKS2_
libkiapi.so.9.0.1:_ZN5kiapi5board5types19SolderMaskOverridesD0Ev
libkiapi.so.9.0.1:_ZN5kiapi5board5types19SolderMaskOverridesD1Ev
libkiapi.so.9.0.1:_ZN5kiapi5board5types19SolderMaskOverridesD2Ev
libkiapi.so.9.0.1:_ZN5kiapi5board5types19ZoneType_descriptorEv
libkiapi.so.9.0.1:_ZN5kiapi5board5types20ChamferedRectCorners12InternalSwapEPS2_
libkiapi.so.9.0.1:_ZN5kiapi5board5types20ChamferedRectCorners14_InternalParseEPKcPN6google8protobuf8internal12ParseContextE
libkiapi.so.9.0.1:_ZN5kiapi5board5types20ChamferedRectCorners5ClearEv
libkiapi.so.9.0.1:_ZN5kiapi5board5types20ChamferedRectCorners8CopyFromERKS2_
libkiapi.so.9.0.1:_ZN5kiapi5board5types20ChamferedRectCorners9MergeImplERN6google8protobuf7MessageERKS5_
libkiapi.so.9.0.1:_ZN5kiapi5board5types20ChamferedRectCornersC1EPN6google8protobuf5ArenaE
libkiapi.so.9.0.1:_ZN5kiapi5board5types20ChamferedRectCornersC1EPN6google8protobuf5ArenaERKS2_
libkiapi.so.9.0.1:_ZN5kiapi5board5types20ChamferedRectCornersC2EPN6google8protobuf5ArenaE
libkiapi.so.9.0.1:_ZN5kiapi5board5types20ChamferedRectCornersC2EPN6google8protobuf5ArenaERKS2_
libkiapi.so.9.0.1:_ZN5kiapi5board5types20ChamferedRectCornersD0Ev
libkiapi.so.9.0.1:_ZN5kiapi5board5types20ChamferedRectCornersD1Ev
libkiapi.so.9.0.1:_ZN5kiapi5board5types20ChamferedRectCornersD2Ev
libkiapi.so.9.0.1:_ZN5kiapi5board5types20PadStackType_IsValidEi
libkiapi.so.9.0.1:_ZN5kiapi5board5types20SolderPasteOverrides12InternalSwapEPS2_
libkiapi.so.9.0.1:_ZN5kiapi5board5types20SolderPasteOverrides14_InternalParseEPKcPN6google8protobuf8internal12ParseContextE
libkiapi.so.9.0.1:_ZN5kiapi5board5types20SolderPasteOverrides25clear_solder_paste_marginEv
libkiapi.so.9.0.1:_ZN5kiapi5board5types20SolderPasteOverrides31clear_solder_paste_margin_ratioEv
libkiapi.so.9.0.1:_ZN5kiapi5board5types20SolderPasteOverrides5ClearEv
libkiapi.so.9.0.1:_ZN5kiapi5board5types20SolderPasteOverrides8CopyFromERKS2_
libkiapi.so.9.0.1:_ZN5kiapi5board5types20SolderPasteOverrides9MergeImplERN6google8protobuf7MessageERKS5_
libkiapi.so.9.0.1:_ZN5kiapi5board5types20SolderPasteOverrides9_Internal19solder_paste_marginEPKS2_
libkiapi.so.9.0.1:_ZN5kiapi5board5types20SolderPasteOverrides9_Internal25solder_paste_margin_ratioEPKS2_
libkiapi.so.9.0.1:_ZN5kiapi5board5types20SolderPasteOverridesC1EPN6google8protobuf5ArenaE
libkiapi.so.9.0.1:_ZN5kiapi5board5types20SolderPasteOverridesC1EPN6google8protobuf5ArenaERKS2_
libkiapi.so.9.0.1:_ZN5kiapi5board5types20SolderPasteOverridesC2EPN6google8protobuf5ArenaE
libkiapi.so.9.0.1:_ZN5kiapi5board5types20SolderPasteOverridesC2EPN6google8protobuf5ArenaERKS2_
libkiapi.so.9.0.1:_ZN5kiapi5board5types20SolderPasteOverridesD0Ev
libkiapi.so.9.0.1:_ZN5kiapi5board5types20SolderPasteOverridesD1Ev
libkiapi.so.9.0.1:_ZN5kiapi5board5types20SolderPasteOverridesD2Ev
libkiapi.so.9.0.1:_ZN5kiapi5board5types20TeardropType_IsValidEi
libkiapi.so.9.0.1:_ZN5kiapi5board5types20ThermalSpokeSettings11clear_angleEv
libkiapi.so.9.0.1:_ZN5kiapi5board5types20ThermalSpokeSettings11clear_widthEv
libkiapi.so.9.0.1:_ZN5kiapi5board5types20ThermalSpokeSettings12InternalSwapEPS2_
libkiapi.so.9.0.1:_ZN5kiapi5board5types20ThermalSpokeSettings14_InternalParseEPKcPN6google8protobuf8internal12ParseContextE
libkiapi.so.9.0.1:_ZN5kiapi5board5types20ThermalSpokeSettings5ClearEv
libkiapi.so.9.0.1:_ZN5kiapi5board5types20ThermalSpokeSettings8CopyFromERKS2_
libkiapi.so.9.0.1:_ZN5kiapi5board5types20ThermalSpokeSettings9MergeImplERN6google8protobuf7MessageERKS5_
libkiapi.so.9.0.1:_ZN5kiapi5board5types20ThermalSpokeSettings9_Internal3gapEPKS2_
libkiapi.so.9.0.1:_ZN5kiapi5board5types20ThermalSpokeSettings9_Internal5angleEPKS2_
libkiapi.so.9.0.1:_ZN5kiapi5board5types20ThermalSpokeSettings9_Internal5widthEPKS2_
libkiapi.so.9.0.1:_ZN5kiapi5board5types20ThermalSpokeSettings9clear_gapEv
libkiapi.so.9.0.1:_ZN5kiapi5board5types20ThermalSpokeSettingsC1EPN6google8protobuf5ArenaE
libkiapi.so.9.0.1:_ZN5kiapi5board5types20ThermalSpokeSettingsC1EPN6google8protobuf5ArenaERKS2_
libkiapi.so.9.0.1:_ZN5kiapi5board5types20ThermalSpokeSettingsC2EPN6google8protobuf5ArenaE
libkiapi.so.9.0.1:_ZN5kiapi5board5types20ThermalSpokeSettingsC2EPN6google8protobuf5ArenaERKS2_
libkiapi.so.9.0.1:_ZN5kiapi5board5types20ThermalSpokeSettingsD0Ev
libkiapi.so.9.0.1:_ZN5kiapi5board5types20ThermalSpokeSettingsD1Ev
libkiapi.so.9.0.1:_ZN5kiapi5board5types20ThermalSpokeSettingsD2Ev
libkiapi.so.9.0.1:_ZN5kiapi5board5types20ZoneFillMode_IsValidEi
libkiapi.so.9.0.1:_ZN5kiapi5board5types21BoardLayer_descriptorEv
libkiapi.so.9.0.1:_ZN5kiapi5board5types21DimensionUnit_IsValidEi
libkiapi.so.9.0.1:_ZN5kiapi5board5types21DrillShape_descriptorEv
libkiapi.so.9.0.1:_ZN5kiapi5board5types21PadStackShape_IsValidEi
libkiapi.so.9.0.1:_ZN5kiapi5board5types22SolderMaskMode_IsValidEi
libkiapi.so.9.0.1:_ZN5kiapi5board5types22ZoneConnectionSettings12InternalSwapEPS2_
libkiapi.so.9.0.1:_ZN5kiapi5board5types22ZoneConnectionSettings14_InternalParseEPKcPN6google8protobuf8internal12ParseContextE
libkiapi.so.9.0.1:_ZN5kiapi5board5types22ZoneConnectionSettings5ClearEv
libkiapi.so.9.0.1:_ZN5kiapi5board5types22ZoneConnectionSettings8CopyFromERKS2_
libkiapi.so.9.0.1:_ZN5kiapi5board5types22ZoneConnectionSettings9MergeImplERN6google8protobuf7MessageERKS5_
libkiapi.so.9.0.1:_ZN5kiapi5board5types22ZoneConnectionSettings9_Internal14thermal_spokesEPKS2_
libkiapi.so.9.0.1:_ZN5kiapi5board5types22ZoneConnectionSettingsC1EPN6google8protobuf5ArenaE
libkiapi.so.9.0.1:_ZN5kiapi5board5types22ZoneConnectionSettingsC1EPN6google8protobuf5ArenaERKS2_
libkiapi.so.9.0.1:_ZN5kiapi5board5types22ZoneConnectionSettingsC2EPN6google8protobuf5ArenaE
libkiapi.so.9.0.1:_ZN5kiapi5board5types22ZoneConnectionSettingsC2EPN6google8protobuf5ArenaERKS2_
libkiapi.so.9.0.1:_ZN5kiapi5board5types22ZoneConnectionSettingsD0Ev
libkiapi.so.9.0.1:_ZN5kiapi5board5types22ZoneConnectionSettingsD1Ev
libkiapi.so.9.0.1:_ZN5kiapi5board5types22ZoneConnectionSettingsD2Ev
libkiapi.so.9.0.1:_ZN5kiapi5board5types23PadStackType_descriptorEv
libkiapi.so.9.0.1:_ZN5kiapi5board5types23SolderPasteMode_IsValidEi
libkiapi.so.9.0.1:_ZN5kiapi5board5types23TeardropType_descriptorEv
libkiapi.so.9.0.1:_ZN5kiapi5board5types23ZoneBorderStyle_IsValidEi
libkiapi.so.9.0.1:_ZN5kiapi5board5types23ZoneFillMode_descriptorEv
libkiapi.so.9.0.1:_ZN5kiapi5board5types24DimensionUnit_descriptorEv
libkiapi.so.9.0.1:_ZN5kiapi5board5types24PadStackShape_descriptorEv
libkiapi.so.9.0.1:_ZN5kiapi5board5types25CenterDimensionAttributes12InternalSwapEPS2_
libkiapi.so.9.0.1:_ZN5kiapi5board5types25CenterDimensionAttributes12clear_centerEv
libkiapi.so.9.0.1:_ZN5kiapi5board5types25CenterDimensionAttributes14_InternalParseEPKcPN6google8protobuf8internal12ParseContextE
libkiapi.so.9.0.1:_ZN5kiapi5board5types25CenterDimensionAttributes5ClearEv
libkiapi.so.9.0.1:_ZN5kiapi5board5types25CenterDimensionAttributes8CopyFromERKS2_
libkiapi.so.9.0.1:_ZN5kiapi5board5types25CenterDimensionAttributes9MergeImplERN6google8protobuf7MessageERKS5_
libkiapi.so.9.0.1:_ZN5kiapi5board5types25CenterDimensionAttributes9_Internal3endEPKS2_
libkiapi.so.9.0.1:_ZN5kiapi5board5types25CenterDimensionAttributes9_Internal6centerEPKS2_
libkiapi.so.9.0.1:_ZN5kiapi5board5types25CenterDimensionAttributes9clear_endEv
libkiapi.so.9.0.1:_ZN5kiapi5board5types25CenterDimensionAttributesC1EPN6google8protobuf5ArenaE
libkiapi.so.9.0.1:_ZN5kiapi5board5types25CenterDimensionAttributesC1EPN6google8protobuf5ArenaERKS2_
libkiapi.so.9.0.1:_ZN5kiapi5board5types25CenterDimensionAttributesC2EPN6google8protobuf5ArenaE
libkiapi.so.9.0.1:_ZN5kiapi5board5types25CenterDimensionAttributesC2EPN6google8protobuf5ArenaERKS2_
libkiapi.so.9.0.1:_ZN5kiapi5board5types25CenterDimensionAttributesD0Ev
libkiapi.so.9.0.1:_ZN5kiapi5board5types25CenterDimensionAttributesD1Ev
libkiapi.so.9.0.1:_ZN5kiapi5board5types25CenterDimensionAttributesD2Ev
libkiapi.so.9.0.1:_ZN5kiapi5board5types25IslandRemovalMode_IsValidEi
libkiapi.so.9.0.1:_ZN5kiapi5board5types25LeaderDimensionAttributes11clear_startEv
libkiapi.so.9.0.1:_ZN5kiapi5board5types25LeaderDimensionAttributes12InternalSwapEPS2_
libkiapi.so.9.0.1:_ZN5kiapi5board5types25LeaderDimensionAttributes14_InternalParseEPKcPN6google8protobuf8internal12ParseContextE
libkiapi.so.9.0.1:_ZN5kiapi5board5types25LeaderDimensionAttributes5ClearEv
libkiapi.so.9.0.1:_ZN5kiapi5board5types25LeaderDimensionAttributes8CopyFromERKS2_
libkiapi.so.9.0.1:_ZN5kiapi5board5types25LeaderDimensionAttributes9MergeImplERN6google8protobuf7MessageERKS5_
libkiapi.so.9.0.1:_ZN5kiapi5board5types25LeaderDimensionAttributes9_Internal3endEPKS2_
libkiapi.so.9.0.1:_ZN5kiapi5board5types25LeaderDimensionAttributes9_Internal5startEPKS2_
libkiapi.so.9.0.1:_ZN5kiapi5board5types25LeaderDimensionAttributes9clear_endEv
libkiapi.so.9.0.1:_ZN5kiapi5board5types25LeaderDimensionAttributesC1EPN6google8protobuf5ArenaE
libkiapi.so.9.0.1:_ZN5kiapi5board5types25LeaderDimensionAttributesC1EPN6google8protobuf5ArenaERKS2_
libkiapi.so.9.0.1:_ZN5kiapi5board5types25LeaderDimensionAttributesC2EPN6google8protobuf5ArenaE
libkiapi.so.9.0.1:_ZN5kiapi5board5types25LeaderDimensionAttributesC2EPN6google8protobuf5ArenaERKS2_
libkiapi.so.9.0.1:_ZN5kiapi5board5types25LeaderDimensionAttributesD0Ev
libkiapi.so.9.0.1:_ZN5kiapi5board5types25LeaderDimensionAttributesD1Ev
libkiapi.so.9.0.1:_ZN5kiapi5board5types25LeaderDimensionAttributesD2Ev
libkiapi.so.9.0.1:_ZN5kiapi5board5types25RadialDimensionAttributes12InternalSwapEPS2_
libkiapi.so.9.0.1:_ZN5kiapi5board5types25RadialDimensionAttributes12clear_centerEv
libkiapi.so.9.0.1:_ZN5kiapi5board5types25RadialDimensionAttributes14_InternalParseEPKcPN6google8protobuf8internal12ParseContextE
libkiapi.so.9.0.1:_ZN5kiapi5board5types25RadialDimensionAttributes18clear_radius_pointEv
libkiapi.so.9.0.1:_ZN5kiapi5board5types25RadialDimensionAttributes19clear_leader_lengthEv
libkiapi.so.9.0.1:_ZN5kiapi5board5types25RadialDimensionAttributes5ClearEv
libkiapi.so.9.0.1:_ZN5kiapi5board5types25RadialDimensionAttributes8CopyFromERKS2_
libkiapi.so.9.0.1:_ZN5kiapi5board5types25RadialDimensionAttributes9MergeImplERN6google8protobuf7MessageERKS5_
libkiapi.so.9.0.1:_ZN5kiapi5board5types25RadialDimensionAttributes9_Internal12radius_pointEPKS2_
libkiapi.so.9.0.1:_ZN5kiapi5board5types25RadialDimensionAttributes9_Internal13leader_lengthEPKS2_
libkiapi.so.9.0.1:_ZN5kiapi5board5types25RadialDimensionAttributes9_Internal6centerEPKS2_
libkiapi.so.9.0.1:_ZN5kiapi5board5types25RadialDimensionAttributesC1EPN6google8protobuf5ArenaE
libkiapi.so.9.0.1:_ZN5kiapi5board5types25RadialDimensionAttributesC1EPN6google8protobuf5ArenaERKS2_
libkiapi.so.9.0.1:_ZN5kiapi5board5types25RadialDimensionAttributesC2EPN6google8protobuf5ArenaE
libkiapi.so.9.0.1:_ZN5kiapi5board5types25RadialDimensionAttributesC2EPN6google8protobuf5ArenaERKS2_
libkiapi.so.9.0.1:_ZN5kiapi5board5types25RadialDimensionAttributesD0Ev
libkiapi.so.9.0.1:_ZN5kiapi5board5types25RadialDimensionAttributesD1Ev
libkiapi.so.9.0.1:_ZN5kiapi5board5types25RadialDimensionAttributesD2Ev
libkiapi.so.9.0.1:_ZN5kiapi5board5types25SolderMaskMode_descriptorEv
libkiapi.so.9.0.1:_ZN5kiapi5board5types26AlignedDimensionAttributes11clear_startEv
libkiapi.so.9.0.1:_ZN5kiapi5board5types26AlignedDimensionAttributes12InternalSwapEPS2_
libkiapi.so.9.0.1:_ZN5kiapi5board5types26AlignedDimensionAttributes12clear_heightEv
libkiapi.so.9.0.1:_ZN5kiapi5board5types26AlignedDimensionAttributes14_InternalParseEPKcPN6google8protobuf8internal12ParseContextE
libkiapi.so.9.0.1:_ZN5kiapi5board5types26AlignedDimensionAttributes22clear_extension_heightEv
libkiapi.so.9.0.1:_ZN5kiapi5board5types26AlignedDimensionAttributes5ClearEv
libkiapi.so.9.0.1:_ZN5kiapi5board5types26AlignedDimensionAttributes8CopyFromERKS2_
libkiapi.so.9.0.1:_ZN5kiapi5board5types26AlignedDimensionAttributes9MergeImplERN6google8protobuf7MessageERKS5_
libkiapi.so.9.0.1:_ZN5kiapi5board5types26AlignedDimensionAttributes9_Internal16extension_heightEPKS2_
libkiapi.so.9.0.1:_ZN5kiapi5board5types26AlignedDimensionAttributes9_Internal3endEPKS2_
libkiapi.so.9.0.1:_ZN5kiapi5board5types26AlignedDimensionAttributes9_Internal5startEPKS2_
libkiapi.so.9.0.1:_ZN5kiapi5board5types26AlignedDimensionAttributes9_Internal6heightEPKS2_
libkiapi.so.9.0.1:_ZN5kiapi5board5types26AlignedDimensionAttributes9clear_endEv
libkiapi.so.9.0.1:_ZN5kiapi5board5types26AlignedDimensionAttributesC1EPN6google8protobuf5ArenaE
libkiapi.so.9.0.1:_ZN5kiapi5board5types26AlignedDimensionAttributesC1EPN6google8protobuf5ArenaERKS2_
libkiapi.so.9.0.1:_ZN5kiapi5board5types26AlignedDimensionAttributesC2EPN6google8protobuf5ArenaE
libkiapi.so.9.0.1:_ZN5kiapi5board5types26AlignedDimensionAttributesC2EPN6google8protobuf5ArenaERKS2_
libkiapi.so.9.0.1:_ZN5kiapi5board5types26AlignedDimensionAttributesD0Ev
libkiapi.so.9.0.1:_ZN5kiapi5board5types26AlignedDimensionAttributesD1Ev
libkiapi.so.9.0.1:_ZN5kiapi5board5types26AlignedDimensionAttributesD2Ev
libkiapi.so.9.0.1:_ZN5kiapi5board5types26DimensionPrecision_IsValidEi
libkiapi.so.9.0.1:_ZN5kiapi5board5types26SolderPasteMode_descriptorEv
libkiapi.so.9.0.1:_ZN5kiapi5board5types26ZoneBorderStyle_descriptorEv
libkiapi.so.9.0.1:_ZN5kiapi5board5types26ZoneHatchSmoothing_IsValidEi
libkiapi.so.9.0.1:_ZN5kiapi5board5types27DimensionUnitFormat_IsValidEi
libkiapi.so.9.0.1:_ZN5kiapi5board5types27ZoneConnectionStyle_IsValidEi
libkiapi.so.9.0.1:_ZN5kiapi5board5types28FootprintDesignRuleOverrides12InternalSwapEPS2_
libkiapi.so.9.0.1:_ZN5kiapi5board5types28FootprintDesignRuleOverrides14_InternalParseEPKcPN6google8protobuf8internal12ParseContextE
libkiapi.so.9.0.1:_ZN5kiapi5board5types28FootprintDesignRuleOverrides22clear_copper_clearanceEv
libkiapi.so.9.0.1:_ZN5kiapi5board5types28FootprintDesignRuleOverrides5ClearEv
libkiapi.so.9.0.1:_ZN5kiapi5board5types28FootprintDesignRuleOverrides8CopyFromERKS2_
libkiapi.so.9.0.1:_ZN5kiapi5board5types28FootprintDesignRuleOverrides9MergeImplERN6google8protobuf7MessageERKS5_
libkiapi.so.9.0.1:_ZN5kiapi5board5types28FootprintDesignRuleOverrides9_Internal11solder_maskEPKS2_
libkiapi.so.9.0.1:_ZN5kiapi5board5types28FootprintDesignRuleOverrides9_Internal12solder_pasteEPKS2_
libkiapi.so.9.0.1:_ZN5kiapi5board5types28FootprintDesignRuleOverrides9_Internal16copper_clearanceEPKS2_
libkiapi.so.9.0.1:_ZN5kiapi5board5types28FootprintDesignRuleOverridesC1EPN6google8protobuf5ArenaE
libkiapi.so.9.0.1:_ZN5kiapi5board5types28FootprintDesignRuleOverridesC1EPN6google8protobuf5ArenaERKS2_
libkiapi.so.9.0.1:_ZN5kiapi5board5types28FootprintDesignRuleOverridesC2EPN6google8protobuf5ArenaE
libkiapi.so.9.0.1:_ZN5kiapi5board5types28FootprintDesignRuleOverridesC2EPN6google8protobuf5ArenaERKS2_
libkiapi.so.9.0.1:_ZN5kiapi5board5types28FootprintDesignRuleOverridesD0Ev
libkiapi.so.9.0.1:_ZN5kiapi5board5types28FootprintDesignRuleOverridesD1Ev
libkiapi.so.9.0.1:_ZN5kiapi5board5types28FootprintDesignRuleOverridesD2Ev
libkiapi.so.9.0.1:_ZN5kiapi5board5types28IslandRemovalMode_descriptorEv
libkiapi.so.9.0.1:_ZN5kiapi5board5types29DimensionPrecision_descriptorEv
libkiapi.so.9.0.1:_ZN5kiapi5board5types29DimensionTextPosition_IsValidEi
libkiapi.so.9.0.1:_ZN5kiapi5board5types29OrthogonalDimensionAttributes11clear_startEv
libkiapi.so.9.0.1:_ZN5kiapi5board5types29OrthogonalDimensionAttributes12InternalSwapEPS2_
libkiapi.so.9.0.1:_ZN5kiapi5board5types29OrthogonalDimensionAttributes12clear_heightEv
libkiapi.so.9.0.1:_ZN5kiapi5board5types29OrthogonalDimensionAttributes14_InternalParseEPKcPN6google8protobuf8internal12ParseContextE
libkiapi.so.9.0.1:_ZN5kiapi5board5types29OrthogonalDimensionAttributes22clear_extension_heightEv
libkiapi.so.9.0.1:_ZN5kiapi5board5types29OrthogonalDimensionAttributes5ClearEv
libkiapi.so.9.0.1:_ZN5kiapi5board5types29OrthogonalDimensionAttributes8CopyFromERKS2_
libkiapi.so.9.0.1:_ZN5kiapi5board5types29OrthogonalDimensionAttributes9MergeImplERN6google8protobuf7MessageERKS5_
libkiapi.so.9.0.1:_ZN5kiapi5board5types29OrthogonalDimensionAttributes9_Internal16extension_heightEPKS2_
libkiapi.so.9.0.1:_ZN5kiapi5board5types29OrthogonalDimensionAttributes9_Internal3endEPKS2_
libkiapi.so.9.0.1:_ZN5kiapi5board5types29OrthogonalDimensionAttributes9_Internal5startEPKS2_
libkiapi.so.9.0.1:_ZN5kiapi5board5types29OrthogonalDimensionAttributes9_Internal6heightEPKS2_
libkiapi.so.9.0.1:_ZN5kiapi5board5types29OrthogonalDimensionAttributes9clear_endEv
libkiapi.so.9.0.1:_ZN5kiapi5board5types29OrthogonalDimensionAttributesC1EPN6google8protobuf5ArenaE
libkiapi.so.9.0.1:_ZN5kiapi5board5types29OrthogonalDimensionAttributesC1EPN6google8protobuf5ArenaERKS2_
libkiapi.so.9.0.1:_ZN5kiapi5board5types29OrthogonalDimensionAttributesC2EPN6google8protobuf5ArenaE
libkiapi.so.9.0.1:_ZN5kiapi5board5types29OrthogonalDimensionAttributesC2EPN6google8protobuf5ArenaERKS2_
libkiapi.so.9.0.1:_ZN5kiapi5board5types29OrthogonalDimensionAttributesD0Ev
libkiapi.so.9.0.1:_ZN5kiapi5board5types29OrthogonalDimensionAttributesD1Ev
libkiapi.so.9.0.1:_ZN5kiapi5board5types29OrthogonalDimensionAttributesD2Ev
libkiapi.so.9.0.1:_ZN5kiapi5board5types29ZoneHatchSmoothing_descriptorEv
libkiapi.so.9.0.1:_ZN5kiapi5board5types30DimensionUnitFormat_descriptorEv
libkiapi.so.9.0.1:_ZN5kiapi5board5types30FootprintMountingStyle_IsValidEi
libkiapi.so.9.0.1:_ZN5kiapi5board5types30ZoneConnectionStyle_descriptorEv
libkiapi.so.9.0.1:_ZN5kiapi5board5types31DimensionArrowDirection_IsValidEi
libkiapi.so.9.0.1:_ZN5kiapi5board5types31PlacementRuleSourceType_IsValidEi
libkiapi.so.9.0.1:_ZN5kiapi5board5types31UnconnectedLayerRemoval_IsValidEi
libkiapi.so.9.0.1:_ZN5kiapi5board5types31ZoneHatchFillBorderMode_IsValidEi
libkiapi.so.9.0.1:_ZN5kiapi5board5types32DimensionTextBorderStyle_IsValidEi
libkiapi.so.9.0.1:_ZN5kiapi5board5types32DimensionTextPosition_descriptorEv
libkiapi.so.9.0.1:_ZN5kiapi5board5types33FootprintMountingStyle_descriptorEv
libkiapi.so.9.0.1:_ZN5kiapi5board5types34DimensionArrowDirection_descriptorEv
libkiapi.so.9.0.1:_ZN5kiapi5board5types34PlacementRuleSourceType_descriptorEv
libkiapi.so.9.0.1:_ZN5kiapi5board5types34UnconnectedLayerRemoval_descriptorEv
libkiapi.so.9.0.1:_ZN5kiapi5board5types34ZoneHatchFillBorderMode_descriptorEv
libkiapi.so.9.0.1:_ZN5kiapi5board5types35DimensionTextBorderStyle_descriptorEv
libkiapi.so.9.0.1:_ZN5kiapi5board5types38CustomPadShapeZoneFillStrategy_IsValidEi
libkiapi.so.9.0.1:_ZN5kiapi5board5types3Arc11clear_startEv
libkiapi.so.9.0.1:_ZN5kiapi5board5types3Arc11clear_widthEv
libkiapi.so.9.0.1:_ZN5kiapi5board5types3Arc12InternalSwapEPS2_
libkiapi.so.9.0.1:_ZN5kiapi5board5types3Arc14_InternalParseEPKcPN6google8protobuf8internal12ParseContextE
libkiapi.so.9.0.1:_ZN5kiapi5board5types3Arc5ClearEv
libkiapi.so.9.0.1:_ZN5kiapi5board5types3Arc8CopyFromERKS2_
libkiapi.so.9.0.1:_ZN5kiapi5board5types3Arc8clear_idEv
libkiapi.so.9.0.1:_ZN5kiapi5board5types3Arc9MergeImplERN6google8protobuf7MessageERKS5_
libkiapi.so.9.0.1:_ZN5kiapi5board5types3Arc9_Internal2idEPKS2_
libkiapi.so.9.0.1:_ZN5kiapi5board5types3Arc9_Internal3endEPKS2_
libkiapi.so.9.0.1:_ZN5kiapi5board5types3Arc9_Internal3midEPKS2_
libkiapi.so.9.0.1:_ZN5kiapi5board5types3Arc9_Internal3netEPKS2_
libkiapi.so.9.0.1:_ZN5kiapi5board5types3Arc9_Internal5startEPKS2_
libkiapi.so.9.0.1:_ZN5kiapi5board5types3Arc9_Internal5widthEPKS2_
libkiapi.so.9.0.1:_ZN5kiapi5board5types3Arc9clear_endEv
libkiapi.so.9.0.1:_ZN5kiapi5board5types3Arc9clear_midEv
libkiapi.so.9.0.1:_ZN5kiapi5board5types3ArcC1EPN6google8protobuf5ArenaE
libkiapi.so.9.0.1:_ZN5kiapi5board5types3ArcC1EPN6google8protobuf5ArenaERKS2_
libkiapi.so.9.0.1:_ZN5kiapi5board5types3ArcC2EPN6google8protobuf5ArenaE
libkiapi.so.9.0.1:_ZN5kiapi5board5types3ArcC2EPN6google8protobuf5ArenaERKS2_
libkiapi.so.9.0.1:_ZN5kiapi5board5types3ArcD0Ev
libkiapi.so.9.0.1:_ZN5kiapi5board5types3ArcD1Ev
libkiapi.so.9.0.1:_ZN5kiapi5board5types3ArcD2Ev
libkiapi.so.9.0.1:_ZN5kiapi5board5types3Net12InternalSwapEPS2_
libkiapi.so.9.0.1:_ZN5kiapi5board5types3Net14_InternalParseEPKcPN6google8protobuf8internal12ParseContextE
libkiapi.so.9.0.1:_ZN5kiapi5board5types3Net5ClearEv
libkiapi.so.9.0.1:_ZN5kiapi5board5types3Net8CopyFromERKS2_
libkiapi.so.9.0.1:_ZN5kiapi5board5types3Net9MergeImplERN6google8protobuf7MessageERKS5_
libkiapi.so.9.0.1:_ZN5kiapi5board5types3Net9_Internal4codeEPKS2_
libkiapi.so.9.0.1:_ZN5kiapi5board5types3NetC1EPN6google8protobuf5ArenaE
libkiapi.so.9.0.1:_ZN5kiapi5board5types3NetC1EPN6google8protobuf5ArenaERKS2_
libkiapi.so.9.0.1:_ZN5kiapi5board5types3NetC2EPN6google8protobuf5ArenaE
libkiapi.so.9.0.1:_ZN5kiapi5board5types3NetC2EPN6google8protobuf5ArenaERKS2_
libkiapi.so.9.0.1:_ZN5kiapi5board5types3NetD0Ev
libkiapi.so.9.0.1:_ZN5kiapi5board5types3NetD1Ev
libkiapi.so.9.0.1:_ZN5kiapi5board5types3NetD2Ev
libkiapi.so.9.0.1:_ZN5kiapi5board5types3Pad12InternalSwapEPS2_
libkiapi.so.9.0.1:_ZN5kiapi5board5types3Pad14_InternalParseEPKcPN6google8protobuf8internal12ParseContextE
libkiapi.so.9.0.1:_ZN5kiapi5board5types3Pad14clear_positionEv
libkiapi.so.9.0.1:_ZN5kiapi5board5types3Pad31clear_copper_clearance_overrideEv
libkiapi.so.9.0.1:_ZN5kiapi5board5types3Pad5ClearEv
libkiapi.so.9.0.1:_ZN5kiapi5board5types3Pad8CopyFromERKS2_
libkiapi.so.9.0.1:_ZN5kiapi5board5types3Pad8clear_idEv
libkiapi.so.9.0.1:_ZN5kiapi5board5types3Pad9MergeImplERN6google8protobuf7MessageERKS5_
libkiapi.so.9.0.1:_ZN5kiapi5board5types3Pad9_Internal25copper_clearance_overrideEPKS2_
libkiapi.so.9.0.1:_ZN5kiapi5board5types3Pad9_Internal2idEPKS2_
libkiapi.so.9.0.1:_ZN5kiapi5board5types3Pad9_Internal3netEPKS2_
libkiapi.so.9.0.1:_ZN5kiapi5board5types3Pad9_Internal8positionEPKS2_
libkiapi.so.9.0.1:_ZN5kiapi5board5types3Pad9_Internal9pad_stackEPKS2_
libkiapi.so.9.0.1:_ZN5kiapi5board5types3PadC1EPN6google8protobuf5ArenaE
libkiapi.so.9.0.1:_ZN5kiapi5board5types3PadC1EPN6google8protobuf5ArenaERKS2_
libkiapi.so.9.0.1:_ZN5kiapi5board5types3PadC2EPN6google8protobuf5ArenaE
libkiapi.so.9.0.1:_ZN5kiapi5board5types3PadC2EPN6google8protobuf5ArenaERKS2_
libkiapi.so.9.0.1:_ZN5kiapi5board5types3PadD0Ev
libkiapi.so.9.0.1:_ZN5kiapi5board5types3PadD1Ev
libkiapi.so.9.0.1:_ZN5kiapi5board5types3PadD2Ev
libkiapi.so.9.0.1:_ZN5kiapi5board5types3Via12InternalSwapEPS2_
libkiapi.so.9.0.1:_ZN5kiapi5board5types3Via14_InternalParseEPKcPN6google8protobuf8internal12ParseContextE
libkiapi.so.9.0.1:_ZN5kiapi5board5types3Via14clear_positionEv
libkiapi.so.9.0.1:_ZN5kiapi5board5types3Via5ClearEv
libkiapi.so.9.0.1:_ZN5kiapi5board5types3Via8CopyFromERKS2_
libkiapi.so.9.0.1:_ZN5kiapi5board5types3Via8clear_idEv
libkiapi.so.9.0.1:_ZN5kiapi5board5types3Via9MergeImplERN6google8protobuf7MessageERKS5_
libkiapi.so.9.0.1:_ZN5kiapi5board5types3Via9_Internal2idEPKS2_
libkiapi.so.9.0.1:_ZN5kiapi5board5types3Via9_Internal3netEPKS2_
libkiapi.so.9.0.1:_ZN5kiapi5board5types3Via9_Internal8positionEPKS2_
libkiapi.so.9.0.1:_ZN5kiapi5board5types3Via9_Internal9pad_stackEPKS2_
libkiapi.so.9.0.1:_ZN5kiapi5board5types3ViaC1EPN6google8protobuf5ArenaE
libkiapi.so.9.0.1:_ZN5kiapi5board5types3ViaC1EPN6google8protobuf5ArenaERKS2_
libkiapi.so.9.0.1:_ZN5kiapi5board5types3ViaC2EPN6google8protobuf5ArenaE
libkiapi.so.9.0.1:_ZN5kiapi5board5types3ViaC2EPN6google8protobuf5ArenaERKS2_
libkiapi.so.9.0.1:_ZN5kiapi5board5types3ViaD0Ev
libkiapi.so.9.0.1:_ZN5kiapi5board5types3ViaD1Ev
libkiapi.so.9.0.1:_ZN5kiapi5board5types3ViaD2Ev
libkiapi.so.9.0.1:_ZN5kiapi5board5types41CustomPadShapeZoneFillStrategy_descriptorEv
libkiapi.so.9.0.1:_ZN5kiapi5board5types4Zone12InternalSwapEPS2_
libkiapi.so.9.0.1:_ZN5kiapi5board5types4Zone13clear_outlineEv
libkiapi.so.9.0.1:_ZN5kiapi5board5types4Zone14_InternalParseEPKcPN6google8protobuf8internal12ParseContextE
libkiapi.so.9.0.1:_ZN5kiapi5board5types4Zone14clear_settingsEv
libkiapi.so.9.0.1:_ZN5kiapi5board5types4Zone29set_allocated_copper_settingsEPNS1_18CopperZoneSettingsE
libkiapi.so.9.0.1:_ZN5kiapi5board5types4Zone32set_allocated_rule_area_settingsEPNS1_16RuleAreaSettingsE
libkiapi.so.9.0.1:_ZN5kiapi5board5types4Zone5ClearEv
libkiapi.so.9.0.1:_ZN5kiapi5board5types4Zone8CopyFromERKS2_
libkiapi.so.9.0.1:_ZN5kiapi5board5types4Zone8clear_idEv
libkiapi.so.9.0.1:_ZN5kiapi5board5types4Zone9MergeImplERN6google8protobuf7MessageERKS5_
libkiapi.so.9.0.1:_ZN5kiapi5board5types4Zone9_Internal15copper_settingsEPKS2_
libkiapi.so.9.0.1:_ZN5kiapi5board5types4Zone9_Internal18rule_area_settingsEPKS2_
libkiapi.so.9.0.1:_ZN5kiapi5board5types4Zone9_Internal2idEPKS2_
libkiapi.so.9.0.1:_ZN5kiapi5board5types4Zone9_Internal6borderEPKS2_
libkiapi.so.9.0.1:_ZN5kiapi5board5types4Zone9_Internal7outlineEPKS2_
libkiapi.so.9.0.1:_ZN5kiapi5board5types4ZoneC1EPN6google8protobuf5ArenaE
libkiapi.so.9.0.1:_ZN5kiapi5board5types4ZoneC1EPN6google8protobuf5ArenaERKS2_
libkiapi.so.9.0.1:_ZN5kiapi5board5types4ZoneC2EPN6google8protobuf5ArenaE
libkiapi.so.9.0.1:_ZN5kiapi5board5types4ZoneC2EPN6google8protobuf5ArenaERKS2_
libkiapi.so.9.0.1:_ZN5kiapi5board5types4ZoneD0Ev
libkiapi.so.9.0.1:_ZN5kiapi5board5types4ZoneD1Ev
libkiapi.so.9.0.1:_ZN5kiapi5board5types4ZoneD2Ev
libkiapi.so.9.0.1:_ZN5kiapi5board5types5Field12InternalSwapEPS2_
libkiapi.so.9.0.1:_ZN5kiapi5board5types5Field14_InternalParseEPKcPN6google8protobuf8internal12ParseContextE
libkiapi.so.9.0.1:_ZN5kiapi5board5types5Field5ClearEv
libkiapi.so.9.0.1:_ZN5kiapi5board5types5Field8CopyFromERKS2_
libkiapi.so.9.0.1:_ZN5kiapi5board5types5Field9MergeImplERN6google8protobuf7MessageERKS5_
libkiapi.so.9.0.1:_ZN5kiapi5board5types5Field9_Internal2idEPKS2_
libkiapi.so.9.0.1:_ZN5kiapi5board5types5Field9_Internal4textEPKS2_
libkiapi.so.9.0.1:_ZN5kiapi5board5types5FieldC1EPN6google8protobuf5ArenaE
libkiapi.so.9.0.1:_ZN5kiapi5board5types5FieldC1EPN6google8protobuf5ArenaERKS2_
libkiapi.so.9.0.1:_ZN5kiapi5board5types5FieldC2EPN6google8protobuf5ArenaE
libkiapi.so.9.0.1:_ZN5kiapi5board5types5FieldC2EPN6google8protobuf5ArenaERKS2_
libkiapi.so.9.0.1:_ZN5kiapi5board5types5FieldD0Ev
libkiapi.so.9.0.1:_ZN5kiapi5board5types5FieldD1Ev
libkiapi.so.9.0.1:_ZN5kiapi5board5types5FieldD2Ev
libkiapi.so.9.0.1:_ZN5kiapi5board5types5GroupC1EPN6google8protobuf5ArenaE
libkiapi.so.9.0.1:_ZN5kiapi5board5types5GroupC1EPN6google8protobuf5ArenaERKS2_
libkiapi.so.9.0.1:_ZN5kiapi5board5types5GroupC2EPN6google8protobuf5ArenaE
libkiapi.so.9.0.1:_ZN5kiapi5board5types5GroupC2EPN6google8protobuf5ArenaERKS2_
libkiapi.so.9.0.1:_ZN5kiapi5board5types5Track11clear_startEv
libkiapi.so.9.0.1:_ZN5kiapi5board5types5Track11clear_widthEv
libkiapi.so.9.0.1:_ZN5kiapi5board5types5Track12InternalSwapEPS2_
libkiapi.so.9.0.1:_ZN5kiapi5board5types5Track14_InternalParseEPKcPN6google8protobuf8internal12ParseContextE
libkiapi.so.9.0.1:_ZN5kiapi5board5types5Track5ClearEv
libkiapi.so.9.0.1:_ZN5kiapi5board5types5Track8CopyFromERKS2_
libkiapi.so.9.0.1:_ZN5kiapi5board5types5Track8clear_idEv
libkiapi.so.9.0.1:_ZN5kiapi5board5types5Track9MergeImplERN6google8protobuf7MessageERKS5_
libkiapi.so.9.0.1:_ZN5kiapi5board5types5Track9_Internal2idEPKS2_
libkiapi.so.9.0.1:_ZN5kiapi5board5types5Track9_Internal3endEPKS2_
libkiapi.so.9.0.1:_ZN5kiapi5board5types5Track9_Internal3netEPKS2_
libkiapi.so.9.0.1:_ZN5kiapi5board5types5Track9_Internal5startEPKS2_
libkiapi.so.9.0.1:_ZN5kiapi5board5types5Track9_Internal5widthEPKS2_
libkiapi.so.9.0.1:_ZN5kiapi5board5types5Track9clear_endEv
libkiapi.so.9.0.1:_ZN5kiapi5board5types5TrackC1EPN6google8protobuf5ArenaE
libkiapi.so.9.0.1:_ZN5kiapi5board5types5TrackC1EPN6google8protobuf5ArenaERKS2_
libkiapi.so.9.0.1:_ZN5kiapi5board5types5TrackC2EPN6google8protobuf5ArenaE
libkiapi.so.9.0.1:_ZN5kiapi5board5types5TrackC2EPN6google8protobuf5ArenaERKS2_
libkiapi.so.9.0.1:_ZN5kiapi5board5types5TrackD0Ev
libkiapi.so.9.0.1:_ZN5kiapi5board5types5TrackD1Ev
libkiapi.so.9.0.1:_ZN5kiapi5board5types5TrackD2Ev
libkiapi.so.9.0.1:_ZN5kiapi5board5types7FieldId12InternalSwapEPS2_
libkiapi.so.9.0.1:_ZN5kiapi5board5types7FieldId14_InternalParseEPKcPN6google8protobuf8internal12ParseContextE
libkiapi.so.9.0.1:_ZN5kiapi5board5types7FieldId5ClearEv
libkiapi.so.9.0.1:_ZN5kiapi5board5types7FieldId8CopyFromERKS2_
libkiapi.so.9.0.1:_ZN5kiapi5board5types7FieldId9MergeImplERN6google8protobuf7MessageERKS5_
libkiapi.so.9.0.1:_ZN5kiapi5board5types7FieldIdC1EPN6google8protobuf5ArenaE
libkiapi.so.9.0.1:_ZN5kiapi5board5types7FieldIdC1EPN6google8protobuf5ArenaERKS2_
libkiapi.so.9.0.1:_ZN5kiapi5board5types7FieldIdC2EPN6google8protobuf5ArenaE
libkiapi.so.9.0.1:_ZN5kiapi5board5types7FieldIdC2EPN6google8protobuf5ArenaERKS2_
libkiapi.so.9.0.1:_ZN5kiapi5board5types7FieldIdD0Ev
libkiapi.so.9.0.1:_ZN5kiapi5board5types7FieldIdD1Ev
libkiapi.so.9.0.1:_ZN5kiapi5board5types7FieldIdD2Ev
libkiapi.so.9.0.1:_ZN5kiapi5board5types7NetCode12InternalSwapEPS2_
libkiapi.so.9.0.1:_ZN5kiapi5board5types7NetCode14_InternalParseEPKcPN6google8protobuf8internal12ParseContextE
libkiapi.so.9.0.1:_ZN5kiapi5board5types7NetCode5ClearEv
libkiapi.so.9.0.1:_ZN5kiapi5board5types7NetCode8CopyFromERKS2_
libkiapi.so.9.0.1:_ZN5kiapi5board5types7NetCode9MergeImplERN6google8protobuf7MessageERKS5_
libkiapi.so.9.0.1:_ZN5kiapi5board5types7NetCodeC1EPN6google8protobuf5ArenaE
libkiapi.so.9.0.1:_ZN5kiapi5board5types7NetCodeC1EPN6google8protobuf5ArenaERKS2_
libkiapi.so.9.0.1:_ZN5kiapi5board5types7NetCodeC2EPN6google8protobuf5ArenaE
libkiapi.so.9.0.1:_ZN5kiapi5board5types7NetCodeC2EPN6google8protobuf5ArenaERKS2_
libkiapi.so.9.0.1:_ZN5kiapi5board5types7NetCodeD0Ev
libkiapi.so.9.0.1:_ZN5kiapi5board5types7NetCodeD1Ev
libkiapi.so.9.0.1:_ZN5kiapi5board5types7NetCodeD2Ev
libkiapi.so.9.0.1:_ZN5kiapi5board5types8PadStack11clear_angleEv
libkiapi.so.9.0.1:_ZN5kiapi5board5types8PadStack12InternalSwapEPS2_
libkiapi.so.9.0.1:_ZN5kiapi5board5types8PadStack14_InternalParseEPKcPN6google8protobuf8internal12ParseContextE
libkiapi.so.9.0.1:_ZN5kiapi5board5types8PadStack5ClearEv
libkiapi.so.9.0.1:_ZN5kiapi5board5types8PadStack8CopyFromERKS2_
libkiapi.so.9.0.1:_ZN5kiapi5board5types8PadStack9MergeImplERN6google8protobuf7MessageERKS5_
libkiapi.so.9.0.1:_ZN5kiapi5board5types8PadStack9_Internal13zone_settingsEPKS2_
libkiapi.so.9.0.1:_ZN5kiapi5board5types8PadStack9_Internal17back_outer_layersEPKS2_
libkiapi.so.9.0.1:_ZN5kiapi5board5types8PadStack9_Internal18front_outer_layersEPKS2_
libkiapi.so.9.0.1:_ZN5kiapi5board5types8PadStack9_Internal5angleEPKS2_
libkiapi.so.9.0.1:_ZN5kiapi5board5types8PadStack9_Internal5drillEPKS2_
libkiapi.so.9.0.1:_ZN5kiapi5board5types8PadStackC1EPN6google8protobuf5ArenaE
libkiapi.so.9.0.1:_ZN5kiapi5board5types8PadStackC1EPN6google8protobuf5ArenaERKS2_
libkiapi.so.9.0.1:_ZN5kiapi5board5types8PadStackC2EPN6google8protobuf5ArenaE
libkiapi.so.9.0.1:_ZN5kiapi5board5types8PadStackC2EPN6google8protobuf5ArenaERKS2_
libkiapi.so.9.0.1:_ZN5kiapi5board5types8PadStackD0Ev
libkiapi.so.9.0.1:_ZN5kiapi5board5types8PadStackD1Ev
libkiapi.so.9.0.1:_ZN5kiapi5board5types8PadStackD2Ev
libkiapi.so.9.0.1:_ZN5kiapi5board5types9BoardText10clear_textEv
libkiapi.so.9.0.1:_ZN5kiapi5board5types9BoardText12InternalSwapEPS2_
libkiapi.so.9.0.1:_ZN5kiapi5board5types9BoardText14_InternalParseEPKcPN6google8protobuf8internal12ParseContextE
libkiapi.so.9.0.1:_ZN5kiapi5board5types9BoardText5ClearEv
libkiapi.so.9.0.1:_ZN5kiapi5board5types9BoardText8CopyFromERKS2_
libkiapi.so.9.0.1:_ZN5kiapi5board5types9BoardText8clear_idEv
libkiapi.so.9.0.1:_ZN5kiapi5board5types9BoardText9MergeImplERN6google8protobuf7MessageERKS5_
libkiapi.so.9.0.1:_ZN5kiapi5board5types9BoardText9_Internal2idEPKS2_
libkiapi.so.9.0.1:_ZN5kiapi5board5types9BoardText9_Internal4textEPKS2_
libkiapi.so.9.0.1:_ZN5kiapi5board5types9BoardTextC1EPN6google8protobuf5ArenaE
libkiapi.so.9.0.1:_ZN5kiapi5board5types9BoardTextC1EPN6google8protobuf5ArenaERKS2_
libkiapi.so.9.0.1:_ZN5kiapi5board5types9BoardTextC2EPN6google8protobuf5ArenaE
libkiapi.so.9.0.1:_ZN5kiapi5board5types9BoardTextC2EPN6google8protobuf5ArenaERKS2_
libkiapi.so.9.0.1:_ZN5kiapi5board5types9BoardTextD0Ev
libkiapi.so.9.0.1:_ZN5kiapi5board5types9BoardTextD1Ev
libkiapi.so.9.0.1:_ZN5kiapi5board5types9BoardTextD2Ev
libkiapi.so.9.0.1:_ZN5kiapi5board5types9Dimension10clear_textEv
libkiapi.so.9.0.1:_ZN5kiapi5board5types9Dimension12InternalSwapEPS2_
libkiapi.so.9.0.1:_ZN5kiapi5board5types9Dimension14_InternalParseEPKcPN6google8protobuf8internal12ParseContextE
libkiapi.so.9.0.1:_ZN5kiapi5board5types9Dimension18clear_arrow_lengthEv
libkiapi.so.9.0.1:_ZN5kiapi5board5types9Dimension20clear_line_thicknessEv
libkiapi.so.9.0.1:_ZN5kiapi5board5types9Dimension20set_allocated_centerEPNS1_25CenterDimensionAttributesE
libkiapi.so.9.0.1:_ZN5kiapi5board5types9Dimension20set_allocated_leaderEPNS1_25LeaderDimensionAttributesE
libkiapi.so.9.0.1:_ZN5kiapi5board5types9Dimension20set_allocated_radialEPNS1_25RadialDimensionAttributesE
libkiapi.so.9.0.1:_ZN5kiapi5board5types9Dimension21clear_dimension_styleEv
libkiapi.so.9.0.1:_ZN5kiapi5board5types9Dimension21set_allocated_alignedEPNS1_26AlignedDimensionAttributesE
libkiapi.so.9.0.1:_ZN5kiapi5board5types9Dimension22clear_extension_offsetEv
libkiapi.so.9.0.1:_ZN5kiapi5board5types9Dimension24set_allocated_orthogonalEPNS1_29OrthogonalDimensionAttributesE
libkiapi.so.9.0.1:_ZN5kiapi5board5types9Dimension5ClearEv
libkiapi.so.9.0.1:_ZN5kiapi5board5types9Dimension8CopyFromERKS2_
libkiapi.so.9.0.1:_ZN5kiapi5board5types9Dimension8clear_idEv
libkiapi.so.9.0.1:_ZN5kiapi5board5types9Dimension9MergeImplERN6google8protobuf7MessageERKS5_
libkiapi.so.9.0.1:_ZN5kiapi5board5types9Dimension9_Internal10orthogonalEPKS2_
libkiapi.so.9.0.1:_ZN5kiapi5board5types9Dimension9_Internal12arrow_lengthEPKS2_
libkiapi.so.9.0.1:_ZN5kiapi5board5types9Dimension9_Internal14line_thicknessEPKS2_
libkiapi.so.9.0.1:_ZN5kiapi5board5types9Dimension9_Internal16extension_offsetEPKS2_
libkiapi.so.9.0.1:_ZN5kiapi5board5types9Dimension9_Internal2idEPKS2_
libkiapi.so.9.0.1:_ZN5kiapi5board5types9Dimension9_Internal4textEPKS2_
libkiapi.so.9.0.1:_ZN5kiapi5board5types9Dimension9_Internal6centerEPKS2_
libkiapi.so.9.0.1:_ZN5kiapi5board5types9Dimension9_Internal6leaderEPKS2_
libkiapi.so.9.0.1:_ZN5kiapi5board5types9Dimension9_Internal6radialEPKS2_
libkiapi.so.9.0.1:_ZN5kiapi5board5types9Dimension9_Internal7alignedEPKS2_
libkiapi.so.9.0.1:_ZN5kiapi5board5types9DimensionC1EPN6google8protobuf5ArenaE
libkiapi.so.9.0.1:_ZN5kiapi5board5types9DimensionC1EPN6google8protobuf5ArenaERKS2_
libkiapi.so.9.0.1:_ZN5kiapi5board5types9DimensionC2EPN6google8protobuf5ArenaE
libkiapi.so.9.0.1:_ZN5kiapi5board5types9DimensionC2EPN6google8protobuf5ArenaERKS2_
libkiapi.so.9.0.1:_ZN5kiapi5board5types9DimensionD0Ev
libkiapi.so.9.0.1:_ZN5kiapi5board5types9DimensionD1Ev
libkiapi.so.9.0.1:_ZN5kiapi5board5types9DimensionD2Ev
libkiapi.so.9.0.1:_ZN5kiapi5board5types9Footprint11clear_itemsEv
libkiapi.so.9.0.1:_ZN5kiapi5board5types9Footprint12InternalSwapEPS2_
libkiapi.so.9.0.1:_ZN5kiapi5board5types9Footprint12clear_anchorEv
libkiapi.so.9.0.1:_ZN5kiapi5board5types9Footprint14_InternalParseEPKcPN6google8protobuf8internal12ParseContextE
libkiapi.so.9.0.1:_ZN5kiapi5board5types9Footprint5ClearEv
libkiapi.so.9.0.1:_ZN5kiapi5board5types9Footprint8CopyFromERKS2_
libkiapi.so.9.0.1:_ZN5kiapi5board5types9Footprint8clear_idEv
libkiapi.so.9.0.1:_ZN5kiapi5board5types9Footprint9MergeImplERN6google8protobuf7MessageERKS5_
libkiapi.so.9.0.1:_ZN5kiapi5board5types9Footprint9_Internal10attributesEPKS2_
libkiapi.so.9.0.1:_ZN5kiapi5board5types9Footprint9_Internal11value_fieldEPKS2_
libkiapi.so.9.0.1:_ZN5kiapi5board5types9Footprint9_Internal15datasheet_fieldEPKS2_
libkiapi.so.9.0.1:_ZN5kiapi5board5types9Footprint9_Internal15reference_fieldEPKS2_
libkiapi.so.9.0.1:_ZN5kiapi5board5types9Footprint9_Internal17description_fieldEPKS2_
libkiapi.so.9.0.1:_ZN5kiapi5board5types9Footprint9_Internal2idEPKS2_
libkiapi.so.9.0.1:_ZN5kiapi5board5types9Footprint9_Internal6anchorEPKS2_
libkiapi.so.9.0.1:_ZN5kiapi5board5types9Footprint9_Internal9overridesEPKS2_
libkiapi.so.9.0.1:_ZN5kiapi5board5types9FootprintC1EPN6google8protobuf5ArenaE
libkiapi.so.9.0.1:_ZN5kiapi5board5types9FootprintC1EPN6google8protobuf5ArenaERKS2_
libkiapi.so.9.0.1:_ZN5kiapi5board5types9FootprintC2EPN6google8protobuf5ArenaE
libkiapi.so.9.0.1:_ZN5kiapi5board5types9FootprintC2EPN6google8protobuf5ArenaERKS2_
libkiapi.so.9.0.1:_ZN5kiapi5board5types9FootprintD0Ev
libkiapi.so.9.0.1:_ZN5kiapi5board5types9FootprintD1Ev
libkiapi.so.9.0.1:_ZN5kiapi5board5types9FootprintD2Ev
libkiapi.so.9.0.1:_ZN5kiapi5board8commands11BoardLayers12InternalSwapEPS2_
libkiapi.so.9.0.1:_ZN5kiapi5board8commands11BoardLayers14_InternalParseEPKcPN6google8protobuf8internal12ParseContextE
libkiapi.so.9.0.1:_ZN5kiapi5board8commands11BoardLayers5ClearEv
libkiapi.so.9.0.1:_ZN5kiapi5board8commands11BoardLayers8CopyFromERKS2_
libkiapi.so.9.0.1:_ZN5kiapi5board8commands11BoardLayers9MergeImplERN6google8protobuf7MessageERKS5_
libkiapi.so.9.0.1:_ZN5kiapi5board8commands11BoardLayersC1EPN6google8protobuf5ArenaE
libkiapi.so.9.0.1:_ZN5kiapi5board8commands11BoardLayersC1EPN6google8protobuf5ArenaERKS2_
libkiapi.so.9.0.1:_ZN5kiapi5board8commands11BoardLayersC2EPN6google8protobuf5ArenaE
libkiapi.so.9.0.1:_ZN5kiapi5board8commands11BoardLayersC2EPN6google8protobuf5ArenaERKS2_
libkiapi.so.9.0.1:_ZN5kiapi5board8commands11BoardLayersD0Ev
libkiapi.so.9.0.1:_ZN5kiapi5board8commands11BoardLayersD1Ev
libkiapi.so.9.0.1:_ZN5kiapi5board8commands11BoardLayersD2Ev
libkiapi.so.9.0.1:_ZN5kiapi5board8commands11RefillZones11clear_boardEv
libkiapi.so.9.0.1:_ZN5kiapi5board8commands11RefillZones11clear_zonesEv
libkiapi.so.9.0.1:_ZN5kiapi5board8commands11RefillZones12InternalSwapEPS2_
libkiapi.so.9.0.1:_ZN5kiapi5board8commands11RefillZones14_InternalParseEPKcPN6google8protobuf8internal12ParseContextE
libkiapi.so.9.0.1:_ZN5kiapi5board8commands11RefillZones5ClearEv
libkiapi.so.9.0.1:_ZN5kiapi5board8commands11RefillZones8CopyFromERKS2_
libkiapi.so.9.0.1:_ZN5kiapi5board8commands11RefillZones9MergeImplERN6google8protobuf7MessageERKS5_
libkiapi.so.9.0.1:_ZN5kiapi5board8commands11RefillZones9_Internal5boardEPKS2_
libkiapi.so.9.0.1:_ZN5kiapi5board8commands11RefillZonesC1EPN6google8protobuf5ArenaE
libkiapi.so.9.0.1:_ZN5kiapi5board8commands11RefillZonesC1EPN6google8protobuf5ArenaERKS2_
libkiapi.so.9.0.1:_ZN5kiapi5board8commands11RefillZonesC2EPN6google8protobuf5ArenaE
libkiapi.so.9.0.1:_ZN5kiapi5board8commands11RefillZonesC2EPN6google8protobuf5ArenaERKS2_
libkiapi.so.9.0.1:_ZN5kiapi5board8commands11RefillZonesD0Ev
libkiapi.so.9.0.1:_ZN5kiapi5board8commands11RefillZonesD1Ev
libkiapi.so.9.0.1:_ZN5kiapi5board8commands11RefillZonesD2Ev
libkiapi.so.9.0.1:_ZN5kiapi5board8commands12NetsResponse10clear_netsEv
libkiapi.so.9.0.1:_ZN5kiapi5board8commands12NetsResponse12InternalSwapEPS2_
libkiapi.so.9.0.1:_ZN5kiapi5board8commands12NetsResponse14_InternalParseEPKcPN6google8protobuf8internal12ParseContextE
libkiapi.so.9.0.1:_ZN5kiapi5board8commands12NetsResponse5ClearEv
libkiapi.so.9.0.1:_ZN5kiapi5board8commands12NetsResponse8CopyFromERKS2_
libkiapi.so.9.0.1:_ZN5kiapi5board8commands12NetsResponse9MergeImplERN6google8protobuf7MessageERKS5_
libkiapi.so.9.0.1:_ZN5kiapi5board8commands12NetsResponseC1EPN6google8protobuf5ArenaE
libkiapi.so.9.0.1:_ZN5kiapi5board8commands12NetsResponseC1EPN6google8protobuf5ArenaERKS2_
libkiapi.so.9.0.1:_ZN5kiapi5board8commands12NetsResponseC2EPN6google8protobuf5ArenaE
libkiapi.so.9.0.1:_ZN5kiapi5board8commands12NetsResponseC2EPN6google8protobuf5ArenaERKS2_
libkiapi.so.9.0.1:_ZN5kiapi5board8commands12NetsResponseD0Ev
libkiapi.so.9.0.1:_ZN5kiapi5board8commands12NetsResponseD1Ev
libkiapi.so.9.0.1:_ZN5kiapi5board8commands12NetsResponseD2Ev
libkiapi.so.9.0.1:_ZN5kiapi5board8commands13GetItemsByNet12InternalSwapEPS2_
libkiapi.so.9.0.1:_ZN5kiapi5board8commands13GetItemsByNet12clear_headerEv
libkiapi.so.9.0.1:_ZN5kiapi5board8commands13GetItemsByNet14_InternalParseEPKcPN6google8protobuf8internal12ParseContextE
libkiapi.so.9.0.1:_ZN5kiapi5board8commands13GetItemsByNet15clear_net_codesEv
libkiapi.so.9.0.1:_ZN5kiapi5board8commands13GetItemsByNet5ClearEv
libkiapi.so.9.0.1:_ZN5kiapi5board8commands13GetItemsByNet8CopyFromERKS2_
libkiapi.so.9.0.1:_ZN5kiapi5board8commands13GetItemsByNet9MergeImplERN6google8protobuf7MessageERKS5_
libkiapi.so.9.0.1:_ZN5kiapi5board8commands13GetItemsByNet9_Internal6headerEPKS2_
libkiapi.so.9.0.1:_ZN5kiapi5board8commands13GetItemsByNetC1EPN6google8protobuf5ArenaE
libkiapi.so.9.0.1:_ZN5kiapi5board8commands13GetItemsByNetC1EPN6google8protobuf5ArenaERKS2_
libkiapi.so.9.0.1:_ZN5kiapi5board8commands13GetItemsByNetC2EPN6google8protobuf5ArenaE
libkiapi.so.9.0.1:_ZN5kiapi5board8commands13GetItemsByNetC2EPN6google8protobuf5ArenaERKS2_
libkiapi.so.9.0.1:_ZN5kiapi5board8commands13GetItemsByNetD0Ev
libkiapi.so.9.0.1:_ZN5kiapi5board8commands13GetItemsByNetD1Ev
libkiapi.so.9.0.1:_ZN5kiapi5board8commands13GetItemsByNetD2Ev
libkiapi.so.9.0.1:_ZN5kiapi5board8commands14GetActiveLayer11clear_boardEv
libkiapi.so.9.0.1:_ZN5kiapi5board8commands14GetActiveLayer12InternalSwapEPS2_
libkiapi.so.9.0.1:_ZN5kiapi5board8commands14GetActiveLayer14_InternalParseEPKcPN6google8protobuf8internal12ParseContextE
libkiapi.so.9.0.1:_ZN5kiapi5board8commands14GetActiveLayer5ClearEv
libkiapi.so.9.0.1:_ZN5kiapi5board8commands14GetActiveLayer8CopyFromERKS2_
libkiapi.so.9.0.1:_ZN5kiapi5board8commands14GetActiveLayer9MergeImplERN6google8protobuf7MessageERKS5_
libkiapi.so.9.0.1:_ZN5kiapi5board8commands14GetActiveLayer9_Internal5boardEPKS2_
libkiapi.so.9.0.1:_ZN5kiapi5board8commands14GetActiveLayerC1EPN6google8protobuf5ArenaE
libkiapi.so.9.0.1:_ZN5kiapi5board8commands14GetActiveLayerC1EPN6google8protobuf5ArenaERKS2_
libkiapi.so.9.0.1:_ZN5kiapi5board8commands14GetActiveLayerC2EPN6google8protobuf5ArenaE
libkiapi.so.9.0.1:_ZN5kiapi5board8commands14GetActiveLayerC2EPN6google8protobuf5ArenaERKS2_
libkiapi.so.9.0.1:_ZN5kiapi5board8commands14GetActiveLayerD0Ev
libkiapi.so.9.0.1:_ZN5kiapi5board8commands14GetActiveLayerD1Ev
libkiapi.so.9.0.1:_ZN5kiapi5board8commands14GetActiveLayerD2Ev
libkiapi.so.9.0.1:_ZN5kiapi5board8commands14GetBoardOrigin11clear_boardEv
libkiapi.so.9.0.1:_ZN5kiapi5board8commands14GetBoardOrigin12InternalSwapEPS2_
libkiapi.so.9.0.1:_ZN5kiapi5board8commands14GetBoardOrigin14_InternalParseEPKcPN6google8protobuf8internal12ParseContextE
libkiapi.so.9.0.1:_ZN5kiapi5board8commands14GetBoardOrigin5ClearEv
libkiapi.so.9.0.1:_ZN5kiapi5board8commands14GetBoardOrigin8CopyFromERKS2_
libkiapi.so.9.0.1:_ZN5kiapi5board8commands14GetBoardOrigin9MergeImplERN6google8protobuf7MessageERKS5_
libkiapi.so.9.0.1:_ZN5kiapi5board8commands14GetBoardOrigin9_Internal5boardEPKS2_
libkiapi.so.9.0.1:_ZN5kiapi5board8commands14GetBoardOriginC1EPN6google8protobuf5ArenaE
libkiapi.so.9.0.1:_ZN5kiapi5board8commands14GetBoardOriginC1EPN6google8protobuf5ArenaERKS2_
libkiapi.so.9.0.1:_ZN5kiapi5board8commands14GetBoardOriginC2EPN6google8protobuf5ArenaE
libkiapi.so.9.0.1:_ZN5kiapi5board8commands14GetBoardOriginC2EPN6google8protobuf5ArenaERKS2_
libkiapi.so.9.0.1:_ZN5kiapi5board8commands14GetBoardOriginD0Ev
libkiapi.so.9.0.1:_ZN5kiapi5board8commands14GetBoardOriginD1Ev
libkiapi.so.9.0.1:_ZN5kiapi5board8commands14GetBoardOriginD2Ev
libkiapi.so.9.0.1:_ZN5kiapi5board8commands14SetActiveLayer11clear_boardEv
libkiapi.so.9.0.1:_ZN5kiapi5board8commands14SetActiveLayer12InternalSwapEPS2_
libkiapi.so.9.0.1:_ZN5kiapi5board8commands14SetActiveLayer14_InternalParseEPKcPN6google8protobuf8internal12ParseContextE
libkiapi.so.9.0.1:_ZN5kiapi5board8commands14SetActiveLayer5ClearEv
libkiapi.so.9.0.1:_ZN5kiapi5board8commands14SetActiveLayer8CopyFromERKS2_
libkiapi.so.9.0.1:_ZN5kiapi5board8commands14SetActiveLayer9MergeImplERN6google8protobuf7MessageERKS5_
libkiapi.so.9.0.1:_ZN5kiapi5board8commands14SetActiveLayer9_Internal5boardEPKS2_
libkiapi.so.9.0.1:_ZN5kiapi5board8commands14SetActiveLayerC1EPN6google8protobuf5ArenaE
libkiapi.so.9.0.1:_ZN5kiapi5board8commands14SetActiveLayerC1EPN6google8protobuf5ArenaERKS2_
libkiapi.so.9.0.1:_ZN5kiapi5board8commands14SetActiveLayerC2EPN6google8protobuf5ArenaE
libkiapi.so.9.0.1:_ZN5kiapi5board8commands14SetActiveLayerC2EPN6google8protobuf5ArenaERKS2_
libkiapi.so.9.0.1:_ZN5kiapi5board8commands14SetActiveLayerD0Ev
libkiapi.so.9.0.1:_ZN5kiapi5board8commands14SetActiveLayerD1Ev
libkiapi.so.9.0.1:_ZN5kiapi5board8commands14SetActiveLayerD2Ev
libkiapi.so.9.0.1:_ZN5kiapi5board8commands14SetBoardOrigin11clear_boardEv
libkiapi.so.9.0.1:_ZN5kiapi5board8commands14SetBoardOrigin12InternalSwapEPS2_
libkiapi.so.9.0.1:_ZN5kiapi5board8commands14SetBoardOrigin12clear_originEv
libkiapi.so.9.0.1:_ZN5kiapi5board8commands14SetBoardOrigin14_InternalParseEPKcPN6google8protobuf8internal12ParseContextE
libkiapi.so.9.0.1:_ZN5kiapi5board8commands14SetBoardOrigin5ClearEv
libkiapi.so.9.0.1:_ZN5kiapi5board8commands14SetBoardOrigin8CopyFromERKS2_
libkiapi.so.9.0.1:_ZN5kiapi5board8commands14SetBoardOrigin9MergeImplERN6google8protobuf7MessageERKS5_
libkiapi.so.9.0.1:_ZN5kiapi5board8commands14SetBoardOrigin9_Internal5boardEPKS2_
libkiapi.so.9.0.1:_ZN5kiapi5board8commands14SetBoardOrigin9_Internal6originEPKS2_
libkiapi.so.9.0.1:_ZN5kiapi5board8commands14SetBoardOriginC1EPN6google8protobuf5ArenaE
libkiapi.so.9.0.1:_ZN5kiapi5board8commands14SetBoardOriginC1EPN6google8protobuf5ArenaERKS2_
libkiapi.so.9.0.1:_ZN5kiapi5board8commands14SetBoardOriginC2EPN6google8protobuf5ArenaE
libkiapi.so.9.0.1:_ZN5kiapi5board8commands14SetBoardOriginC2EPN6google8protobuf5ArenaERKS2_
libkiapi.so.9.0.1:_ZN5kiapi5board8commands14SetBoardOriginD0Ev
libkiapi.so.9.0.1:_ZN5kiapi5board8commands14SetBoardOriginD1Ev
libkiapi.so.9.0.1:_ZN5kiapi5board8commands14SetBoardOriginD2Ev
libkiapi.so.9.0.1:_ZN5kiapi5board8commands15GetBoardStackup11clear_boardEv
libkiapi.so.9.0.1:_ZN5kiapi5board8commands15GetBoardStackup12InternalSwapEPS2_
libkiapi.so.9.0.1:_ZN5kiapi5board8commands15GetBoardStackup14_InternalParseEPKcPN6google8protobuf8internal12ParseContextE
libkiapi.so.9.0.1:_ZN5kiapi5board8commands15GetBoardStackup5ClearEv
libkiapi.so.9.0.1:_ZN5kiapi5board8commands15GetBoardStackup8CopyFromERKS2_
libkiapi.so.9.0.1:_ZN5kiapi5board8commands15GetBoardStackup9MergeImplERN6google8protobuf7MessageERKS5_
libkiapi.so.9.0.1:_ZN5kiapi5board8commands15GetBoardStackup9_Internal5boardEPKS2_
libkiapi.so.9.0.1:_ZN5kiapi5board8commands15GetBoardStackupC1EPN6google8protobuf5ArenaE
libkiapi.so.9.0.1:_ZN5kiapi5board8commands15GetBoardStackupC1EPN6google8protobuf5ArenaERKS2_
libkiapi.so.9.0.1:_ZN5kiapi5board8commands15GetBoardStackupC2EPN6google8protobuf5ArenaE
libkiapi.so.9.0.1:_ZN5kiapi5board8commands15GetBoardStackupC2EPN6google8protobuf5ArenaERKS2_
libkiapi.so.9.0.1:_ZN5kiapi5board8commands15GetBoardStackupD0Ev
libkiapi.so.9.0.1:_ZN5kiapi5board8commands15GetBoardStackupD1Ev
libkiapi.so.9.0.1:_ZN5kiapi5board8commands15GetBoardStackupD2Ev
libkiapi.so.9.0.1:_ZN5kiapi5board8commands16GetVisibleLayers11clear_boardEv
libkiapi.so.9.0.1:_ZN5kiapi5board8commands16GetVisibleLayers12InternalSwapEPS2_
libkiapi.so.9.0.1:_ZN5kiapi5board8commands16GetVisibleLayers14_InternalParseEPKcPN6google8protobuf8internal12ParseContextE
libkiapi.so.9.0.1:_ZN5kiapi5board8commands16GetVisibleLayers5ClearEv
libkiapi.so.9.0.1:_ZN5kiapi5board8commands16GetVisibleLayers8CopyFromERKS2_
libkiapi.so.9.0.1:_ZN5kiapi5board8commands16GetVisibleLayers9MergeImplERN6google8protobuf7MessageERKS5_
libkiapi.so.9.0.1:_ZN5kiapi5board8commands16GetVisibleLayers9_Internal5boardEPKS2_
libkiapi.so.9.0.1:_ZN5kiapi5board8commands16GetVisibleLayersC1EPN6google8protobuf5ArenaE
libkiapi.so.9.0.1:_ZN5kiapi5board8commands16GetVisibleLayersC1EPN6google8protobuf5ArenaERKS2_
libkiapi.so.9.0.1:_ZN5kiapi5board8commands16GetVisibleLayersC2EPN6google8protobuf5ArenaE
libkiapi.so.9.0.1:_ZN5kiapi5board8commands16GetVisibleLayersC2EPN6google8protobuf5ArenaERKS2_
libkiapi.so.9.0.1:_ZN5kiapi5board8commands16GetVisibleLayersD0Ev
libkiapi.so.9.0.1:_ZN5kiapi5board8commands16GetVisibleLayersD1Ev
libkiapi.so.9.0.1:_ZN5kiapi5board8commands16GetVisibleLayersD2Ev
libkiapi.so.9.0.1:_ZN5kiapi5board8commands16SetVisibleLayers11clear_boardEv
libkiapi.so.9.0.1:_ZN5kiapi5board8commands16SetVisibleLayers12InternalSwapEPS2_
libkiapi.so.9.0.1:_ZN5kiapi5board8commands16SetVisibleLayers14_InternalParseEPKcPN6google8protobuf8internal12ParseContextE
libkiapi.so.9.0.1:_ZN5kiapi5board8commands16SetVisibleLayers5ClearEv
libkiapi.so.9.0.1:_ZN5kiapi5board8commands16SetVisibleLayers8CopyFromERKS2_
libkiapi.so.9.0.1:_ZN5kiapi5board8commands16SetVisibleLayers9MergeImplERN6google8protobuf7MessageERKS5_
libkiapi.so.9.0.1:_ZN5kiapi5board8commands16SetVisibleLayers9_Internal5boardEPKS2_
libkiapi.so.9.0.1:_ZN5kiapi5board8commands16SetVisibleLayersC1EPN6google8protobuf5ArenaE
libkiapi.so.9.0.1:_ZN5kiapi5board8commands16SetVisibleLayersC1EPN6google8protobuf5ArenaERKS2_
libkiapi.so.9.0.1:_ZN5kiapi5board8commands16SetVisibleLayersC2EPN6google8protobuf5ArenaE
libkiapi.so.9.0.1:_ZN5kiapi5board8commands16SetVisibleLayersC2EPN6google8protobuf5ArenaERKS2_
libkiapi.so.9.0.1:_ZN5kiapi5board8commands16SetVisibleLayersD0Ev
libkiapi.so.9.0.1:_ZN5kiapi5board8commands16SetVisibleLayersD1Ev
libkiapi.so.9.0.1:_ZN5kiapi5board8commands16SetVisibleLayersD2Ev
libkiapi.so.9.0.1:_ZN5kiapi5board8commands18BoardLayerResponse12InternalSwapEPS2_
libkiapi.so.9.0.1:_ZN5kiapi5board8commands18BoardLayerResponse14_InternalParseEPKcPN6google8protobuf8internal12ParseContextE
libkiapi.so.9.0.1:_ZN5kiapi5board8commands18BoardLayerResponse5ClearEv
libkiapi.so.9.0.1:_ZN5kiapi5board8commands18BoardLayerResponse8CopyFromERKS2_
libkiapi.so.9.0.1:_ZN5kiapi5board8commands18BoardLayerResponse9MergeImplERN6google8protobuf7MessageERKS5_
libkiapi.so.9.0.1:_ZN5kiapi5board8commands18BoardLayerResponseC1EPN6google8protobuf5ArenaE
libkiapi.so.9.0.1:_ZN5kiapi5board8commands18BoardLayerResponseC1EPN6google8protobuf5ArenaERKS2_
libkiapi.so.9.0.1:_ZN5kiapi5board8commands18BoardLayerResponseC2EPN6google8protobuf5ArenaE
libkiapi.so.9.0.1:_ZN5kiapi5board8commands18BoardLayerResponseC2EPN6google8protobuf5ArenaERKS2_
libkiapi.so.9.0.1:_ZN5kiapi5board8commands18BoardLayerResponseD0Ev
libkiapi.so.9.0.1:_ZN5kiapi5board8commands18BoardLayerResponseD1Ev
libkiapi.so.9.0.1:_ZN5kiapi5board8commands18BoardLayerResponseD2Ev
libkiapi.so.9.0.1:_ZN5kiapi5board8commands18GetItemsByNetClass12InternalSwapEPS2_
libkiapi.so.9.0.1:_ZN5kiapi5board8commands18GetItemsByNetClass12clear_headerEv
libkiapi.so.9.0.1:_ZN5kiapi5board8commands18GetItemsByNetClass14_InternalParseEPKcPN6google8protobuf8internal12ParseContextE
libkiapi.so.9.0.1:_ZN5kiapi5board8commands18GetItemsByNetClass5ClearEv
libkiapi.so.9.0.1:_ZN5kiapi5board8commands18GetItemsByNetClass8CopyFromERKS2_
libkiapi.so.9.0.1:_ZN5kiapi5board8commands18GetItemsByNetClass9MergeImplERN6google8protobuf7MessageERKS5_
libkiapi.so.9.0.1:_ZN5kiapi5board8commands18GetItemsByNetClass9_Internal6headerEPKS2_
libkiapi.so.9.0.1:_ZN5kiapi5board8commands18GetItemsByNetClassC1EPN6google8protobuf5ArenaE
libkiapi.so.9.0.1:_ZN5kiapi5board8commands18GetItemsByNetClassC1EPN6google8protobuf5ArenaERKS2_
libkiapi.so.9.0.1:_ZN5kiapi5board8commands18GetItemsByNetClassC2EPN6google8protobuf5ArenaE
libkiapi.so.9.0.1:_ZN5kiapi5board8commands18GetItemsByNetClassC2EPN6google8protobuf5ArenaERKS2_
libkiapi.so.9.0.1:_ZN5kiapi5board8commands18GetItemsByNetClassD0Ev
libkiapi.so.9.0.1:_ZN5kiapi5board8commands18GetItemsByNetClassD1Ev
libkiapi.so.9.0.1:_ZN5kiapi5board8commands18GetItemsByNetClassD2Ev
libkiapi.so.9.0.1:_ZN5kiapi5board8commands18GetNetClassForNets12InternalSwapEPS2_
libkiapi.so.9.0.1:_ZN5kiapi5board8commands18GetNetClassForNets14_InternalParseEPKcPN6google8protobuf8internal12ParseContextE
libkiapi.so.9.0.1:_ZN5kiapi5board8commands18GetNetClassForNets5ClearEv
libkiapi.so.9.0.1:_ZN5kiapi5board8commands18GetNetClassForNets8CopyFromERKS2_
libkiapi.so.9.0.1:_ZN5kiapi5board8commands18GetNetClassForNets9MergeImplERN6google8protobuf7MessageERKS5_
libkiapi.so.9.0.1:_ZN5kiapi5board8commands18GetNetClassForNets9clear_netEv
libkiapi.so.9.0.1:_ZN5kiapi5board8commands18GetNetClassForNetsC1EPN6google8protobuf5ArenaE
libkiapi.so.9.0.1:_ZN5kiapi5board8commands18GetNetClassForNetsC1EPN6google8protobuf5ArenaERKS2_
libkiapi.so.9.0.1:_ZN5kiapi5board8commands18GetNetClassForNetsC2EPN6google8protobuf5ArenaE
libkiapi.so.9.0.1:_ZN5kiapi5board8commands18GetNetClassForNetsC2EPN6google8protobuf5ArenaERKS2_
libkiapi.so.9.0.1:_ZN5kiapi5board8commands18GetNetClassForNetsD0Ev
libkiapi.so.9.0.1:_ZN5kiapi5board8commands18GetNetClassForNetsD1Ev
libkiapi.so.9.0.1:_ZN5kiapi5board8commands18GetNetClassForNetsD2Ev
libkiapi.so.9.0.1:_ZN5kiapi5board8commands18UpdateBoardStackup11clear_boardEv
libkiapi.so.9.0.1:_ZN5kiapi5board8commands18UpdateBoardStackup12InternalSwapEPS2_
libkiapi.so.9.0.1:_ZN5kiapi5board8commands18UpdateBoardStackup13clear_stackupEv
libkiapi.so.9.0.1:_ZN5kiapi5board8commands18UpdateBoardStackup14_InternalParseEPKcPN6google8protobuf8internal12ParseContextE
libkiapi.so.9.0.1:_ZN5kiapi5board8commands18UpdateBoardStackup5ClearEv
libkiapi.so.9.0.1:_ZN5kiapi5board8commands18UpdateBoardStackup8CopyFromERKS2_
libkiapi.so.9.0.1:_ZN5kiapi5board8commands18UpdateBoardStackup9MergeImplERN6google8protobuf7MessageERKS5_
libkiapi.so.9.0.1:_ZN5kiapi5board8commands18UpdateBoardStackup9_Internal5boardEPKS2_
libkiapi.so.9.0.1:_ZN5kiapi5board8commands18UpdateBoardStackup9_Internal7stackupEPKS2_
libkiapi.so.9.0.1:_ZN5kiapi5board8commands18UpdateBoardStackupC1EPN6google8protobuf5ArenaE
libkiapi.so.9.0.1:_ZN5kiapi5board8commands18UpdateBoardStackupC1EPN6google8protobuf5ArenaERKS2_
libkiapi.so.9.0.1:_ZN5kiapi5board8commands18UpdateBoardStackupC2EPN6google8protobuf5ArenaE
libkiapi.so.9.0.1:_ZN5kiapi5board8commands18UpdateBoardStackupC2EPN6google8protobuf5ArenaERKS2_
libkiapi.so.9.0.1:_ZN5kiapi5board8commands18UpdateBoardStackupD0Ev
libkiapi.so.9.0.1:_ZN5kiapi5board8commands18UpdateBoardStackupD1Ev
libkiapi.so.9.0.1:_ZN5kiapi5board8commands18UpdateBoardStackupD2Ev
libkiapi.so.9.0.1:_ZN5kiapi5board8commands19GetGraphicsDefaults11clear_boardEv
libkiapi.so.9.0.1:_ZN5kiapi5board8commands19GetGraphicsDefaults12InternalSwapEPS2_
libkiapi.so.9.0.1:_ZN5kiapi5board8commands19GetGraphicsDefaults14_InternalParseEPKcPN6google8protobuf8internal12ParseContextE
libkiapi.so.9.0.1:_ZN5kiapi5board8commands19GetGraphicsDefaults5ClearEv
libkiapi.so.9.0.1:_ZN5kiapi5board8commands19GetGraphicsDefaults8CopyFromERKS2_
libkiapi.so.9.0.1:_ZN5kiapi5board8commands19GetGraphicsDefaults9MergeImplERN6google8protobuf7MessageERKS5_
libkiapi.so.9.0.1:_ZN5kiapi5board8commands19GetGraphicsDefaults9_Internal5boardEPKS2_
libkiapi.so.9.0.1:_ZN5kiapi5board8commands19GetGraphicsDefaultsC1EPN6google8protobuf5ArenaE
libkiapi.so.9.0.1:_ZN5kiapi5board8commands19GetGraphicsDefaultsC1EPN6google8protobuf5ArenaERKS2_
libkiapi.so.9.0.1:_ZN5kiapi5board8commands19GetGraphicsDefaultsC2EPN6google8protobuf5ArenaE
libkiapi.so.9.0.1:_ZN5kiapi5board8commands19GetGraphicsDefaultsC2EPN6google8protobuf5ArenaERKS2_
libkiapi.so.9.0.1:_ZN5kiapi5board8commands19GetGraphicsDefaultsD0Ev
libkiapi.so.9.0.1:_ZN5kiapi5board8commands19GetGraphicsDefaultsD1Ev
libkiapi.so.9.0.1:_ZN5kiapi5board8commands19GetGraphicsDefaultsD2Ev
libkiapi.so.9.0.1:_ZN5kiapi5board8commands20BoardStackupResponse12InternalSwapEPS2_
libkiapi.so.9.0.1:_ZN5kiapi5board8commands20BoardStackupResponse13clear_stackupEv
libkiapi.so.9.0.1:_ZN5kiapi5board8commands20BoardStackupResponse14_InternalParseEPKcPN6google8protobuf8internal12ParseContextE
libkiapi.so.9.0.1:_ZN5kiapi5board8commands20BoardStackupResponse5ClearEv
libkiapi.so.9.0.1:_ZN5kiapi5board8commands20BoardStackupResponse8CopyFromERKS2_
libkiapi.so.9.0.1:_ZN5kiapi5board8commands20BoardStackupResponse9MergeImplERN6google8protobuf7MessageERKS5_
libkiapi.so.9.0.1:_ZN5kiapi5board8commands20BoardStackupResponse9_Internal7stackupEPKS2_
libkiapi.so.9.0.1:_ZN5kiapi5board8commands20BoardStackupResponseC1EPN6google8protobuf5ArenaE
libkiapi.so.9.0.1:_ZN5kiapi5board8commands20BoardStackupResponseC1EPN6google8protobuf5ArenaERKS2_
libkiapi.so.9.0.1:_ZN5kiapi5board8commands20BoardStackupResponseC2EPN6google8protobuf5ArenaE
libkiapi.so.9.0.1:_ZN5kiapi5board8commands20BoardStackupResponseC2EPN6google8protobuf5ArenaERKS2_
libkiapi.so.9.0.1:_ZN5kiapi5board8commands20BoardStackupResponseD0Ev
libkiapi.so.9.0.1:_ZN5kiapi5board8commands20BoardStackupResponseD1Ev
libkiapi.so.9.0.1:_ZN5kiapi5board8commands20BoardStackupResponseD2Ev
libkiapi.so.9.0.1:_ZN5kiapi5board8commands20GetPadShapeAsPolygon10clear_padsEv
libkiapi.so.9.0.1:_ZN5kiapi5board8commands20GetPadShapeAsPolygon11clear_boardEv
libkiapi.so.9.0.1:_ZN5kiapi5board8commands20GetPadShapeAsPolygon12InternalSwapEPS2_
libkiapi.so.9.0.1:_ZN5kiapi5board8commands20GetPadShapeAsPolygon14_InternalParseEPKcPN6google8protobuf8internal12ParseContextE
libkiapi.so.9.0.1:_ZN5kiapi5board8commands20GetPadShapeAsPolygon5ClearEv
libkiapi.so.9.0.1:_ZN5kiapi5board8commands20GetPadShapeAsPolygon8CopyFromERKS2_
libkiapi.so.9.0.1:_ZN5kiapi5board8commands20GetPadShapeAsPolygon9MergeImplERN6google8protobuf7MessageERKS5_
libkiapi.so.9.0.1:_ZN5kiapi5board8commands20GetPadShapeAsPolygon9_Internal5boardEPKS2_
libkiapi.so.9.0.1:_ZN5kiapi5board8commands20GetPadShapeAsPolygonC1EPN6google8protobuf5ArenaE
libkiapi.so.9.0.1:_ZN5kiapi5board8commands20GetPadShapeAsPolygonC1EPN6google8protobuf5ArenaERKS2_
libkiapi.so.9.0.1:_ZN5kiapi5board8commands20GetPadShapeAsPolygonC2EPN6google8protobuf5ArenaE
libkiapi.so.9.0.1:_ZN5kiapi5board8commands20GetPadShapeAsPolygonC2EPN6google8protobuf5ArenaERKS2_
libkiapi.so.9.0.1:_ZN5kiapi5board8commands20GetPadShapeAsPolygonD0Ev
libkiapi.so.9.0.1:_ZN5kiapi5board8commands20GetPadShapeAsPolygonD1Ev
libkiapi.so.9.0.1:_ZN5kiapi5board8commands20GetPadShapeAsPolygonD2Ev
libkiapi.so.9.0.1:_ZN5kiapi5board8commands20InteractiveMoveItems11clear_boardEv
libkiapi.so.9.0.1:_ZN5kiapi5board8commands20InteractiveMoveItems11clear_itemsEv
libkiapi.so.9.0.1:_ZN5kiapi5board8commands20InteractiveMoveItems12InternalSwapEPS2_
libkiapi.so.9.0.1:_ZN5kiapi5board8commands20InteractiveMoveItems14_InternalParseEPKcPN6google8protobuf8internal12ParseContextE
libkiapi.so.9.0.1:_ZN5kiapi5board8commands20InteractiveMoveItems5ClearEv
libkiapi.so.9.0.1:_ZN5kiapi5board8commands20InteractiveMoveItems8CopyFromERKS2_
libkiapi.so.9.0.1:_ZN5kiapi5board8commands20InteractiveMoveItems9MergeImplERN6google8protobuf7MessageERKS5_
libkiapi.so.9.0.1:_ZN5kiapi5board8commands20InteractiveMoveItems9_Internal5boardEPKS2_
libkiapi.so.9.0.1:_ZN5kiapi5board8commands20InteractiveMoveItemsC1EPN6google8protobuf5ArenaE
libkiapi.so.9.0.1:_ZN5kiapi5board8commands20InteractiveMoveItemsC1EPN6google8protobuf5ArenaERKS2_
libkiapi.so.9.0.1:_ZN5kiapi5board8commands20InteractiveMoveItemsC2EPN6google8protobuf5ArenaE
libkiapi.so.9.0.1:_ZN5kiapi5board8commands20InteractiveMoveItemsC2EPN6google8protobuf5ArenaERKS2_
libkiapi.so.9.0.1:_ZN5kiapi5board8commands20InteractiveMoveItemsD0Ev
libkiapi.so.9.0.1:_ZN5kiapi5board8commands20InteractiveMoveItemsD1Ev
libkiapi.so.9.0.1:_ZN5kiapi5board8commands20InteractiveMoveItemsD2Ev
libkiapi.so.9.0.1:_ZN5kiapi5board8commands21BoardFlipMode_IsValidEi
libkiapi.so.9.0.1:_ZN5kiapi5board8commands23BoardOriginType_IsValidEi
libkiapi.so.9.0.1:_ZN5kiapi5board8commands23NetClassForNetsResponse12InternalSwapEPS2_
libkiapi.so.9.0.1:_ZN5kiapi5board8commands23NetClassForNetsResponse13clear_classesEv
libkiapi.so.9.0.1:_ZN5kiapi5board8commands23NetClassForNetsResponse14_InternalParseEPKcPN6google8protobuf8internal12ParseContextE
libkiapi.so.9.0.1:_ZN5kiapi5board8commands23NetClassForNetsResponse5ClearEv
libkiapi.so.9.0.1:_ZN5kiapi5board8commands23NetClassForNetsResponse8CopyFromERKS2_
libkiapi.so.9.0.1:_ZN5kiapi5board8commands23NetClassForNetsResponse9MergeImplERN6google8protobuf7MessageERKS5_
libkiapi.so.9.0.1:_ZN5kiapi5board8commands23NetClassForNetsResponseC1EPN6google8protobuf5ArenaE
libkiapi.so.9.0.1:_ZN5kiapi5board8commands23NetClassForNetsResponseC1EPN6google8protobuf5ArenaERKS2_
libkiapi.so.9.0.1:_ZN5kiapi5board8commands23NetClassForNetsResponseC2EPN6google8protobuf5ArenaE
libkiapi.so.9.0.1:_ZN5kiapi5board8commands23NetClassForNetsResponseC2EPN6google8protobuf5ArenaERKS2_
libkiapi.so.9.0.1:_ZN5kiapi5board8commands23NetClassForNetsResponseD0Ev
libkiapi.so.9.0.1:_ZN5kiapi5board8commands23NetClassForNetsResponseD1Ev
libkiapi.so.9.0.1:_ZN5kiapi5board8commands23NetClassForNetsResponseD2Ev
libkiapi.so.9.0.1:_ZN5kiapi5board8commands24BoardFlipMode_descriptorEv
libkiapi.so.9.0.1:_ZN5kiapi5board8commands24GraphicsDefaultsResponse12InternalSwapEPS2_
libkiapi.so.9.0.1:_ZN5kiapi5board8commands24GraphicsDefaultsResponse14_InternalParseEPKcPN6google8protobuf8internal12ParseContextE
libkiapi.so.9.0.1:_ZN5kiapi5board8commands24GraphicsDefaultsResponse14clear_defaultsEv
libkiapi.so.9.0.1:_ZN5kiapi5board8commands24GraphicsDefaultsResponse5ClearEv
libkiapi.so.9.0.1:_ZN5kiapi5board8commands24GraphicsDefaultsResponse8CopyFromERKS2_
libkiapi.so.9.0.1:_ZN5kiapi5board8commands24GraphicsDefaultsResponse9MergeImplERN6google8protobuf7MessageERKS5_
libkiapi.so.9.0.1:_ZN5kiapi5board8commands24GraphicsDefaultsResponse9_Internal8defaultsEPKS2_
libkiapi.so.9.0.1:_ZN5kiapi5board8commands24GraphicsDefaultsResponseC1EPN6google8protobuf5ArenaE
libkiapi.so.9.0.1:_ZN5kiapi5board8commands24GraphicsDefaultsResponseC1EPN6google8protobuf5ArenaERKS2_
libkiapi.so.9.0.1:_ZN5kiapi5board8commands24GraphicsDefaultsResponseC2EPN6google8protobuf5ArenaE
libkiapi.so.9.0.1:_ZN5kiapi5board8commands24GraphicsDefaultsResponseC2EPN6google8protobuf5ArenaERKS2_
libkiapi.so.9.0.1:_ZN5kiapi5board8commands24GraphicsDefaultsResponseD0Ev
libkiapi.so.9.0.1:_ZN5kiapi5board8commands24GraphicsDefaultsResponseD1Ev
libkiapi.so.9.0.1:_ZN5kiapi5board8commands24GraphicsDefaultsResponseD2Ev
libkiapi.so.9.0.1:_ZN5kiapi5board8commands25PadShapeAsPolygonResponse10clear_padsEv
libkiapi.so.9.0.1:_ZN5kiapi5board8commands25PadShapeAsPolygonResponse12InternalSwapEPS2_
libkiapi.so.9.0.1:_ZN5kiapi5board8commands25PadShapeAsPolygonResponse14_InternalParseEPKcPN6google8protobuf8internal12ParseContextE
libkiapi.so.9.0.1:_ZN5kiapi5board8commands25PadShapeAsPolygonResponse14clear_polygonsEv
libkiapi.so.9.0.1:_ZN5kiapi5board8commands25PadShapeAsPolygonResponse5ClearEv
libkiapi.so.9.0.1:_ZN5kiapi5board8commands25PadShapeAsPolygonResponse8CopyFromERKS2_
libkiapi.so.9.0.1:_ZN5kiapi5board8commands25PadShapeAsPolygonResponse9MergeImplERN6google8protobuf7MessageERKS5_
libkiapi.so.9.0.1:_ZN5kiapi5board8commands25PadShapeAsPolygonResponseC1EPN6google8protobuf5ArenaE
libkiapi.so.9.0.1:_ZN5kiapi5board8commands25PadShapeAsPolygonResponseC1EPN6google8protobuf5ArenaERKS2_
libkiapi.so.9.0.1:_ZN5kiapi5board8commands25PadShapeAsPolygonResponseC2EPN6google8protobuf5ArenaE
libkiapi.so.9.0.1:_ZN5kiapi5board8commands25PadShapeAsPolygonResponseC2EPN6google8protobuf5ArenaERKS2_
libkiapi.so.9.0.1:_ZN5kiapi5board8commands25PadShapeAsPolygonResponseD0Ev
libkiapi.so.9.0.1:_ZN5kiapi5board8commands25PadShapeAsPolygonResponseD1Ev
libkiapi.so.9.0.1:_ZN5kiapi5board8commands25PadShapeAsPolygonResponseD2Ev
libkiapi.so.9.0.1:_ZN5kiapi5board8commands26BoardOriginType_descriptorEv
libkiapi.so.9.0.1:_ZN5kiapi5board8commands27NetColorDisplayMode_IsValidEi
libkiapi.so.9.0.1:_ZN5kiapi5board8commands27RatsnestDisplayMode_IsValidEi
libkiapi.so.9.0.1:_ZN5kiapi5board8commands29BoardEditorAppearanceSettings12InternalSwapEPS2_
libkiapi.so.9.0.1:_ZN5kiapi5board8commands29BoardEditorAppearanceSettings14_InternalParseEPKcPN6google8protobuf8internal12ParseContextE
libkiapi.so.9.0.1:_ZN5kiapi5board8commands29BoardEditorAppearanceSettings5ClearEv
libkiapi.so.9.0.1:_ZN5kiapi5board8commands29BoardEditorAppearanceSettings8CopyFromERKS2_
libkiapi.so.9.0.1:_ZN5kiapi5board8commands29BoardEditorAppearanceSettings9MergeImplERN6google8protobuf7MessageERKS5_
libkiapi.so.9.0.1:_ZN5kiapi5board8commands29BoardEditorAppearanceSettingsC1EPN6google8protobuf5ArenaE
libkiapi.so.9.0.1:_ZN5kiapi5board8commands29BoardEditorAppearanceSettingsC1EPN6google8protobuf5ArenaERKS2_
libkiapi.so.9.0.1:_ZN5kiapi5board8commands29BoardEditorAppearanceSettingsC2EPN6google8protobuf5ArenaE
libkiapi.so.9.0.1:_ZN5kiapi5board8commands29BoardEditorAppearanceSettingsC2EPN6google8protobuf5ArenaERKS2_
libkiapi.so.9.0.1:_ZN5kiapi5board8commands29BoardEditorAppearanceSettingsD0Ev
libkiapi.so.9.0.1:_ZN5kiapi5board8commands29BoardEditorAppearanceSettingsD1Ev
libkiapi.so.9.0.1:_ZN5kiapi5board8commands29BoardEditorAppearanceSettingsD2Ev
libkiapi.so.9.0.1:_ZN5kiapi5board8commands30NetColorDisplayMode_descriptorEv
libkiapi.so.9.0.1:_ZN5kiapi5board8commands30RatsnestDisplayMode_descriptorEv
libkiapi.so.9.0.1:_ZN5kiapi5board8commands32GetBoardEditorAppearanceSettingsC1EPN6google8protobuf5ArenaE
libkiapi.so.9.0.1:_ZN5kiapi5board8commands32GetBoardEditorAppearanceSettingsC1EPN6google8protobuf5ArenaERKS2_
libkiapi.so.9.0.1:_ZN5kiapi5board8commands32GetBoardEditorAppearanceSettingsC2EPN6google8protobuf5ArenaE
libkiapi.so.9.0.1:_ZN5kiapi5board8commands32GetBoardEditorAppearanceSettingsC2EPN6google8protobuf5ArenaERKS2_
libkiapi.so.9.0.1:_ZN5kiapi5board8commands32InactiveLayerDisplayMode_IsValidEi
libkiapi.so.9.0.1:_ZN5kiapi5board8commands32SetBoardEditorAppearanceSettings12InternalSwapEPS2_
libkiapi.so.9.0.1:_ZN5kiapi5board8commands32SetBoardEditorAppearanceSettings14_InternalParseEPKcPN6google8protobuf8internal12ParseContextE
libkiapi.so.9.0.1:_ZN5kiapi5board8commands32SetBoardEditorAppearanceSettings5ClearEv
libkiapi.so.9.0.1:_ZN5kiapi5board8commands32SetBoardEditorAppearanceSettings8CopyFromERKS2_
libkiapi.so.9.0.1:_ZN5kiapi5board8commands32SetBoardEditorAppearanceSettings9MergeImplERN6google8protobuf7MessageERKS5_
libkiapi.so.9.0.1:_ZN5kiapi5board8commands32SetBoardEditorAppearanceSettings9_Internal8settingsEPKS2_
libkiapi.so.9.0.1:_ZN5kiapi5board8commands32SetBoardEditorAppearanceSettingsC1EPN6google8protobuf5ArenaE
libkiapi.so.9.0.1:_ZN5kiapi5board8commands32SetBoardEditorAppearanceSettingsC1EPN6google8protobuf5ArenaERKS2_
libkiapi.so.9.0.1:_ZN5kiapi5board8commands32SetBoardEditorAppearanceSettingsC2EPN6google8protobuf5ArenaE
libkiapi.so.9.0.1:_ZN5kiapi5board8commands32SetBoardEditorAppearanceSettingsC2EPN6google8protobuf5ArenaERKS2_
libkiapi.so.9.0.1:_ZN5kiapi5board8commands32SetBoardEditorAppearanceSettingsD0Ev
libkiapi.so.9.0.1:_ZN5kiapi5board8commands32SetBoardEditorAppearanceSettingsD1Ev
libkiapi.so.9.0.1:_ZN5kiapi5board8commands32SetBoardEditorAppearanceSettingsD2Ev
libkiapi.so.9.0.1:_ZN5kiapi5board8commands35InactiveLayerDisplayMode_descriptorEv
libkiapi.so.9.0.1:_ZN5kiapi5board8commands7GetNets11clear_boardEv
libkiapi.so.9.0.1:_ZN5kiapi5board8commands7GetNets12InternalSwapEPS2_
libkiapi.so.9.0.1:_ZN5kiapi5board8commands7GetNets14_InternalParseEPKcPN6google8protobuf8internal12ParseContextE
libkiapi.so.9.0.1:_ZN5kiapi5board8commands7GetNets5ClearEv
libkiapi.so.9.0.1:_ZN5kiapi5board8commands7GetNets8CopyFromERKS2_
libkiapi.so.9.0.1:_ZN5kiapi5board8commands7GetNets9MergeImplERN6google8protobuf7MessageERKS5_
libkiapi.so.9.0.1:_ZN5kiapi5board8commands7GetNets9_Internal5boardEPKS2_
libkiapi.so.9.0.1:_ZN5kiapi5board8commands7GetNetsC1EPN6google8protobuf5ArenaE
libkiapi.so.9.0.1:_ZN5kiapi5board8commands7GetNetsC1EPN6google8protobuf5ArenaERKS2_
libkiapi.so.9.0.1:_ZN5kiapi5board8commands7GetNetsC2EPN6google8protobuf5ArenaE
libkiapi.so.9.0.1:_ZN5kiapi5board8commands7GetNetsC2EPN6google8protobuf5ArenaERKS2_
libkiapi.so.9.0.1:_ZN5kiapi5board8commands7GetNetsD0Ev
libkiapi.so.9.0.1:_ZN5kiapi5board8commands7GetNetsD1Ev
libkiapi.so.9.0.1:_ZN5kiapi5board8commands7GetNetsD2Ev
libkiapi.so.9.0.1:_ZN5kiapi6common10ApiRequest12InternalSwapEPS1_
libkiapi.so.9.0.1:_ZN5kiapi6common10ApiRequest13clear_messageEv
libkiapi.so.9.0.1:_ZN5kiapi6common10ApiRequest14_InternalParseEPKcPN6google8protobuf8internal12ParseContextE
libkiapi.so.9.0.1:_ZN5kiapi6common10ApiRequest5ClearEv
libkiapi.so.9.0.1:_ZN5kiapi6common10ApiRequest8CopyFromERKS1_
libkiapi.so.9.0.1:_ZN5kiapi6common10ApiRequest9MergeImplERN6google8protobuf7MessageERKS4_
libkiapi.so.9.0.1:_ZN5kiapi6common10ApiRequest9_Internal6headerEPKS1_
libkiapi.so.9.0.1:_ZN5kiapi6common10ApiRequest9_Internal7messageEPKS1_
libkiapi.so.9.0.1:_ZN5kiapi6common10ApiRequestC1EPN6google8protobuf5ArenaE
libkiapi.so.9.0.1:_ZN5kiapi6common10ApiRequestC1EPN6google8protobuf5ArenaERKS1_
libkiapi.so.9.0.1:_ZN5kiapi6common10ApiRequestC2EPN6google8protobuf5ArenaE
libkiapi.so.9.0.1:_ZN5kiapi6common10ApiRequestC2EPN6google8protobuf5ArenaERKS1_
libkiapi.so.9.0.1:_ZN5kiapi6common10ApiRequestD0Ev
libkiapi.so.9.0.1:_ZN5kiapi6common10ApiRequestD1Ev
libkiapi.so.9.0.1:_ZN5kiapi6common10ApiRequestD2Ev
libkiapi.so.9.0.1:_ZN5kiapi6common11ApiResponse12InternalSwapEPS1_
libkiapi.so.9.0.1:_ZN5kiapi6common11ApiResponse13clear_messageEv
libkiapi.so.9.0.1:_ZN5kiapi6common11ApiResponse14_InternalParseEPKcPN6google8protobuf8internal12ParseContextE
libkiapi.so.9.0.1:_ZN5kiapi6common11ApiResponse5ClearEv
libkiapi.so.9.0.1:_ZN5kiapi6common11ApiResponse8CopyFromERKS1_
libkiapi.so.9.0.1:_ZN5kiapi6common11ApiResponse9MergeImplERN6google8protobuf7MessageERKS4_
libkiapi.so.9.0.1:_ZN5kiapi6common11ApiResponse9_Internal6headerEPKS1_
libkiapi.so.9.0.1:_ZN5kiapi6common11ApiResponse9_Internal6statusEPKS1_
libkiapi.so.9.0.1:_ZN5kiapi6common11ApiResponse9_Internal7messageEPKS1_
libkiapi.so.9.0.1:_ZN5kiapi6common11ApiResponseC1EPN6google8protobuf5ArenaE
libkiapi.so.9.0.1:_ZN5kiapi6common11ApiResponseC1EPN6google8protobuf5ArenaERKS1_
libkiapi.so.9.0.1:_ZN5kiapi6common11ApiResponseC2EPN6google8protobuf5ArenaE
libkiapi.so.9.0.1:_ZN5kiapi6common11ApiResponseC2EPN6google8protobuf5ArenaERKS1_
libkiapi.so.9.0.1:_ZN5kiapi6common11ApiResponseD0Ev
libkiapi.so.9.0.1:_ZN5kiapi6common11ApiResponseD1Ev
libkiapi.so.9.0.1:_ZN5kiapi6common11ApiResponseD2Ev
libkiapi.so.9.0.1:_ZN5kiapi6common16ApiRequestHeader12InternalSwapEPS1_
libkiapi.so.9.0.1:_ZN5kiapi6common16ApiRequestHeader14_InternalParseEPKcPN6google8protobuf8internal12ParseContextE
libkiapi.so.9.0.1:_ZN5kiapi6common16ApiRequestHeader5ClearEv
libkiapi.so.9.0.1:_ZN5kiapi6common16ApiRequestHeader8CopyFromERKS1_
libkiapi.so.9.0.1:_ZN5kiapi6common16ApiRequestHeader9MergeImplERN6google8protobuf7MessageERKS4_
libkiapi.so.9.0.1:_ZN5kiapi6common16ApiRequestHeaderC1EPN6google8protobuf5ArenaE
libkiapi.so.9.0.1:_ZN5kiapi6common16ApiRequestHeaderC1EPN6google8protobuf5ArenaERKS1_
libkiapi.so.9.0.1:_ZN5kiapi6common16ApiRequestHeaderC2EPN6google8protobuf5ArenaE
libkiapi.so.9.0.1:_ZN5kiapi6common16ApiRequestHeaderC2EPN6google8protobuf5ArenaERKS1_
libkiapi.so.9.0.1:_ZN5kiapi6common16ApiRequestHeaderD0Ev
libkiapi.so.9.0.1:_ZN5kiapi6common16ApiRequestHeaderD1Ev
libkiapi.so.9.0.1:_ZN5kiapi6common16ApiRequestHeaderD2Ev
libkiapi.so.9.0.1:_ZN5kiapi6common17ApiResponseHeader12InternalSwapEPS1_
libkiapi.so.9.0.1:_ZN5kiapi6common17ApiResponseHeader14_InternalParseEPKcPN6google8protobuf8internal12ParseContextE
libkiapi.so.9.0.1:_ZN5kiapi6common17ApiResponseHeader5ClearEv
libkiapi.so.9.0.1:_ZN5kiapi6common17ApiResponseHeader8CopyFromERKS1_
libkiapi.so.9.0.1:_ZN5kiapi6common17ApiResponseHeader9MergeImplERN6google8protobuf7MessageERKS4_
libkiapi.so.9.0.1:_ZN5kiapi6common17ApiResponseHeaderC1EPN6google8protobuf5ArenaE
libkiapi.so.9.0.1:_ZN5kiapi6common17ApiResponseHeaderC1EPN6google8protobuf5ArenaERKS1_
libkiapi.so.9.0.1:_ZN5kiapi6common17ApiResponseHeaderC2EPN6google8protobuf5ArenaE
libkiapi.so.9.0.1:_ZN5kiapi6common17ApiResponseHeaderC2EPN6google8protobuf5ArenaERKS1_
libkiapi.so.9.0.1:_ZN5kiapi6common17ApiResponseHeaderD0Ev
libkiapi.so.9.0.1:_ZN5kiapi6common17ApiResponseHeaderD1Ev
libkiapi.so.9.0.1:_ZN5kiapi6common17ApiResponseHeaderD2Ev
libkiapi.so.9.0.1:_ZN5kiapi6common17ApiResponseStatus12InternalSwapEPS1_
libkiapi.so.9.0.1:_ZN5kiapi6common17ApiResponseStatus14_InternalParseEPKcPN6google8protobuf8internal12ParseContextE
libkiapi.so.9.0.1:_ZN5kiapi6common17ApiResponseStatus5ClearEv
libkiapi.so.9.0.1:_ZN5kiapi6common17ApiResponseStatus8CopyFromERKS1_
libkiapi.so.9.0.1:_ZN5kiapi6common17ApiResponseStatus9MergeImplERN6google8protobuf7MessageERKS4_
libkiapi.so.9.0.1:_ZN5kiapi6common17ApiResponseStatusC1EPN6google8protobuf5ArenaE
libkiapi.so.9.0.1:_ZN5kiapi6common17ApiResponseStatusC1EPN6google8protobuf5ArenaERKS1_
libkiapi.so.9.0.1:_ZN5kiapi6common17ApiResponseStatusC2EPN6google8protobuf5ArenaE
libkiapi.so.9.0.1:_ZN5kiapi6common17ApiResponseStatusC2EPN6google8protobuf5ArenaERKS1_
libkiapi.so.9.0.1:_ZN5kiapi6common17ApiResponseStatusD0Ev
libkiapi.so.9.0.1:_ZN5kiapi6common17ApiResponseStatusD1Ev
libkiapi.so.9.0.1:_ZN5kiapi6common17ApiResponseStatusD2Ev
libkiapi.so.9.0.1:_ZN5kiapi6common21ApiStatusCode_IsValidEi
libkiapi.so.9.0.1:_ZN5kiapi6common24ApiStatusCode_descriptorEv
libkiapi.so.9.0.1:_ZN5kiapi6common5types10ItemHeader12InternalSwapEPS2_
libkiapi.so.9.0.1:_ZN5kiapi6common5types10ItemHeader14_InternalParseEPKcPN6google8protobuf8internal12ParseContextE
libkiapi.so.9.0.1:_ZN5kiapi6common5types10ItemHeader16clear_field_maskEv
libkiapi.so.9.0.1:_ZN5kiapi6common5types10ItemHeader5ClearEv
libkiapi.so.9.0.1:_ZN5kiapi6common5types10ItemHeader8CopyFromERKS2_
libkiapi.so.9.0.1:_ZN5kiapi6common5types10ItemHeader9MergeImplERN6google8protobuf7MessageERKS5_
libkiapi.so.9.0.1:_ZN5kiapi6common5types10ItemHeader9_Internal10field_maskEPKS2_
libkiapi.so.9.0.1:_ZN5kiapi6common5types10ItemHeader9_Internal8documentEPKS2_
libkiapi.so.9.0.1:_ZN5kiapi6common5types10ItemHeader9_Internal9containerEPKS2_
libkiapi.so.9.0.1:_ZN5kiapi6common5types10ItemHeaderC1EPN6google8protobuf5ArenaE
libkiapi.so.9.0.1:_ZN5kiapi6common5types10ItemHeaderC1EPN6google8protobuf5ArenaERKS2_
libkiapi.so.9.0.1:_ZN5kiapi6common5types10ItemHeaderC2EPN6google8protobuf5ArenaE
libkiapi.so.9.0.1:_ZN5kiapi6common5types10ItemHeaderC2EPN6google8protobuf5ArenaERKS2_
libkiapi.so.9.0.1:_ZN5kiapi6common5types10ItemHeaderD0Ev
libkiapi.so.9.0.1:_ZN5kiapi6common5types10ItemHeaderD1Ev
libkiapi.so.9.0.1:_ZN5kiapi6common5types10ItemHeaderD2Ev
libkiapi.so.9.0.1:_ZN5kiapi6common5types12GraphicShape12InternalSwapEPS2_
libkiapi.so.9.0.1:_ZN5kiapi6common5types12GraphicShape14_InternalParseEPKcPN6google8protobuf8internal12ParseContextE
libkiapi.so.9.0.1:_ZN5kiapi6common5types12GraphicShape14clear_geometryEv
libkiapi.so.9.0.1:_ZN5kiapi6common5types12GraphicShape17set_allocated_arcEPNS1_20GraphicArcAttributesE
libkiapi.so.9.0.1:_ZN5kiapi6common5types12GraphicShape20set_allocated_bezierEPNS1_23GraphicBezierAttributesE
libkiapi.so.9.0.1:_ZN5kiapi6common5types12GraphicShape20set_allocated_circleEPNS1_23GraphicCircleAttributesE
libkiapi.so.9.0.1:_ZN5kiapi6common5types12GraphicShape21set_allocated_polygonEPNS1_7PolySetE
libkiapi.so.9.0.1:_ZN5kiapi6common5types12GraphicShape21set_allocated_segmentEPNS1_24GraphicSegmentAttributesE
libkiapi.so.9.0.1:_ZN5kiapi6common5types12GraphicShape23set_allocated_rectangleEPNS1_26GraphicRectangleAttributesE
libkiapi.so.9.0.1:_ZN5kiapi6common5types12GraphicShape5ClearEv
libkiapi.so.9.0.1:_ZN5kiapi6common5types12GraphicShape8CopyFromERKS2_
libkiapi.so.9.0.1:_ZN5kiapi6common5types12GraphicShape9MergeImplERN6google8protobuf7MessageERKS5_
libkiapi.so.9.0.1:_ZN5kiapi6common5types12GraphicShape9_Internal10attributesEPKS2_
libkiapi.so.9.0.1:_ZN5kiapi6common5types12GraphicShape9_Internal3arcEPKS2_
libkiapi.so.9.0.1:_ZN5kiapi6common5types12GraphicShape9_Internal6bezierEPKS2_
libkiapi.so.9.0.1:_ZN5kiapi6common5types12GraphicShape9_Internal6circleEPKS2_
libkiapi.so.9.0.1:_ZN5kiapi6common5types12GraphicShape9_Internal7polygonEPKS2_
libkiapi.so.9.0.1:_ZN5kiapi6common5types12GraphicShape9_Internal7segmentEPKS2_
libkiapi.so.9.0.1:_ZN5kiapi6common5types12GraphicShape9_Internal9rectangleEPKS2_
libkiapi.so.9.0.1:_ZN5kiapi6common5types12GraphicShapeC1EPN6google8protobuf5ArenaE
libkiapi.so.9.0.1:_ZN5kiapi6common5types12GraphicShapeC1EPN6google8protobuf5ArenaERKS2_
libkiapi.so.9.0.1:_ZN5kiapi6common5types12GraphicShapeC2EPN6google8protobuf5ArenaE
libkiapi.so.9.0.1:_ZN5kiapi6common5types12GraphicShapeC2EPN6google8protobuf5ArenaERKS2_
libkiapi.so.9.0.1:_ZN5kiapi6common5types12GraphicShapeD0Ev
libkiapi.so.9.0.1:_ZN5kiapi6common5types12GraphicShapeD1Ev
libkiapi.so.9.0.1:_ZN5kiapi6common5types12GraphicShapeD2Ev
libkiapi.so.9.0.1:_ZN5kiapi6common5types12KiCadVersion12InternalSwapEPS2_
libkiapi.so.9.0.1:_ZN5kiapi6common5types12KiCadVersion14_InternalParseEPKcPN6google8protobuf8internal12ParseContextE
libkiapi.so.9.0.1:_ZN5kiapi6common5types12KiCadVersion5ClearEv
libkiapi.so.9.0.1:_ZN5kiapi6common5types12KiCadVersion8CopyFromERKS2_
libkiapi.so.9.0.1:_ZN5kiapi6common5types12KiCadVersion9MergeImplERN6google8protobuf7MessageERKS5_
libkiapi.so.9.0.1:_ZN5kiapi6common5types12KiCadVersionC1EPN6google8protobuf5ArenaE
libkiapi.so.9.0.1:_ZN5kiapi6common5types12KiCadVersionC1EPN6google8protobuf5ArenaERKS2_
libkiapi.so.9.0.1:_ZN5kiapi6common5types12KiCadVersionC2EPN6google8protobuf5ArenaE
libkiapi.so.9.0.1:_ZN5kiapi6common5types12KiCadVersionC2EPN6google8protobuf5ArenaERKS2_
libkiapi.so.9.0.1:_ZN5kiapi6common5types12KiCadVersionD0Ev
libkiapi.so.9.0.1:_ZN5kiapi6common5types12KiCadVersionD1Ev
libkiapi.so.9.0.1:_ZN5kiapi6common5types12KiCadVersionD2Ev
libkiapi.so.9.0.1:_ZN5kiapi6common5types12PolyLineNode12InternalSwapEPS2_
libkiapi.so.9.0.1:_ZN5kiapi6common5types12PolyLineNode14_InternalParseEPKcPN6google8protobuf8internal12ParseContextE
libkiapi.so.9.0.1:_ZN5kiapi6common5types12PolyLineNode14clear_geometryEv
libkiapi.so.9.0.1:_ZN5kiapi6common5types12PolyLineNode17set_allocated_arcEPNS1_14ArcStartMidEndE
libkiapi.so.9.0.1:_ZN5kiapi6common5types12PolyLineNode19set_allocated_pointEPNS1_7Vector2E
libkiapi.so.9.0.1:_ZN5kiapi6common5types12PolyLineNode5ClearEv
libkiapi.so.9.0.1:_ZN5kiapi6common5types12PolyLineNode8CopyFromERKS2_
libkiapi.so.9.0.1:_ZN5kiapi6common5types12PolyLineNode9MergeImplERN6google8protobuf7MessageERKS5_
libkiapi.so.9.0.1:_ZN5kiapi6common5types12PolyLineNode9_Internal3arcEPKS2_
libkiapi.so.9.0.1:_ZN5kiapi6common5types12PolyLineNode9_Internal5pointEPKS2_
libkiapi.so.9.0.1:_ZN5kiapi6common5types12PolyLineNodeC1EPN6google8protobuf5ArenaE
libkiapi.so.9.0.1:_ZN5kiapi6common5types12PolyLineNodeC1EPN6google8protobuf5ArenaERKS2_
libkiapi.so.9.0.1:_ZN5kiapi6common5types12PolyLineNodeC2EPN6google8protobuf5ArenaE
libkiapi.so.9.0.1:_ZN5kiapi6common5types12PolyLineNodeC2EPN6google8protobuf5ArenaERKS2_
libkiapi.so.9.0.1:_ZN5kiapi6common5types12PolyLineNodeD0Ev
libkiapi.so.9.0.1:_ZN5kiapi6common5types12PolyLineNodeD1Ev
libkiapi.so.9.0.1:_ZN5kiapi6common5types12PolyLineNodeD2Ev
libkiapi.so.9.0.1:_ZN5kiapi6common5types13CompoundShape12InternalSwapEPS2_
libkiapi.so.9.0.1:_ZN5kiapi6common5types13CompoundShape14_InternalParseEPKcPN6google8protobuf8internal12ParseContextE
libkiapi.so.9.0.1:_ZN5kiapi6common5types13CompoundShape5ClearEv
libkiapi.so.9.0.1:_ZN5kiapi6common5types13CompoundShape8CopyFromERKS2_
libkiapi.so.9.0.1:_ZN5kiapi6common5types13CompoundShape9MergeImplERN6google8protobuf7MessageERKS5_
libkiapi.so.9.0.1:_ZN5kiapi6common5types13CompoundShapeC1EPN6google8protobuf5ArenaE
libkiapi.so.9.0.1:_ZN5kiapi6common5types13CompoundShapeC1EPN6google8protobuf5ArenaERKS2_
libkiapi.so.9.0.1:_ZN5kiapi6common5types13CompoundShapeC2EPN6google8protobuf5ArenaE
libkiapi.so.9.0.1:_ZN5kiapi6common5types13CompoundShapeC2EPN6google8protobuf5ArenaERKS2_
libkiapi.so.9.0.1:_ZN5kiapi6common5types13CompoundShapeD0Ev
libkiapi.so.9.0.1:_ZN5kiapi6common5types13CompoundShapeD1Ev
libkiapi.so.9.0.1:_ZN5kiapi6common5types13CompoundShapeD2Ev
libkiapi.so.9.0.1:_ZN5kiapi6common5types14ArcStartMidEnd12InternalSwapEPS2_
libkiapi.so.9.0.1:_ZN5kiapi6common5types14ArcStartMidEnd14_InternalParseEPKcPN6google8protobuf8internal12ParseContextE
libkiapi.so.9.0.1:_ZN5kiapi6common5types14ArcStartMidEnd5ClearEv
libkiapi.so.9.0.1:_ZN5kiapi6common5types14ArcStartMidEnd8CopyFromERKS2_
libkiapi.so.9.0.1:_ZN5kiapi6common5types14ArcStartMidEnd9MergeImplERN6google8protobuf7MessageERKS5_
libkiapi.so.9.0.1:_ZN5kiapi6common5types14ArcStartMidEnd9_Internal3endEPKS2_
libkiapi.so.9.0.1:_ZN5kiapi6common5types14ArcStartMidEnd9_Internal3midEPKS2_
libkiapi.so.9.0.1:_ZN5kiapi6common5types14ArcStartMidEnd9_Internal5startEPKS2_
libkiapi.so.9.0.1:_ZN5kiapi6common5types14ArcStartMidEndC1EPN6google8protobuf5ArenaE
libkiapi.so.9.0.1:_ZN5kiapi6common5types14ArcStartMidEndC1EPN6google8protobuf5ArenaERKS2_
libkiapi.so.9.0.1:_ZN5kiapi6common5types14ArcStartMidEndC2EPN6google8protobuf5ArenaE
libkiapi.so.9.0.1:_ZN5kiapi6common5types14ArcStartMidEndC2EPN6google8protobuf5ArenaERKS2_
libkiapi.so.9.0.1:_ZN5kiapi6common5types14ArcStartMidEndD0Ev
libkiapi.so.9.0.1:_ZN5kiapi6common5types14ArcStartMidEndD1Ev
libkiapi.so.9.0.1:_ZN5kiapi6common5types14ArcStartMidEndD2Ev
libkiapi.so.9.0.1:_ZN5kiapi6common5types14TextAttributes12InternalSwapEPS2_
libkiapi.so.9.0.1:_ZN5kiapi6common5types14TextAttributes14_InternalParseEPKcPN6google8protobuf8internal12ParseContextE
libkiapi.so.9.0.1:_ZN5kiapi6common5types14TextAttributes5ClearEv
libkiapi.so.9.0.1:_ZN5kiapi6common5types14TextAttributes8CopyFromERKS2_
libkiapi.so.9.0.1:_ZN5kiapi6common5types14TextAttributes9MergeImplERN6google8protobuf7MessageERKS5_
libkiapi.so.9.0.1:_ZN5kiapi6common5types14TextAttributes9_Internal12stroke_widthEPKS2_
libkiapi.so.9.0.1:_ZN5kiapi6common5types14TextAttributes9_Internal4sizeEPKS2_
libkiapi.so.9.0.1:_ZN5kiapi6common5types14TextAttributes9_Internal5angleEPKS2_
libkiapi.so.9.0.1:_ZN5kiapi6common5types14TextAttributesC1EPN6google8protobuf5ArenaE
libkiapi.so.9.0.1:_ZN5kiapi6common5types14TextAttributesC1EPN6google8protobuf5ArenaERKS2_
libkiapi.so.9.0.1:_ZN5kiapi6common5types14TextAttributesC2EPN6google8protobuf5ArenaE
libkiapi.so.9.0.1:_ZN5kiapi6common5types14TextAttributesC2EPN6google8protobuf5ArenaERKS2_
libkiapi.so.9.0.1:_ZN5kiapi6common5types14TextAttributesD0Ev
libkiapi.so.9.0.1:_ZN5kiapi6common5types14TextAttributesD1Ev
libkiapi.so.9.0.1:_ZN5kiapi6common5types14TextAttributesD2Ev
libkiapi.so.9.0.1:_ZN5kiapi6common5types14TitleBlockInfo12InternalSwapEPS2_
libkiapi.so.9.0.1:_ZN5kiapi6common5types14TitleBlockInfo14_InternalParseEPKcPN6google8protobuf8internal12ParseContextE
libkiapi.so.9.0.1:_ZN5kiapi6common5types14TitleBlockInfo5ClearEv
libkiapi.so.9.0.1:_ZN5kiapi6common5types14TitleBlockInfo8CopyFromERKS2_
libkiapi.so.9.0.1:_ZN5kiapi6common5types14TitleBlockInfo9MergeImplERN6google8protobuf7MessageERKS5_
libkiapi.so.9.0.1:_ZN5kiapi6common5types14TitleBlockInfoC1EPN6google8protobuf5ArenaE
libkiapi.so.9.0.1:_ZN5kiapi6common5types14TitleBlockInfoC1EPN6google8protobuf5ArenaERKS2_
libkiapi.so.9.0.1:_ZN5kiapi6common5types14TitleBlockInfoC2EPN6google8protobuf5ArenaE
libkiapi.so.9.0.1:_ZN5kiapi6common5types14TitleBlockInfoC2EPN6google8protobuf5ArenaERKS2_
libkiapi.so.9.0.1:_ZN5kiapi6common5types14TitleBlockInfoD0Ev
libkiapi.so.9.0.1:_ZN5kiapi6common5types14TitleBlockInfoD1Ev
libkiapi.so.9.0.1:_ZN5kiapi6common5types14TitleBlockInfoD2Ev
libkiapi.so.9.0.1:_ZN5kiapi6common5types16PolygonWithHoles12InternalSwapEPS2_
libkiapi.so.9.0.1:_ZN5kiapi6common5types16PolygonWithHoles14_InternalParseEPKcPN6google8protobuf8internal12ParseContextE
libkiapi.so.9.0.1:_ZN5kiapi6common5types16PolygonWithHoles5ClearEv
libkiapi.so.9.0.1:_ZN5kiapi6common5types16PolygonWithHoles8CopyFromERKS2_
libkiapi.so.9.0.1:_ZN5kiapi6common5types16PolygonWithHoles9MergeImplERN6google8protobuf7MessageERKS5_
libkiapi.so.9.0.1:_ZN5kiapi6common5types16PolygonWithHoles9_Internal7outlineEPKS2_
libkiapi.so.9.0.1:_ZN5kiapi6common5types16PolygonWithHolesC1EPN6google8protobuf5ArenaE
libkiapi.so.9.0.1:_ZN5kiapi6common5types16PolygonWithHolesC1EPN6google8protobuf5ArenaERKS2_
libkiapi.so.9.0.1:_ZN5kiapi6common5types16PolygonWithHolesC2EPN6google8protobuf5ArenaE
libkiapi.so.9.0.1:_ZN5kiapi6common5types16PolygonWithHolesC2EPN6google8protobuf5ArenaERKS2_
libkiapi.so.9.0.1:_ZN5kiapi6common5types16PolygonWithHolesD0Ev
libkiapi.so.9.0.1:_ZN5kiapi6common5types16PolygonWithHolesD1Ev
libkiapi.so.9.0.1:_ZN5kiapi6common5types16PolygonWithHolesD2Ev
libkiapi.so.9.0.1:_ZN5kiapi6common5types16ProjectSpecifier12InternalSwapEPS2_
libkiapi.so.9.0.1:_ZN5kiapi6common5types16ProjectSpecifier14_InternalParseEPKcPN6google8protobuf8internal12ParseContextE
libkiapi.so.9.0.1:_ZN5kiapi6common5types16ProjectSpecifier5ClearEv
libkiapi.so.9.0.1:_ZN5kiapi6common5types16ProjectSpecifier8CopyFromERKS2_
libkiapi.so.9.0.1:_ZN5kiapi6common5types16ProjectSpecifier9MergeImplERN6google8protobuf7MessageERKS5_
libkiapi.so.9.0.1:_ZN5kiapi6common5types16ProjectSpecifierC1EPN6google8protobuf5ArenaE
libkiapi.so.9.0.1:_ZN5kiapi6common5types16ProjectSpecifierC1EPN6google8protobuf5ArenaERKS2_
libkiapi.so.9.0.1:_ZN5kiapi6common5types16ProjectSpecifierC2EPN6google8protobuf5ArenaE
libkiapi.so.9.0.1:_ZN5kiapi6common5types16ProjectSpecifierC2EPN6google8protobuf5ArenaERKS2_
libkiapi.so.9.0.1:_ZN5kiapi6common5types16ProjectSpecifierD0Ev
libkiapi.so.9.0.1:_ZN5kiapi6common5types16ProjectSpecifierD1Ev
libkiapi.so.9.0.1:_ZN5kiapi6common5types16ProjectSpecifierD2Ev
libkiapi.so.9.0.1:_ZN5kiapi6common5types16StrokeAttributes12InternalSwapEPS2_
libkiapi.so.9.0.1:_ZN5kiapi6common5types16StrokeAttributes14_InternalParseEPKcPN6google8protobuf8internal12ParseContextE
libkiapi.so.9.0.1:_ZN5kiapi6common5types16StrokeAttributes5ClearEv
libkiapi.so.9.0.1:_ZN5kiapi6common5types16StrokeAttributes8CopyFromERKS2_
libkiapi.so.9.0.1:_ZN5kiapi6common5types16StrokeAttributes9MergeImplERN6google8protobuf7MessageERKS5_
libkiapi.so.9.0.1:_ZN5kiapi6common5types16StrokeAttributes9_Internal5colorEPKS2_
libkiapi.so.9.0.1:_ZN5kiapi6common5types16StrokeAttributes9_Internal5widthEPKS2_
libkiapi.so.9.0.1:_ZN5kiapi6common5types16StrokeAttributesC1EPN6google8protobuf5ArenaE
libkiapi.so.9.0.1:_ZN5kiapi6common5types16StrokeAttributesC1EPN6google8protobuf5ArenaERKS2_
libkiapi.so.9.0.1:_ZN5kiapi6common5types16StrokeAttributesC2EPN6google8protobuf5ArenaE
libkiapi.so.9.0.1:_ZN5kiapi6common5types16StrokeAttributesC2EPN6google8protobuf5ArenaERKS2_
libkiapi.so.9.0.1:_ZN5kiapi6common5types16StrokeAttributesD0Ev
libkiapi.so.9.0.1:_ZN5kiapi6common5types16StrokeAttributesD1Ev
libkiapi.so.9.0.1:_ZN5kiapi6common5types16StrokeAttributesD2Ev
libkiapi.so.9.0.1:_ZN5kiapi6common5types17DocumentSpecifier12InternalSwapEPS2_
libkiapi.so.9.0.1:_ZN5kiapi6common5types17DocumentSpecifier14_InternalParseEPKcPN6google8protobuf8internal12ParseContextE
libkiapi.so.9.0.1:_ZN5kiapi6common5types17DocumentSpecifier16clear_identifierEv
libkiapi.so.9.0.1:_ZN5kiapi6common5types17DocumentSpecifier20set_allocated_lib_idEPNS1_17LibraryIdentifierE
libkiapi.so.9.0.1:_ZN5kiapi6common5types17DocumentSpecifier24set_allocated_sheet_pathEPNS1_9SheetPathE
libkiapi.so.9.0.1:_ZN5kiapi6common5types17DocumentSpecifier5ClearEv
libkiapi.so.9.0.1:_ZN5kiapi6common5types17DocumentSpecifier8CopyFromERKS2_
libkiapi.so.9.0.1:_ZN5kiapi6common5types17DocumentSpecifier9MergeImplERN6google8protobuf7MessageERKS5_
libkiapi.so.9.0.1:_ZN5kiapi6common5types17DocumentSpecifier9_Internal10sheet_pathEPKS2_
libkiapi.so.9.0.1:_ZN5kiapi6common5types17DocumentSpecifier9_Internal6lib_idEPKS2_
libkiapi.so.9.0.1:_ZN5kiapi6common5types17DocumentSpecifier9_Internal7projectEPKS2_
libkiapi.so.9.0.1:_ZN5kiapi6common5types17DocumentSpecifierC1EPN6google8protobuf5ArenaE
libkiapi.so.9.0.1:_ZN5kiapi6common5types17DocumentSpecifierC1EPN6google8protobuf5ArenaERKS2_
libkiapi.so.9.0.1:_ZN5kiapi6common5types17DocumentSpecifierC2EPN6google8protobuf5ArenaE
libkiapi.so.9.0.1:_ZN5kiapi6common5types17DocumentSpecifierC2EPN6google8protobuf5ArenaERKS2_
libkiapi.so.9.0.1:_ZN5kiapi6common5types17DocumentSpecifierD0Ev
libkiapi.so.9.0.1:_ZN5kiapi6common5types17DocumentSpecifierD1Ev
libkiapi.so.9.0.1:_ZN5kiapi6common5types17DocumentSpecifierD2Ev
libkiapi.so.9.0.1:_ZN5kiapi6common5types17FrameType_IsValidEi
libkiapi.so.9.0.1:_ZN5kiapi6common5types17GraphicAttributes12InternalSwapEPS2_
libkiapi.so.9.0.1:_ZN5kiapi6common5types17GraphicAttributes14_InternalParseEPKcPN6google8protobuf8internal12ParseContextE
libkiapi.so.9.0.1:_ZN5kiapi6common5types17GraphicAttributes5ClearEv
libkiapi.so.9.0.1:_ZN5kiapi6common5types17GraphicAttributes8CopyFromERKS2_
libkiapi.so.9.0.1:_ZN5kiapi6common5types17GraphicAttributes9MergeImplERN6google8protobuf7MessageERKS5_
libkiapi.so.9.0.1:_ZN5kiapi6common5types17GraphicAttributes9_Internal4fillEPKS2_
libkiapi.so.9.0.1:_ZN5kiapi6common5types17GraphicAttributes9_Internal6strokeEPKS2_
libkiapi.so.9.0.1:_ZN5kiapi6common5types17GraphicAttributesC1EPN6google8protobuf5ArenaE
libkiapi.so.9.0.1:_ZN5kiapi6common5types17GraphicAttributesC1EPN6google8protobuf5ArenaERKS2_
libkiapi.so.9.0.1:_ZN5kiapi6common5types17GraphicAttributesC2EPN6google8protobuf5ArenaE
libkiapi.so.9.0.1:_ZN5kiapi6common5types17GraphicAttributesC2EPN6google8protobuf5ArenaERKS2_
libkiapi.so.9.0.1:_ZN5kiapi6common5types17GraphicAttributesD0Ev
libkiapi.so.9.0.1:_ZN5kiapi6common5types17GraphicAttributesD1Ev
libkiapi.so.9.0.1:_ZN5kiapi6common5types17GraphicAttributesD2Ev
libkiapi.so.9.0.1:_ZN5kiapi6common5types17LibraryIdentifier12InternalSwapEPS2_
libkiapi.so.9.0.1:_ZN5kiapi6common5types17LibraryIdentifier14_InternalParseEPKcPN6google8protobuf8internal12ParseContextE
libkiapi.so.9.0.1:_ZN5kiapi6common5types17LibraryIdentifier5ClearEv
libkiapi.so.9.0.1:_ZN5kiapi6common5types17LibraryIdentifier8CopyFromERKS2_
libkiapi.so.9.0.1:_ZN5kiapi6common5types17LibraryIdentifier9MergeImplERN6google8protobuf7MessageERKS5_
libkiapi.so.9.0.1:_ZN5kiapi6common5types17LibraryIdentifierC1EPN6google8protobuf5ArenaE
libkiapi.so.9.0.1:_ZN5kiapi6common5types17LibraryIdentifierC1EPN6google8protobuf5ArenaERKS2_
libkiapi.so.9.0.1:_ZN5kiapi6common5types17LibraryIdentifierC2EPN6google8protobuf5ArenaE
libkiapi.so.9.0.1:_ZN5kiapi6common5types17LibraryIdentifierC2EPN6google8protobuf5ArenaERKS2_
libkiapi.so.9.0.1:_ZN5kiapi6common5types17LibraryIdentifierD0Ev
libkiapi.so.9.0.1:_ZN5kiapi6common5types17LibraryIdentifierD1Ev
libkiapi.so.9.0.1:_ZN5kiapi6common5types17LibraryIdentifierD2Ev
libkiapi.so.9.0.1:_ZN5kiapi6common5types19LockedState_IsValidEi
libkiapi.so.9.0.1:_ZN5kiapi6common5types20DocumentType_IsValidEi
libkiapi.so.9.0.1:_ZN5kiapi6common5types20FrameType_descriptorEv
libkiapi.so.9.0.1:_ZN5kiapi6common5types20GraphicArcAttributes12InternalSwapEPS2_
libkiapi.so.9.0.1:_ZN5kiapi6common5types20GraphicArcAttributes14_InternalParseEPKcPN6google8protobuf8internal12ParseContextE
libkiapi.so.9.0.1:_ZN5kiapi6common5types20GraphicArcAttributes5ClearEv
libkiapi.so.9.0.1:_ZN5kiapi6common5types20GraphicArcAttributes8CopyFromERKS2_
libkiapi.so.9.0.1:_ZN5kiapi6common5types20GraphicArcAttributes9MergeImplERN6google8protobuf7MessageERKS5_
libkiapi.so.9.0.1:_ZN5kiapi6common5types20GraphicArcAttributes9_Internal3endEPKS2_
libkiapi.so.9.0.1:_ZN5kiapi6common5types20GraphicArcAttributes9_Internal3midEPKS2_
libkiapi.so.9.0.1:_ZN5kiapi6common5types20GraphicArcAttributes9_Internal5startEPKS2_
libkiapi.so.9.0.1:_ZN5kiapi6common5types20GraphicArcAttributesC1EPN6google8protobuf5ArenaE
libkiapi.so.9.0.1:_ZN5kiapi6common5types20GraphicArcAttributesC1EPN6google8protobuf5ArenaERKS2_
libkiapi.so.9.0.1:_ZN5kiapi6common5types20GraphicArcAttributesC2EPN6google8protobuf5ArenaE
libkiapi.so.9.0.1:_ZN5kiapi6common5types20GraphicArcAttributesC2EPN6google8protobuf5ArenaERKS2_
libkiapi.so.9.0.1:_ZN5kiapi6common5types20GraphicArcAttributesD0Ev
libkiapi.so.9.0.1:_ZN5kiapi6common5types20GraphicArcAttributesD1Ev
libkiapi.so.9.0.1:_ZN5kiapi6common5types20GraphicArcAttributesD2Ev
libkiapi.so.9.0.1:_ZN5kiapi6common5types20MapMergeMode_IsValidEi
libkiapi.so.9.0.1:_ZN5kiapi6common5types21AxisAlignment_IsValidEi
libkiapi.so.9.0.1:_ZN5kiapi6common5types21CommandStatusResponse12InternalSwapEPS2_
libkiapi.so.9.0.1:_ZN5kiapi6common5types21CommandStatusResponse14_InternalParseEPKcPN6google8protobuf8internal12ParseContextE
libkiapi.so.9.0.1:_ZN5kiapi6common5types21CommandStatusResponse5ClearEv
libkiapi.so.9.0.1:_ZN5kiapi6common5types21CommandStatusResponse8CopyFromERKS2_
libkiapi.so.9.0.1:_ZN5kiapi6common5types21CommandStatusResponse9MergeImplERN6google8protobuf7MessageERKS5_
libkiapi.so.9.0.1:_ZN5kiapi6common5types21CommandStatusResponseC1EPN6google8protobuf5ArenaE
libkiapi.so.9.0.1:_ZN5kiapi6common5types21CommandStatusResponseC1EPN6google8protobuf5ArenaERKS2_
libkiapi.so.9.0.1:_ZN5kiapi6common5types21CommandStatusResponseC2EPN6google8protobuf5ArenaE
libkiapi.so.9.0.1:_ZN5kiapi6common5types21CommandStatusResponseC2EPN6google8protobuf5ArenaERKS2_
libkiapi.so.9.0.1:_ZN5kiapi6common5types21CommandStatusResponseD0Ev
libkiapi.so.9.0.1:_ZN5kiapi6common5types21CommandStatusResponseD1Ev
libkiapi.so.9.0.1:_ZN5kiapi6common5types21CommandStatusResponseD2Ev
libkiapi.so.9.0.1:_ZN5kiapi6common5types21CommandStatus_IsValidEi
libkiapi.so.9.0.1:_ZN5kiapi6common5types21GraphicFillAttributes12InternalSwapEPS2_
libkiapi.so.9.0.1:_ZN5kiapi6common5types21GraphicFillAttributes14_InternalParseEPKcPN6google8protobuf8internal12ParseContextE
libkiapi.so.9.0.1:_ZN5kiapi6common5types21GraphicFillAttributes5ClearEv
libkiapi.so.9.0.1:_ZN5kiapi6common5types21GraphicFillAttributes8CopyFromERKS2_
libkiapi.so.9.0.1:_ZN5kiapi6common5types21GraphicFillAttributes9MergeImplERN6google8protobuf7MessageERKS5_
libkiapi.so.9.0.1:_ZN5kiapi6common5types21GraphicFillAttributes9_Internal5colorEPKS2_
libkiapi.so.9.0.1:_ZN5kiapi6common5types21GraphicFillAttributesC1EPN6google8protobuf5ArenaE
libkiapi.so.9.0.1:_ZN5kiapi6common5types21GraphicFillAttributesC1EPN6google8protobuf5ArenaERKS2_
libkiapi.so.9.0.1:_ZN5kiapi6common5types21GraphicFillAttributesC2EPN6google8protobuf5ArenaE
libkiapi.so.9.0.1:_ZN5kiapi6common5types21GraphicFillAttributesC2EPN6google8protobuf5ArenaERKS2_
libkiapi.so.9.0.1:_ZN5kiapi6common5types21GraphicFillAttributesD0Ev
libkiapi.so.9.0.1:_ZN5kiapi6common5types21GraphicFillAttributesD1Ev
libkiapi.so.9.0.1:_ZN5kiapi6common5types21GraphicFillAttributesD2Ev
libkiapi.so.9.0.1:_ZN5kiapi6common5types22LockedState_descriptorEv
libkiapi.so.9.0.1:_ZN5kiapi6common5types23DocumentType_descriptorEv
libkiapi.so.9.0.1:_ZN5kiapi6common5types23GraphicBezierAttributes12InternalSwapEPS2_
libkiapi.so.9.0.1:_ZN5kiapi6common5types23GraphicBezierAttributes14_InternalParseEPKcPN6google8protobuf8internal12ParseContextE
libkiapi.so.9.0.1:_ZN5kiapi6common5types23GraphicBezierAttributes5ClearEv
libkiapi.so.9.0.1:_ZN5kiapi6common5types23GraphicBezierAttributes8CopyFromERKS2_
libkiapi.so.9.0.1:_ZN5kiapi6common5types23GraphicBezierAttributes9MergeImplERN6google8protobuf7MessageERKS5_
libkiapi.so.9.0.1:_ZN5kiapi6common5types23GraphicBezierAttributes9_Internal3endEPKS2_
libkiapi.so.9.0.1:_ZN5kiapi6common5types23GraphicBezierAttributes9_Internal5startEPKS2_
libkiapi.so.9.0.1:_ZN5kiapi6common5types23GraphicBezierAttributes9_Internal8control1EPKS2_
libkiapi.so.9.0.1:_ZN5kiapi6common5types23GraphicBezierAttributes9_Internal8control2EPKS2_
libkiapi.so.9.0.1:_ZN5kiapi6common5types23GraphicBezierAttributesC1EPN6google8protobuf5ArenaE
libkiapi.so.9.0.1:_ZN5kiapi6common5types23GraphicBezierAttributesC1EPN6google8protobuf5ArenaERKS2_
libkiapi.so.9.0.1:_ZN5kiapi6common5types23GraphicBezierAttributesC2EPN6google8protobuf5ArenaE
libkiapi.so.9.0.1:_ZN5kiapi6common5types23GraphicBezierAttributesC2EPN6google8protobuf5ArenaERKS2_
libkiapi.so.9.0.1:_ZN5kiapi6common5types23GraphicBezierAttributesD0Ev
libkiapi.so.9.0.1:_ZN5kiapi6common5types23GraphicBezierAttributesD1Ev
libkiapi.so.9.0.1:_ZN5kiapi6common5types23GraphicBezierAttributesD2Ev
libkiapi.so.9.0.1:_ZN5kiapi6common5types23GraphicCircleAttributes12InternalSwapEPS2_
libkiapi.so.9.0.1:_ZN5kiapi6common5types23GraphicCircleAttributes14_InternalParseEPKcPN6google8protobuf8internal12ParseContextE
libkiapi.so.9.0.1:_ZN5kiapi6common5types23GraphicCircleAttributes5ClearEv
libkiapi.so.9.0.1:_ZN5kiapi6common5types23GraphicCircleAttributes8CopyFromERKS2_
libkiapi.so.9.0.1:_ZN5kiapi6common5types23GraphicCircleAttributes9MergeImplERN6google8protobuf7MessageERKS5_
libkiapi.so.9.0.1:_ZN5kiapi6common5types23GraphicCircleAttributes9_Internal12radius_pointEPKS2_
libkiapi.so.9.0.1:_ZN5kiapi6common5types23GraphicCircleAttributes9_Internal6centerEPKS2_
libkiapi.so.9.0.1:_ZN5kiapi6common5types23GraphicCircleAttributesC1EPN6google8protobuf5ArenaE
libkiapi.so.9.0.1:_ZN5kiapi6common5types23GraphicCircleAttributesC1EPN6google8protobuf5ArenaERKS2_
libkiapi.so.9.0.1:_ZN5kiapi6common5types23GraphicCircleAttributesC2EPN6google8protobuf5ArenaE
libkiapi.so.9.0.1:_ZN5kiapi6common5types23GraphicCircleAttributesC2EPN6google8protobuf5ArenaERKS2_
libkiapi.so.9.0.1:_ZN5kiapi6common5types23GraphicCircleAttributesD0Ev
libkiapi.so.9.0.1:_ZN5kiapi6common5types23GraphicCircleAttributesD1Ev
libkiapi.so.9.0.1:_ZN5kiapi6common5types23GraphicCircleAttributesD2Ev
libkiapi.so.9.0.1:_ZN5kiapi6common5types23GraphicFillType_IsValidEi
libkiapi.so.9.0.1:_ZN5kiapi6common5types23KiCadObjectType_IsValidEi
libkiapi.so.9.0.1:_ZN5kiapi6common5types23MapMergeMode_descriptorEv
libkiapi.so.9.0.1:_ZN5kiapi6common5types23StrokeLineStyle_IsValidEi
libkiapi.so.9.0.1:_ZN5kiapi6common5types24AxisAlignment_descriptorEv
libkiapi.so.9.0.1:_ZN5kiapi6common5types24CommandStatus_descriptorEv
libkiapi.so.9.0.1:_ZN5kiapi6common5types24GraphicSegmentAttributes12InternalSwapEPS2_
libkiapi.so.9.0.1:_ZN5kiapi6common5types24GraphicSegmentAttributes14_InternalParseEPKcPN6google8protobuf8internal12ParseContextE
libkiapi.so.9.0.1:_ZN5kiapi6common5types24GraphicSegmentAttributes5ClearEv
libkiapi.so.9.0.1:_ZN5kiapi6common5types24GraphicSegmentAttributes8CopyFromERKS2_
libkiapi.so.9.0.1:_ZN5kiapi6common5types24GraphicSegmentAttributes9MergeImplERN6google8protobuf7MessageERKS5_
libkiapi.so.9.0.1:_ZN5kiapi6common5types24GraphicSegmentAttributes9_Internal3endEPKS2_
libkiapi.so.9.0.1:_ZN5kiapi6common5types24GraphicSegmentAttributes9_Internal5startEPKS2_
libkiapi.so.9.0.1:_ZN5kiapi6common5types24GraphicSegmentAttributesC1EPN6google8protobuf5ArenaE
libkiapi.so.9.0.1:_ZN5kiapi6common5types24GraphicSegmentAttributesC1EPN6google8protobuf5ArenaERKS2_
libkiapi.so.9.0.1:_ZN5kiapi6common5types24GraphicSegmentAttributesC2EPN6google8protobuf5ArenaE
libkiapi.so.9.0.1:_ZN5kiapi6common5types24GraphicSegmentAttributesC2EPN6google8protobuf5ArenaERKS2_
libkiapi.so.9.0.1:_ZN5kiapi6common5types24GraphicSegmentAttributesD0Ev
libkiapi.so.9.0.1:_ZN5kiapi6common5types24GraphicSegmentAttributesD1Ev
libkiapi.so.9.0.1:_ZN5kiapi6common5types24GraphicSegmentAttributesD2Ev
libkiapi.so.9.0.1:_ZN5kiapi6common5types25ItemRequestStatus_IsValidEi
libkiapi.so.9.0.1:_ZN5kiapi6common5types25VerticalAlignment_IsValidEi
libkiapi.so.9.0.1:_ZN5kiapi6common5types26GraphicFillType_descriptorEv
libkiapi.so.9.0.1:_ZN5kiapi6common5types26GraphicRectangleAttributes12InternalSwapEPS2_
libkiapi.so.9.0.1:_ZN5kiapi6common5types26GraphicRectangleAttributes14_InternalParseEPKcPN6google8protobuf8internal12ParseContextE
libkiapi.so.9.0.1:_ZN5kiapi6common5types26GraphicRectangleAttributes5ClearEv
libkiapi.so.9.0.1:_ZN5kiapi6common5types26GraphicRectangleAttributes8CopyFromERKS2_
libkiapi.so.9.0.1:_ZN5kiapi6common5types26GraphicRectangleAttributes9MergeImplERN6google8protobuf7MessageERKS5_
libkiapi.so.9.0.1:_ZN5kiapi6common5types26GraphicRectangleAttributes9_Internal12bottom_rightEPKS2_
libkiapi.so.9.0.1:_ZN5kiapi6common5types26GraphicRectangleAttributes9_Internal8top_leftEPKS2_
libkiapi.so.9.0.1:_ZN5kiapi6common5types26GraphicRectangleAttributesC1EPN6google8protobuf5ArenaE
libkiapi.so.9.0.1:_ZN5kiapi6common5types26GraphicRectangleAttributesC1EPN6google8protobuf5ArenaERKS2_
libkiapi.so.9.0.1:_ZN5kiapi6common5types26GraphicRectangleAttributesC2EPN6google8protobuf5ArenaE
libkiapi.so.9.0.1:_ZN5kiapi6common5types26GraphicRectangleAttributesC2EPN6google8protobuf5ArenaERKS2_
libkiapi.so.9.0.1:_ZN5kiapi6common5types26GraphicRectangleAttributesD0Ev
libkiapi.so.9.0.1:_ZN5kiapi6common5types26GraphicRectangleAttributesD1Ev
libkiapi.so.9.0.1:_ZN5kiapi6common5types26GraphicRectangleAttributesD2Ev
libkiapi.so.9.0.1:_ZN5kiapi6common5types26KiCadObjectType_descriptorEv
libkiapi.so.9.0.1:_ZN5kiapi6common5types26StrokeLineStyle_descriptorEv
libkiapi.so.9.0.1:_ZN5kiapi6common5types27HorizontalAlignment_IsValidEi
libkiapi.so.9.0.1:_ZN5kiapi6common5types28ItemRequestStatus_descriptorEv
libkiapi.so.9.0.1:_ZN5kiapi6common5types28VerticalAlignment_descriptorEv
libkiapi.so.9.0.1:_ZN5kiapi6common5types30HorizontalAlignment_descriptorEv
libkiapi.so.9.0.1:_ZN5kiapi6common5types4Box212InternalSwapEPS2_
libkiapi.so.9.0.1:_ZN5kiapi6common5types4Box214_InternalParseEPKcPN6google8protobuf8internal12ParseContextE
libkiapi.so.9.0.1:_ZN5kiapi6common5types4Box25ClearEv
libkiapi.so.9.0.1:_ZN5kiapi6common5types4Box28CopyFromERKS2_
libkiapi.so.9.0.1:_ZN5kiapi6common5types4Box29MergeImplERN6google8protobuf7MessageERKS5_
libkiapi.so.9.0.1:_ZN5kiapi6common5types4Box29_Internal4sizeEPKS2_
libkiapi.so.9.0.1:_ZN5kiapi6common5types4Box29_Internal8positionEPKS2_
libkiapi.so.9.0.1:_ZN5kiapi6common5types4Box2C1EPN6google8protobuf5ArenaE
libkiapi.so.9.0.1:_ZN5kiapi6common5types4Box2C1EPN6google8protobuf5ArenaERKS2_
libkiapi.so.9.0.1:_ZN5kiapi6common5types4Box2C2EPN6google8protobuf5ArenaE
libkiapi.so.9.0.1:_ZN5kiapi6common5types4Box2C2EPN6google8protobuf5ArenaERKS2_
libkiapi.so.9.0.1:_ZN5kiapi6common5types4Box2D0Ev
libkiapi.so.9.0.1:_ZN5kiapi6common5types4Box2D1Ev
libkiapi.so.9.0.1:_ZN5kiapi6common5types4Box2D2Ev
libkiapi.so.9.0.1:_ZN5kiapi6common5types4KIID12InternalSwapEPS2_
libkiapi.so.9.0.1:_ZN5kiapi6common5types4KIID14_InternalParseEPKcPN6google8protobuf8internal12ParseContextE
libkiapi.so.9.0.1:_ZN5kiapi6common5types4KIID5ClearEv
libkiapi.so.9.0.1:_ZN5kiapi6common5types4KIID8CopyFromERKS2_
libkiapi.so.9.0.1:_ZN5kiapi6common5types4KIID9MergeImplERN6google8protobuf7MessageERKS5_
libkiapi.so.9.0.1:_ZN5kiapi6common5types4KIIDC1EPN6google8protobuf5ArenaE
libkiapi.so.9.0.1:_ZN5kiapi6common5types4KIIDC1EPN6google8protobuf5ArenaERKS2_
libkiapi.so.9.0.1:_ZN5kiapi6common5types4KIIDC2EPN6google8protobuf5ArenaE
libkiapi.so.9.0.1:_ZN5kiapi6common5types4KIIDC2EPN6google8protobuf5ArenaERKS2_
libkiapi.so.9.0.1:_ZN5kiapi6common5types4KIIDD0Ev
libkiapi.so.9.0.1:_ZN5kiapi6common5types4KIIDD1Ev
libkiapi.so.9.0.1:_ZN5kiapi6common5types4KIIDD2Ev
libkiapi.so.9.0.1:_ZN5kiapi6common5types4Text12InternalSwapEPS2_
libkiapi.so.9.0.1:_ZN5kiapi6common5types4Text14_InternalParseEPKcPN6google8protobuf8internal12ParseContextE
libkiapi.so.9.0.1:_ZN5kiapi6common5types4Text5ClearEv
libkiapi.so.9.0.1:_ZN5kiapi6common5types4Text8CopyFromERKS2_
libkiapi.so.9.0.1:_ZN5kiapi6common5types4Text9MergeImplERN6google8protobuf7MessageERKS5_
libkiapi.so.9.0.1:_ZN5kiapi6common5types4Text9_Internal10attributesEPKS2_
libkiapi.so.9.0.1:_ZN5kiapi6common5types4Text9_Internal8positionEPKS2_
libkiapi.so.9.0.1:_ZN5kiapi6common5types4TextC1EPN6google8protobuf5ArenaE
libkiapi.so.9.0.1:_ZN5kiapi6common5types4TextC1EPN6google8protobuf5ArenaERKS2_
libkiapi.so.9.0.1:_ZN5kiapi6common5types4TextC2EPN6google8protobuf5ArenaE
libkiapi.so.9.0.1:_ZN5kiapi6common5types4TextC2EPN6google8protobuf5ArenaERKS2_
libkiapi.so.9.0.1:_ZN5kiapi6common5types4TextD0Ev
libkiapi.so.9.0.1:_ZN5kiapi6common5types4TextD1Ev
libkiapi.so.9.0.1:_ZN5kiapi6common5types4TextD2Ev
libkiapi.so.9.0.1:_ZN5kiapi6common5types5Angle12InternalSwapEPS2_
libkiapi.so.9.0.1:_ZN5kiapi6common5types5Angle14_InternalParseEPKcPN6google8protobuf8internal12ParseContextE
libkiapi.so.9.0.1:_ZN5kiapi6common5types5Angle5ClearEv
libkiapi.so.9.0.1:_ZN5kiapi6common5types5Angle8CopyFromERKS2_
libkiapi.so.9.0.1:_ZN5kiapi6common5types5Angle9MergeImplERN6google8protobuf7MessageERKS5_
libkiapi.so.9.0.1:_ZN5kiapi6common5types5AngleC1EPN6google8protobuf5ArenaE
libkiapi.so.9.0.1:_ZN5kiapi6common5types5AngleC1EPN6google8protobuf5ArenaERKS2_
libkiapi.so.9.0.1:_ZN5kiapi6common5types5AngleC2EPN6google8protobuf5ArenaE
libkiapi.so.9.0.1:_ZN5kiapi6common5types5AngleC2EPN6google8protobuf5ArenaERKS2_
libkiapi.so.9.0.1:_ZN5kiapi6common5types5AngleD0Ev
libkiapi.so.9.0.1:_ZN5kiapi6common5types5AngleD1Ev
libkiapi.so.9.0.1:_ZN5kiapi6common5types5AngleD2Ev
libkiapi.so.9.0.1:_ZN5kiapi6common5types5Color12InternalSwapEPS2_
libkiapi.so.9.0.1:_ZN5kiapi6common5types5Color14_InternalParseEPKcPN6google8protobuf8internal12ParseContextE
libkiapi.so.9.0.1:_ZN5kiapi6common5types5Color5ClearEv
libkiapi.so.9.0.1:_ZN5kiapi6common5types5Color8CopyFromERKS2_
libkiapi.so.9.0.1:_ZN5kiapi6common5types5Color9MergeImplERN6google8protobuf7MessageERKS5_
libkiapi.so.9.0.1:_ZN5kiapi6common5types5ColorC1EPN6google8protobuf5ArenaE
libkiapi.so.9.0.1:_ZN5kiapi6common5types5ColorC1EPN6google8protobuf5ArenaERKS2_
libkiapi.so.9.0.1:_ZN5kiapi6common5types5ColorC2EPN6google8protobuf5ArenaE
libkiapi.so.9.0.1:_ZN5kiapi6common5types5ColorC2EPN6google8protobuf5ArenaERKS2_
libkiapi.so.9.0.1:_ZN5kiapi6common5types5ColorD0Ev
libkiapi.so.9.0.1:_ZN5kiapi6common5types5ColorD1Ev
libkiapi.so.9.0.1:_ZN5kiapi6common5types5ColorD2Ev
libkiapi.so.9.0.1:_ZN5kiapi6common5types5Ratio12InternalSwapEPS2_
libkiapi.so.9.0.1:_ZN5kiapi6common5types5Ratio14_InternalParseEPKcPN6google8protobuf8internal12ParseContextE
libkiapi.so.9.0.1:_ZN5kiapi6common5types5Ratio5ClearEv
libkiapi.so.9.0.1:_ZN5kiapi6common5types5Ratio8CopyFromERKS2_
libkiapi.so.9.0.1:_ZN5kiapi6common5types5Ratio9MergeImplERN6google8protobuf7MessageERKS5_
libkiapi.so.9.0.1:_ZN5kiapi6common5types5RatioC1EPN6google8protobuf5ArenaE
libkiapi.so.9.0.1:_ZN5kiapi6common5types5RatioC1EPN6google8protobuf5ArenaERKS2_
libkiapi.so.9.0.1:_ZN5kiapi6common5types5RatioC2EPN6google8protobuf5ArenaE
libkiapi.so.9.0.1:_ZN5kiapi6common5types5RatioC2EPN6google8protobuf5ArenaERKS2_
libkiapi.so.9.0.1:_ZN5kiapi6common5types5RatioD0Ev
libkiapi.so.9.0.1:_ZN5kiapi6common5types5RatioD1Ev
libkiapi.so.9.0.1:_ZN5kiapi6common5types5RatioD2Ev
libkiapi.so.9.0.1:_ZN5kiapi6common5types7PolySet12InternalSwapEPS2_
libkiapi.so.9.0.1:_ZN5kiapi6common5types7PolySet14_InternalParseEPKcPN6google8protobuf8internal12ParseContextE
libkiapi.so.9.0.1:_ZN5kiapi6common5types7PolySet5ClearEv
libkiapi.so.9.0.1:_ZN5kiapi6common5types7PolySet8CopyFromERKS2_
libkiapi.so.9.0.1:_ZN5kiapi6common5types7PolySet9MergeImplERN6google8protobuf7MessageERKS5_
libkiapi.so.9.0.1:_ZN5kiapi6common5types7PolySetC1EPN6google8protobuf5ArenaE
libkiapi.so.9.0.1:_ZN5kiapi6common5types7PolySetC1EPN6google8protobuf5ArenaERKS2_
libkiapi.so.9.0.1:_ZN5kiapi6common5types7PolySetC2EPN6google8protobuf5ArenaE
libkiapi.so.9.0.1:_ZN5kiapi6common5types7PolySetC2EPN6google8protobuf5ArenaERKS2_
libkiapi.so.9.0.1:_ZN5kiapi6common5types7PolySetD0Ev
libkiapi.so.9.0.1:_ZN5kiapi6common5types7PolySetD1Ev
libkiapi.so.9.0.1:_ZN5kiapi6common5types7PolySetD2Ev
libkiapi.so.9.0.1:_ZN5kiapi6common5types7TextBox12InternalSwapEPS2_
libkiapi.so.9.0.1:_ZN5kiapi6common5types7TextBox14_InternalParseEPKcPN6google8protobuf8internal12ParseContextE
libkiapi.so.9.0.1:_ZN5kiapi6common5types7TextBox5ClearEv
libkiapi.so.9.0.1:_ZN5kiapi6common5types7TextBox8CopyFromERKS2_
libkiapi.so.9.0.1:_ZN5kiapi6common5types7TextBox9MergeImplERN6google8protobuf7MessageERKS5_
libkiapi.so.9.0.1:_ZN5kiapi6common5types7TextBox9_Internal10attributesEPKS2_
libkiapi.so.9.0.1:_ZN5kiapi6common5types7TextBox9_Internal12bottom_rightEPKS2_
libkiapi.so.9.0.1:_ZN5kiapi6common5types7TextBox9_Internal8top_leftEPKS2_
libkiapi.so.9.0.1:_ZN5kiapi6common5types7TextBoxC1EPN6google8protobuf5ArenaE
libkiapi.so.9.0.1:_ZN5kiapi6common5types7TextBoxC1EPN6google8protobuf5ArenaERKS2_
libkiapi.so.9.0.1:_ZN5kiapi6common5types7TextBoxC2EPN6google8protobuf5ArenaE
libkiapi.so.9.0.1:_ZN5kiapi6common5types7TextBoxC2EPN6google8protobuf5ArenaERKS2_
libkiapi.so.9.0.1:_ZN5kiapi6common5types7TextBoxD0Ev
libkiapi.so.9.0.1:_ZN5kiapi6common5types7TextBoxD1Ev
libkiapi.so.9.0.1:_ZN5kiapi6common5types7TextBoxD2Ev
libkiapi.so.9.0.1:_ZN5kiapi6common5types7Vector212InternalSwapEPS2_
libkiapi.so.9.0.1:_ZN5kiapi6common5types7Vector214_InternalParseEPKcPN6google8protobuf8internal12ParseContextE
libkiapi.so.9.0.1:_ZN5kiapi6common5types7Vector25ClearEv
libkiapi.so.9.0.1:_ZN5kiapi6common5types7Vector28CopyFromERKS2_
libkiapi.so.9.0.1:_ZN5kiapi6common5types7Vector29MergeImplERN6google8protobuf7MessageERKS5_
libkiapi.so.9.0.1:_ZN5kiapi6common5types7Vector2C1EPN6google8protobuf5ArenaE
libkiapi.so.9.0.1:_ZN5kiapi6common5types7Vector2C1EPN6google8protobuf5ArenaERKS2_
libkiapi.so.9.0.1:_ZN5kiapi6common5types7Vector2C2EPN6google8protobuf5ArenaE
libkiapi.so.9.0.1:_ZN5kiapi6common5types7Vector2C2EPN6google8protobuf5ArenaERKS2_
libkiapi.so.9.0.1:_ZN5kiapi6common5types7Vector2D0Ev
libkiapi.so.9.0.1:_ZN5kiapi6common5types7Vector2D1Ev
libkiapi.so.9.0.1:_ZN5kiapi6common5types7Vector2D2Ev
libkiapi.so.9.0.1:_ZN5kiapi6common5types7Vector312InternalSwapEPS2_
libkiapi.so.9.0.1:_ZN5kiapi6common5types7Vector314_InternalParseEPKcPN6google8protobuf8internal12ParseContextE
libkiapi.so.9.0.1:_ZN5kiapi6common5types7Vector35ClearEv
libkiapi.so.9.0.1:_ZN5kiapi6common5types7Vector38CopyFromERKS2_
libkiapi.so.9.0.1:_ZN5kiapi6common5types7Vector39MergeImplERN6google8protobuf7MessageERKS5_
libkiapi.so.9.0.1:_ZN5kiapi6common5types7Vector3C1EPN6google8protobuf5ArenaE
libkiapi.so.9.0.1:_ZN5kiapi6common5types7Vector3C1EPN6google8protobuf5ArenaERKS2_
libkiapi.so.9.0.1:_ZN5kiapi6common5types7Vector3C2EPN6google8protobuf5ArenaE
libkiapi.so.9.0.1:_ZN5kiapi6common5types7Vector3C2EPN6google8protobuf5ArenaERKS2_
libkiapi.so.9.0.1:_ZN5kiapi6common5types7Vector3D0Ev
libkiapi.so.9.0.1:_ZN5kiapi6common5types7Vector3D1Ev
libkiapi.so.9.0.1:_ZN5kiapi6common5types7Vector3D2Ev
libkiapi.so.9.0.1:_ZN5kiapi6common5types8Distance12InternalSwapEPS2_
libkiapi.so.9.0.1:_ZN5kiapi6common5types8Distance14_InternalParseEPKcPN6google8protobuf8internal12ParseContextE
libkiapi.so.9.0.1:_ZN5kiapi6common5types8Distance5ClearEv
libkiapi.so.9.0.1:_ZN5kiapi6common5types8Distance8CopyFromERKS2_
libkiapi.so.9.0.1:_ZN5kiapi6common5types8Distance9MergeImplERN6google8protobuf7MessageERKS5_
libkiapi.so.9.0.1:_ZN5kiapi6common5types8DistanceC1EPN6google8protobuf5ArenaE
libkiapi.so.9.0.1:_ZN5kiapi6common5types8DistanceC1EPN6google8protobuf5ArenaERKS2_
libkiapi.so.9.0.1:_ZN5kiapi6common5types8DistanceC2EPN6google8protobuf5ArenaE
libkiapi.so.9.0.1:_ZN5kiapi6common5types8DistanceC2EPN6google8protobuf5ArenaERKS2_
libkiapi.so.9.0.1:_ZN5kiapi6common5types8DistanceD0Ev
libkiapi.so.9.0.1:_ZN5kiapi6common5types8DistanceD1Ev
libkiapi.so.9.0.1:_ZN5kiapi6common5types8DistanceD2Ev
libkiapi.so.9.0.1:_ZN5kiapi6common5types8PolyLine12InternalSwapEPS2_
libkiapi.so.9.0.1:_ZN5kiapi6common5types8PolyLine14_InternalParseEPKcPN6google8protobuf8internal12ParseContextE
libkiapi.so.9.0.1:_ZN5kiapi6common5types8PolyLine5ClearEv
libkiapi.so.9.0.1:_ZN5kiapi6common5types8PolyLine8CopyFromERKS2_
libkiapi.so.9.0.1:_ZN5kiapi6common5types8PolyLine9MergeImplERN6google8protobuf7MessageERKS5_
libkiapi.so.9.0.1:_ZN5kiapi6common5types8PolyLineC1EPN6google8protobuf5ArenaE
libkiapi.so.9.0.1:_ZN5kiapi6common5types8PolyLineC1EPN6google8protobuf5ArenaERKS2_
libkiapi.so.9.0.1:_ZN5kiapi6common5types8PolyLineC2EPN6google8protobuf5ArenaE
libkiapi.so.9.0.1:_ZN5kiapi6common5types8PolyLineC2EPN6google8protobuf5ArenaERKS2_
libkiapi.so.9.0.1:_ZN5kiapi6common5types8PolyLineD0Ev
libkiapi.so.9.0.1:_ZN5kiapi6common5types8PolyLineD1Ev
libkiapi.so.9.0.1:_ZN5kiapi6common5types8PolyLineD2Ev
libkiapi.so.9.0.1:_ZN5kiapi6common5types8Vector3D12InternalSwapEPS2_
libkiapi.so.9.0.1:_ZN5kiapi6common5types8Vector3D14_InternalParseEPKcPN6google8protobuf8internal12ParseContextE
libkiapi.so.9.0.1:_ZN5kiapi6common5types8Vector3D5ClearEv
libkiapi.so.9.0.1:_ZN5kiapi6common5types8Vector3D8CopyFromERKS2_
libkiapi.so.9.0.1:_ZN5kiapi6common5types8Vector3D9MergeImplERN6google8protobuf7MessageERKS5_
libkiapi.so.9.0.1:_ZN5kiapi6common5types8Vector3DC1EPN6google8protobuf5ArenaE
libkiapi.so.9.0.1:_ZN5kiapi6common5types8Vector3DC1EPN6google8protobuf5ArenaERKS2_
libkiapi.so.9.0.1:_ZN5kiapi6common5types8Vector3DC2EPN6google8protobuf5ArenaE
libkiapi.so.9.0.1:_ZN5kiapi6common5types8Vector3DC2EPN6google8protobuf5ArenaERKS2_
libkiapi.so.9.0.1:_ZN5kiapi6common5types8Vector3DD0Ev
libkiapi.so.9.0.1:_ZN5kiapi6common5types8Vector3DD1Ev
libkiapi.so.9.0.1:_ZN5kiapi6common5types8Vector3DD2Ev
libkiapi.so.9.0.1:_ZN5kiapi6common5types9SheetPath12InternalSwapEPS2_
libkiapi.so.9.0.1:_ZN5kiapi6common5types9SheetPath14_InternalParseEPKcPN6google8protobuf8internal12ParseContextE
libkiapi.so.9.0.1:_ZN5kiapi6common5types9SheetPath5ClearEv
libkiapi.so.9.0.1:_ZN5kiapi6common5types9SheetPath8CopyFromERKS2_
libkiapi.so.9.0.1:_ZN5kiapi6common5types9SheetPath9MergeImplERN6google8protobuf7MessageERKS5_
libkiapi.so.9.0.1:_ZN5kiapi6common5types9SheetPathC1EPN6google8protobuf5ArenaE
libkiapi.so.9.0.1:_ZN5kiapi6common5types9SheetPathC1EPN6google8protobuf5ArenaERKS2_
libkiapi.so.9.0.1:_ZN5kiapi6common5types9SheetPathC2EPN6google8protobuf5ArenaE
libkiapi.so.9.0.1:_ZN5kiapi6common5types9SheetPathC2EPN6google8protobuf5ArenaERKS2_
libkiapi.so.9.0.1:_ZN5kiapi6common5types9SheetPathD0Ev
libkiapi.so.9.0.1:_ZN5kiapi6common5types9SheetPathD1Ev
libkiapi.so.9.0.1:_ZN5kiapi6common5types9SheetPathD2Ev
libkiapi.so.9.0.1:_ZN5kiapi6common7project13TextVariables12InternalSwapEPS2_
libkiapi.so.9.0.1:_ZN5kiapi6common7project13TextVariables14_InternalParseEPKcPN6google8protobuf8internal12ParseContextE
libkiapi.so.9.0.1:_ZN5kiapi6common7project13TextVariables5ClearEv
libkiapi.so.9.0.1:_ZN5kiapi6common7project13TextVariables8CopyFromERKS2_
libkiapi.so.9.0.1:_ZN5kiapi6common7project13TextVariables9MergeImplERN6google8protobuf7MessageERKS5_
libkiapi.so.9.0.1:_ZN5kiapi6common7project13TextVariablesC1EPN6google8protobuf5ArenaE
libkiapi.so.9.0.1:_ZN5kiapi6common7project13TextVariablesC1EPN6google8protobuf5ArenaERKS2_
libkiapi.so.9.0.1:_ZN5kiapi6common7project13TextVariablesC2EPN6google8protobuf5ArenaE
libkiapi.so.9.0.1:_ZN5kiapi6common7project13TextVariablesC2EPN6google8protobuf5ArenaERKS2_
libkiapi.so.9.0.1:_ZN5kiapi6common7project13TextVariablesD0Ev
libkiapi.so.9.0.1:_ZN5kiapi6common7project13TextVariablesD1Ev
libkiapi.so.9.0.1:_ZN5kiapi6common7project13TextVariablesD2Ev
libkiapi.so.9.0.1:_ZN5kiapi6common7project20NetClassType_IsValidEi
libkiapi.so.9.0.1:_ZN5kiapi6common7project21NetClassBoardSettings11clear_colorEv
libkiapi.so.9.0.1:_ZN5kiapi6common7project21NetClassBoardSettings12InternalSwapEPS2_
libkiapi.so.9.0.1:_ZN5kiapi6common7project21NetClassBoardSettings14_InternalParseEPKcPN6google8protobuf8internal12ParseContextE
libkiapi.so.9.0.1:_ZN5kiapi6common7project21NetClassBoardSettings15clear_clearanceEv
libkiapi.so.9.0.1:_ZN5kiapi6common7project21NetClassBoardSettings15clear_via_stackEv
libkiapi.so.9.0.1:_ZN5kiapi6common7project21NetClassBoardSettings17clear_track_widthEv
libkiapi.so.9.0.1:_ZN5kiapi6common7project21NetClassBoardSettings19clear_diff_pair_gapEv
libkiapi.so.9.0.1:_ZN5kiapi6common7project21NetClassBoardSettings20clear_microvia_stackEv
libkiapi.so.9.0.1:_ZN5kiapi6common7project21NetClassBoardSettings23clear_diff_pair_via_gapEv
libkiapi.so.9.0.1:_ZN5kiapi6common7project21NetClassBoardSettings27clear_diff_pair_track_widthEv
libkiapi.so.9.0.1:_ZN5kiapi6common7project21NetClassBoardSettings5ClearEv
libkiapi.so.9.0.1:_ZN5kiapi6common7project21NetClassBoardSettings8CopyFromERKS2_
libkiapi.so.9.0.1:_ZN5kiapi6common7project21NetClassBoardSettings9MergeImplERN6google8protobuf7MessageERKS5_
libkiapi.so.9.0.1:_ZN5kiapi6common7project21NetClassBoardSettings9_Internal11track_widthEPKS2_
libkiapi.so.9.0.1:_ZN5kiapi6common7project21NetClassBoardSettings9_Internal13diff_pair_gapEPKS2_
libkiapi.so.9.0.1:_ZN5kiapi6common7project21NetClassBoardSettings9_Internal14microvia_stackEPKS2_
libkiapi.so.9.0.1:_ZN5kiapi6common7project21NetClassBoardSettings9_Internal17diff_pair_via_gapEPKS2_
libkiapi.so.9.0.1:_ZN5kiapi6common7project21NetClassBoardSettings9_Internal21diff_pair_track_widthEPKS2_
libkiapi.so.9.0.1:_ZN5kiapi6common7project21NetClassBoardSettings9_Internal5colorEPKS2_
libkiapi.so.9.0.1:_ZN5kiapi6common7project21NetClassBoardSettings9_Internal9clearanceEPKS2_
libkiapi.so.9.0.1:_ZN5kiapi6common7project21NetClassBoardSettings9_Internal9via_stackEPKS2_
libkiapi.so.9.0.1:_ZN5kiapi6common7project21NetClassBoardSettingsC1EPN6google8protobuf5ArenaE
libkiapi.so.9.0.1:_ZN5kiapi6common7project21NetClassBoardSettingsC1EPN6google8protobuf5ArenaERKS2_
libkiapi.so.9.0.1:_ZN5kiapi6common7project21NetClassBoardSettingsC2EPN6google8protobuf5ArenaE
libkiapi.so.9.0.1:_ZN5kiapi6common7project21NetClassBoardSettingsC2EPN6google8protobuf5ArenaERKS2_
libkiapi.so.9.0.1:_ZN5kiapi6common7project21NetClassBoardSettingsD0Ev
libkiapi.so.9.0.1:_ZN5kiapi6common7project21NetClassBoardSettingsD1Ev
libkiapi.so.9.0.1:_ZN5kiapi6common7project21NetClassBoardSettingsD2Ev
libkiapi.so.9.0.1:_ZN5kiapi6common7project23NetClassType_descriptorEv
libkiapi.so.9.0.1:_ZN5kiapi6common7project25NetClassSchematicSettings11clear_colorEv
libkiapi.so.9.0.1:_ZN5kiapi6common7project25NetClassSchematicSettings12InternalSwapEPS2_
libkiapi.so.9.0.1:_ZN5kiapi6common7project25NetClassSchematicSettings14_InternalParseEPKcPN6google8protobuf8internal12ParseContextE
libkiapi.so.9.0.1:_ZN5kiapi6common7project25NetClassSchematicSettings15clear_bus_widthEv
libkiapi.so.9.0.1:_ZN5kiapi6common7project25NetClassSchematicSettings16clear_wire_widthEv
libkiapi.so.9.0.1:_ZN5kiapi6common7project25NetClassSchematicSettings5ClearEv
libkiapi.so.9.0.1:_ZN5kiapi6common7project25NetClassSchematicSettings8CopyFromERKS2_
libkiapi.so.9.0.1:_ZN5kiapi6common7project25NetClassSchematicSettings9MergeImplERN6google8protobuf7MessageERKS5_
libkiapi.so.9.0.1:_ZN5kiapi6common7project25NetClassSchematicSettings9_Internal10wire_widthEPKS2_
libkiapi.so.9.0.1:_ZN5kiapi6common7project25NetClassSchematicSettings9_Internal5colorEPKS2_
libkiapi.so.9.0.1:_ZN5kiapi6common7project25NetClassSchematicSettings9_Internal9bus_widthEPKS2_
libkiapi.so.9.0.1:_ZN5kiapi6common7project25NetClassSchematicSettingsC1EPN6google8protobuf5ArenaE
libkiapi.so.9.0.1:_ZN5kiapi6common7project25NetClassSchematicSettingsC1EPN6google8protobuf5ArenaERKS2_
libkiapi.so.9.0.1:_ZN5kiapi6common7project25NetClassSchematicSettingsC2EPN6google8protobuf5ArenaE
libkiapi.so.9.0.1:_ZN5kiapi6common7project25NetClassSchematicSettingsC2EPN6google8protobuf5ArenaERKS2_
libkiapi.so.9.0.1:_ZN5kiapi6common7project25NetClassSchematicSettingsD0Ev
libkiapi.so.9.0.1:_ZN5kiapi6common7project25NetClassSchematicSettingsD1Ev
libkiapi.so.9.0.1:_ZN5kiapi6common7project25NetClassSchematicSettingsD2Ev
libkiapi.so.9.0.1:_ZN5kiapi6common7project8NetClass12InternalSwapEPS2_
libkiapi.so.9.0.1:_ZN5kiapi6common7project8NetClass14_InternalParseEPKcPN6google8protobuf8internal12ParseContextE
libkiapi.so.9.0.1:_ZN5kiapi6common7project8NetClass5ClearEv
libkiapi.so.9.0.1:_ZN5kiapi6common7project8NetClass8CopyFromERKS2_
libkiapi.so.9.0.1:_ZN5kiapi6common7project8NetClass9MergeImplERN6google8protobuf7MessageERKS5_
libkiapi.so.9.0.1:_ZN5kiapi6common7project8NetClass9_Internal5boardEPKS2_
libkiapi.so.9.0.1:_ZN5kiapi6common7project8NetClass9_Internal9schematicEPKS2_
libkiapi.so.9.0.1:_ZN5kiapi6common7project8NetClassC1EPN6google8protobuf5ArenaE
libkiapi.so.9.0.1:_ZN5kiapi6common7project8NetClassC1EPN6google8protobuf5ArenaERKS2_
libkiapi.so.9.0.1:_ZN5kiapi6common7project8NetClassC2EPN6google8protobuf5ArenaE
libkiapi.so.9.0.1:_ZN5kiapi6common7project8NetClassC2EPN6google8protobuf5ArenaERKS2_
libkiapi.so.9.0.1:_ZN5kiapi6common7project8NetClassD0Ev
libkiapi.so.9.0.1:_ZN5kiapi6common7project8NetClassD1Ev
libkiapi.so.9.0.1:_ZN5kiapi6common7project8NetClassD2Ev
libkiapi.so.9.0.1:_ZN5kiapi6common8commands10GetVersionC1EPN6google8protobuf5ArenaE
libkiapi.so.9.0.1:_ZN5kiapi6common8commands10GetVersionC1EPN6google8protobuf5ArenaERKS2_
libkiapi.so.9.0.1:_ZN5kiapi6common8commands10GetVersionC2EPN6google8protobuf5ArenaE
libkiapi.so.9.0.1:_ZN5kiapi6common8commands10GetVersionC2EPN6google8protobuf5ArenaERKS2_
libkiapi.so.9.0.1:_ZN5kiapi6common8commands10ItemStatus12InternalSwapEPS2_
libkiapi.so.9.0.1:_ZN5kiapi6common8commands10ItemStatus14_InternalParseEPKcPN6google8protobuf8internal12ParseContextE
libkiapi.so.9.0.1:_ZN5kiapi6common8commands10ItemStatus5ClearEv
libkiapi.so.9.0.1:_ZN5kiapi6common8commands10ItemStatus8CopyFromERKS2_
libkiapi.so.9.0.1:_ZN5kiapi6common8commands10ItemStatus9MergeImplERN6google8protobuf7MessageERKS5_
libkiapi.so.9.0.1:_ZN5kiapi6common8commands10ItemStatusC1EPN6google8protobuf5ArenaE
libkiapi.so.9.0.1:_ZN5kiapi6common8commands10ItemStatusC1EPN6google8protobuf5ArenaERKS2_
libkiapi.so.9.0.1:_ZN5kiapi6common8commands10ItemStatusC2EPN6google8protobuf5ArenaE
libkiapi.so.9.0.1:_ZN5kiapi6common8commands10ItemStatusC2EPN6google8protobuf5ArenaERKS2_
libkiapi.so.9.0.1:_ZN5kiapi6common8commands10ItemStatusD0Ev
libkiapi.so.9.0.1:_ZN5kiapi6common8commands10ItemStatusD1Ev
libkiapi.so.9.0.1:_ZN5kiapi6common8commands10ItemStatusD2Ev
libkiapi.so.9.0.1:_ZN5kiapi6common8commands11BeginCommitC1EPN6google8protobuf5ArenaE
libkiapi.so.9.0.1:_ZN5kiapi6common8commands11BeginCommitC1EPN6google8protobuf5ArenaERKS2_
libkiapi.so.9.0.1:_ZN5kiapi6common8commands11BeginCommitC2EPN6google8protobuf5ArenaE
libkiapi.so.9.0.1:_ZN5kiapi6common8commands11BeginCommitC2EPN6google8protobuf5ArenaERKS2_
libkiapi.so.9.0.1:_ZN5kiapi6common8commands11CreateItems11clear_itemsEv
libkiapi.so.9.0.1:_ZN5kiapi6common8commands11CreateItems12InternalSwapEPS2_
libkiapi.so.9.0.1:_ZN5kiapi6common8commands11CreateItems12clear_headerEv
libkiapi.so.9.0.1:_ZN5kiapi6common8commands11CreateItems14_InternalParseEPKcPN6google8protobuf8internal12ParseContextE
libkiapi.so.9.0.1:_ZN5kiapi6common8commands11CreateItems15clear_containerEv
libkiapi.so.9.0.1:_ZN5kiapi6common8commands11CreateItems5ClearEv
libkiapi.so.9.0.1:_ZN5kiapi6common8commands11CreateItems8CopyFromERKS2_
libkiapi.so.9.0.1:_ZN5kiapi6common8commands11CreateItems9MergeImplERN6google8protobuf7MessageERKS5_
libkiapi.so.9.0.1:_ZN5kiapi6common8commands11CreateItems9_Internal6headerEPKS2_
libkiapi.so.9.0.1:_ZN5kiapi6common8commands11CreateItems9_Internal9containerEPKS2_
libkiapi.so.9.0.1:_ZN5kiapi6common8commands11CreateItemsC1EPN6google8protobuf5ArenaE
libkiapi.so.9.0.1:_ZN5kiapi6common8commands11CreateItemsC1EPN6google8protobuf5ArenaERKS2_
libkiapi.so.9.0.1:_ZN5kiapi6common8commands11CreateItemsC2EPN6google8protobuf5ArenaE
libkiapi.so.9.0.1:_ZN5kiapi6common8commands11CreateItemsC2EPN6google8protobuf5ArenaERKS2_
libkiapi.so.9.0.1:_ZN5kiapi6common8commands11CreateItemsD0Ev
libkiapi.so.9.0.1:_ZN5kiapi6common8commands11CreateItemsD1Ev
libkiapi.so.9.0.1:_ZN5kiapi6common8commands11CreateItemsD2Ev
libkiapi.so.9.0.1:_ZN5kiapi6common8commands11DeleteItems12InternalSwapEPS2_
libkiapi.so.9.0.1:_ZN5kiapi6common8commands11DeleteItems12clear_headerEv
libkiapi.so.9.0.1:_ZN5kiapi6common8commands11DeleteItems14_InternalParseEPKcPN6google8protobuf8internal12ParseContextE
libkiapi.so.9.0.1:_ZN5kiapi6common8commands11DeleteItems14clear_item_idsEv
libkiapi.so.9.0.1:_ZN5kiapi6common8commands11DeleteItems5ClearEv
libkiapi.so.9.0.1:_ZN5kiapi6common8commands11DeleteItems8CopyFromERKS2_
libkiapi.so.9.0.1:_ZN5kiapi6common8commands11DeleteItems9MergeImplERN6google8protobuf7MessageERKS5_
libkiapi.so.9.0.1:_ZN5kiapi6common8commands11DeleteItems9_Internal6headerEPKS2_
libkiapi.so.9.0.1:_ZN5kiapi6common8commands11DeleteItemsC1EPN6google8protobuf5ArenaE
libkiapi.so.9.0.1:_ZN5kiapi6common8commands11DeleteItemsC1EPN6google8protobuf5ArenaERKS2_
libkiapi.so.9.0.1:_ZN5kiapi6common8commands11DeleteItemsC2EPN6google8protobuf5ArenaE
libkiapi.so.9.0.1:_ZN5kiapi6common8commands11DeleteItemsC2EPN6google8protobuf5ArenaERKS2_
libkiapi.so.9.0.1:_ZN5kiapi6common8commands11DeleteItemsD0Ev
libkiapi.so.9.0.1:_ZN5kiapi6common8commands11DeleteItemsD1Ev
libkiapi.so.9.0.1:_ZN5kiapi6common8commands11DeleteItemsD2Ev
libkiapi.so.9.0.1:_ZN5kiapi6common8commands11SaveOptions12InternalSwapEPS2_
libkiapi.so.9.0.1:_ZN5kiapi6common8commands11SaveOptions14_InternalParseEPKcPN6google8protobuf8internal12ParseContextE
libkiapi.so.9.0.1:_ZN5kiapi6common8commands11SaveOptions5ClearEv
libkiapi.so.9.0.1:_ZN5kiapi6common8commands11SaveOptions8CopyFromERKS2_
libkiapi.so.9.0.1:_ZN5kiapi6common8commands11SaveOptions9MergeImplERN6google8protobuf7MessageERKS5_
libkiapi.so.9.0.1:_ZN5kiapi6common8commands11SaveOptionsC1EPN6google8protobuf5ArenaE
libkiapi.so.9.0.1:_ZN5kiapi6common8commands11SaveOptionsC1EPN6google8protobuf5ArenaERKS2_
libkiapi.so.9.0.1:_ZN5kiapi6common8commands11SaveOptionsC2EPN6google8protobuf5ArenaE
libkiapi.so.9.0.1:_ZN5kiapi6common8commands11SaveOptionsC2EPN6google8protobuf5ArenaERKS2_
libkiapi.so.9.0.1:_ZN5kiapi6common8commands11SaveOptionsD0Ev
libkiapi.so.9.0.1:_ZN5kiapi6common8commands11SaveOptionsD1Ev
libkiapi.so.9.0.1:_ZN5kiapi6common8commands11SaveOptionsD2Ev
libkiapi.so.9.0.1:_ZN5kiapi6common8commands11UpdateItems11clear_itemsEv
libkiapi.so.9.0.1:_ZN5kiapi6common8commands11UpdateItems12InternalSwapEPS2_
libkiapi.so.9.0.1:_ZN5kiapi6common8commands11UpdateItems12clear_headerEv
libkiapi.so.9.0.1:_ZN5kiapi6common8commands11UpdateItems14_InternalParseEPKcPN6google8protobuf8internal12ParseContextE
libkiapi.so.9.0.1:_ZN5kiapi6common8commands11UpdateItems5ClearEv
libkiapi.so.9.0.1:_ZN5kiapi6common8commands11UpdateItems8CopyFromERKS2_
libkiapi.so.9.0.1:_ZN5kiapi6common8commands11UpdateItems9MergeImplERN6google8protobuf7MessageERKS5_
libkiapi.so.9.0.1:_ZN5kiapi6common8commands11UpdateItems9_Internal6headerEPKS2_
libkiapi.so.9.0.1:_ZN5kiapi6common8commands11UpdateItemsC1EPN6google8protobuf5ArenaE
libkiapi.so.9.0.1:_ZN5kiapi6common8commands11UpdateItemsC1EPN6google8protobuf5ArenaERKS2_
libkiapi.so.9.0.1:_ZN5kiapi6common8commands11UpdateItemsC2EPN6google8protobuf5ArenaE
libkiapi.so.9.0.1:_ZN5kiapi6common8commands11UpdateItemsC2EPN6google8protobuf5ArenaERKS2_
libkiapi.so.9.0.1:_ZN5kiapi6common8commands11UpdateItemsD0Ev
libkiapi.so.9.0.1:_ZN5kiapi6common8commands11UpdateItemsD1Ev
libkiapi.so.9.0.1:_ZN5kiapi6common8commands11UpdateItemsD2Ev
libkiapi.so.9.0.1:_ZN5kiapi6common8commands12GetSelection12InternalSwapEPS2_
libkiapi.so.9.0.1:_ZN5kiapi6common8commands12GetSelection12clear_headerEv
libkiapi.so.9.0.1:_ZN5kiapi6common8commands12GetSelection14_InternalParseEPKcPN6google8protobuf8internal12ParseContextE
libkiapi.so.9.0.1:_ZN5kiapi6common8commands12GetSelection5ClearEv
libkiapi.so.9.0.1:_ZN5kiapi6common8commands12GetSelection8CopyFromERKS2_
libkiapi.so.9.0.1:_ZN5kiapi6common8commands12GetSelection9MergeImplERN6google8protobuf7MessageERKS5_
libkiapi.so.9.0.1:_ZN5kiapi6common8commands12GetSelection9_Internal6headerEPKS2_
libkiapi.so.9.0.1:_ZN5kiapi6common8commands12GetSelectionC1EPN6google8protobuf5ArenaE
libkiapi.so.9.0.1:_ZN5kiapi6common8commands12GetSelectionC1EPN6google8protobuf5ArenaERKS2_
libkiapi.so.9.0.1:_ZN5kiapi6common8commands12GetSelectionC2EPN6google8protobuf5ArenaE
libkiapi.so.9.0.1:_ZN5kiapi6common8commands12GetSelectionC2EPN6google8protobuf5ArenaERKS2_
libkiapi.so.9.0.1:_ZN5kiapi6common8commands12GetSelectionD0Ev
libkiapi.so.9.0.1:_ZN5kiapi6common8commands12GetSelectionD1Ev
libkiapi.so.9.0.1:_ZN5kiapi6common8commands12GetSelectionD2Ev
libkiapi.so.9.0.1:_ZN5kiapi6common8commands12PathResponse12InternalSwapEPS2_
libkiapi.so.9.0.1:_ZN5kiapi6common8commands12PathResponse14_InternalParseEPKcPN6google8protobuf8internal12ParseContextE
libkiapi.so.9.0.1:_ZN5kiapi6common8commands12PathResponse5ClearEv
libkiapi.so.9.0.1:_ZN5kiapi6common8commands12PathResponse8CopyFromERKS2_
libkiapi.so.9.0.1:_ZN5kiapi6common8commands12PathResponse9MergeImplERN6google8protobuf7MessageERKS5_
libkiapi.so.9.0.1:_ZN5kiapi6common8commands12PathResponseC1EPN6google8protobuf5ArenaE
libkiapi.so.9.0.1:_ZN5kiapi6common8commands12PathResponseC1EPN6google8protobuf5ArenaERKS2_
libkiapi.so.9.0.1:_ZN5kiapi6common8commands12PathResponseC2EPN6google8protobuf5ArenaE
libkiapi.so.9.0.1:_ZN5kiapi6common8commands12PathResponseC2EPN6google8protobuf5ArenaERKS2_
libkiapi.so.9.0.1:_ZN5kiapi6common8commands12PathResponseD0Ev
libkiapi.so.9.0.1:_ZN5kiapi6common8commands12PathResponseD1Ev
libkiapi.so.9.0.1:_ZN5kiapi6common8commands12PathResponseD2Ev
libkiapi.so.9.0.1:_ZN5kiapi6common8commands12SaveDocument12InternalSwapEPS2_
libkiapi.so.9.0.1:_ZN5kiapi6common8commands12SaveDocument14_InternalParseEPKcPN6google8protobuf8internal12ParseContextE
libkiapi.so.9.0.1:_ZN5kiapi6common8commands12SaveDocument14clear_documentEv
libkiapi.so.9.0.1:_ZN5kiapi6common8commands12SaveDocument5ClearEv
libkiapi.so.9.0.1:_ZN5kiapi6common8commands12SaveDocument8CopyFromERKS2_
libkiapi.so.9.0.1:_ZN5kiapi6common8commands12SaveDocument9MergeImplERN6google8protobuf7MessageERKS5_
libkiapi.so.9.0.1:_ZN5kiapi6common8commands12SaveDocument9_Internal8documentEPKS2_
libkiapi.so.9.0.1:_ZN5kiapi6common8commands12SaveDocumentC1EPN6google8protobuf5ArenaE
libkiapi.so.9.0.1:_ZN5kiapi6common8commands12SaveDocumentC1EPN6google8protobuf5ArenaERKS2_
libkiapi.so.9.0.1:_ZN5kiapi6common8commands12SaveDocumentC2EPN6google8protobuf5ArenaE
libkiapi.so.9.0.1:_ZN5kiapi6common8commands12SaveDocumentC2EPN6google8protobuf5ArenaERKS2_
libkiapi.so.9.0.1:_ZN5kiapi6common8commands12SaveDocumentD0Ev
libkiapi.so.9.0.1:_ZN5kiapi6common8commands12SaveDocumentD1Ev
libkiapi.so.9.0.1:_ZN5kiapi6common8commands12SaveDocumentD2Ev
libkiapi.so.9.0.1:_ZN5kiapi6common8commands13GetNetClassesC1EPN6google8protobuf5ArenaE
libkiapi.so.9.0.1:_ZN5kiapi6common8commands13GetNetClassesC1EPN6google8protobuf5ArenaERKS2_
libkiapi.so.9.0.1:_ZN5kiapi6common8commands13GetNetClassesC2EPN6google8protobuf5ArenaE
libkiapi.so.9.0.1:_ZN5kiapi6common8commands13GetNetClassesC2EPN6google8protobuf5ArenaERKS2_
libkiapi.so.9.0.1:_ZN5kiapi6common8commands13RefreshEditor12InternalSwapEPS2_
libkiapi.so.9.0.1:_ZN5kiapi6common8commands13RefreshEditor14_InternalParseEPKcPN6google8protobuf8internal12ParseContextE
libkiapi.so.9.0.1:_ZN5kiapi6common8commands13RefreshEditor5ClearEv
libkiapi.so.9.0.1:_ZN5kiapi6common8commands13RefreshEditor8CopyFromERKS2_
libkiapi.so.9.0.1:_ZN5kiapi6common8commands13RefreshEditor9MergeImplERN6google8protobuf7MessageERKS5_
libkiapi.so.9.0.1:_ZN5kiapi6common8commands13RefreshEditorC1EPN6google8protobuf5ArenaE
libkiapi.so.9.0.1:_ZN5kiapi6common8commands13RefreshEditorC1EPN6google8protobuf5ArenaERKS2_
libkiapi.so.9.0.1:_ZN5kiapi6common8commands13RefreshEditorC2EPN6google8protobuf5ArenaE
libkiapi.so.9.0.1:_ZN5kiapi6common8commands13RefreshEditorC2EPN6google8protobuf5ArenaERKS2_
libkiapi.so.9.0.1:_ZN5kiapi6common8commands13RefreshEditorD0Ev
libkiapi.so.9.0.1:_ZN5kiapi6common8commands13RefreshEditorD1Ev
libkiapi.so.9.0.1:_ZN5kiapi6common8commands13RefreshEditorD2Ev
libkiapi.so.9.0.1:_ZN5kiapi6common8commands13SetNetClasses12InternalSwapEPS2_
libkiapi.so.9.0.1:_ZN5kiapi6common8commands13SetNetClasses14_InternalParseEPKcPN6google8protobuf8internal12ParseContextE
libkiapi.so.9.0.1:_ZN5kiapi6common8commands13SetNetClasses17clear_net_classesEv
libkiapi.so.9.0.1:_ZN5kiapi6common8commands13SetNetClasses5ClearEv
libkiapi.so.9.0.1:_ZN5kiapi6common8commands13SetNetClasses8CopyFromERKS2_
libkiapi.so.9.0.1:_ZN5kiapi6common8commands13SetNetClasses9MergeImplERN6google8protobuf7MessageERKS5_
libkiapi.so.9.0.1:_ZN5kiapi6common8commands13SetNetClassesC1EPN6google8protobuf5ArenaE
libkiapi.so.9.0.1:_ZN5kiapi6common8commands13SetNetClassesC1EPN6google8protobuf5ArenaERKS2_
libkiapi.so.9.0.1:_ZN5kiapi6common8commands13SetNetClassesC2EPN6google8protobuf5ArenaE
libkiapi.so.9.0.1:_ZN5kiapi6common8commands13SetNetClassesC2EPN6google8protobuf5ArenaERKS2_
libkiapi.so.9.0.1:_ZN5kiapi6common8commands13SetNetClassesD0Ev
libkiapi.so.9.0.1:_ZN5kiapi6common8commands13SetNetClassesD1Ev
libkiapi.so.9.0.1:_ZN5kiapi6common8commands13SetNetClassesD2Ev
libkiapi.so.9.0.1:_ZN5kiapi6common8commands13TextOrTextBox10clear_textEv
libkiapi.so.9.0.1:_ZN5kiapi6common8commands13TextOrTextBox11clear_innerEv
libkiapi.so.9.0.1:_ZN5kiapi6common8commands13TextOrTextBox12InternalSwapEPS2_
libkiapi.so.9.0.1:_ZN5kiapi6common8commands13TextOrTextBox13clear_textboxEv
libkiapi.so.9.0.1:_ZN5kiapi6common8commands13TextOrTextBox14_InternalParseEPKcPN6google8protobuf8internal12ParseContextE
libkiapi.so.9.0.1:_ZN5kiapi6common8commands13TextOrTextBox18set_allocated_textEPNS0_5types4TextE
libkiapi.so.9.0.1:_ZN5kiapi6common8commands13TextOrTextBox21set_allocated_textboxEPNS0_5types7TextBoxE
libkiapi.so.9.0.1:_ZN5kiapi6common8commands13TextOrTextBox5ClearEv
libkiapi.so.9.0.1:_ZN5kiapi6common8commands13TextOrTextBox8CopyFromERKS2_
libkiapi.so.9.0.1:_ZN5kiapi6common8commands13TextOrTextBox9MergeImplERN6google8protobuf7MessageERKS5_
libkiapi.so.9.0.1:_ZN5kiapi6common8commands13TextOrTextBox9_Internal4textEPKS2_
libkiapi.so.9.0.1:_ZN5kiapi6common8commands13TextOrTextBox9_Internal7textboxEPKS2_
libkiapi.so.9.0.1:_ZN5kiapi6common8commands13TextOrTextBoxC1EPN6google8protobuf5ArenaE
libkiapi.so.9.0.1:_ZN5kiapi6common8commands13TextOrTextBoxC1EPN6google8protobuf5ArenaERKS2_
libkiapi.so.9.0.1:_ZN5kiapi6common8commands13TextOrTextBoxC2EPN6google8protobuf5ArenaE
libkiapi.so.9.0.1:_ZN5kiapi6common8commands13TextOrTextBoxC2EPN6google8protobuf5ArenaERKS2_
libkiapi.so.9.0.1:_ZN5kiapi6common8commands13TextOrTextBoxD0Ev
libkiapi.so.9.0.1:_ZN5kiapi6common8commands13TextOrTextBoxD1Ev
libkiapi.so.9.0.1:_ZN5kiapi6common8commands13TextOrTextBoxD2Ev
libkiapi.so.9.0.1:_ZN5kiapi6common8commands14AddToSelection11clear_itemsEv
libkiapi.so.9.0.1:_ZN5kiapi6common8commands14AddToSelection12InternalSwapEPS2_
libkiapi.so.9.0.1:_ZN5kiapi6common8commands14AddToSelection12clear_headerEv
libkiapi.so.9.0.1:_ZN5kiapi6common8commands14AddToSelection14_InternalParseEPKcPN6google8protobuf8internal12ParseContextE
libkiapi.so.9.0.1:_ZN5kiapi6common8commands14AddToSelection5ClearEv
libkiapi.so.9.0.1:_ZN5kiapi6common8commands14AddToSelection8CopyFromERKS2_
libkiapi.so.9.0.1:_ZN5kiapi6common8commands14AddToSelection9MergeImplERN6google8protobuf7MessageERKS5_
libkiapi.so.9.0.1:_ZN5kiapi6common8commands14AddToSelection9_Internal6headerEPKS2_
libkiapi.so.9.0.1:_ZN5kiapi6common8commands14AddToSelectionC1EPN6google8protobuf5ArenaE
libkiapi.so.9.0.1:_ZN5kiapi6common8commands14AddToSelectionC1EPN6google8protobuf5ArenaERKS2_
libkiapi.so.9.0.1:_ZN5kiapi6common8commands14AddToSelectionC2EPN6google8protobuf5ArenaE
libkiapi.so.9.0.1:_ZN5kiapi6common8commands14AddToSelectionC2EPN6google8protobuf5ArenaERKS2_
libkiapi.so.9.0.1:_ZN5kiapi6common8commands14AddToSelectionD0Ev
libkiapi.so.9.0.1:_ZN5kiapi6common8commands14AddToSelectionD1Ev
libkiapi.so.9.0.1:_ZN5kiapi6common8commands14AddToSelectionD2Ev
libkiapi.so.9.0.1:_ZN5kiapi6common8commands14ClearSelection12InternalSwapEPS2_
libkiapi.so.9.0.1:_ZN5kiapi6common8commands14ClearSelection12clear_headerEv
libkiapi.so.9.0.1:_ZN5kiapi6common8commands14ClearSelection14_InternalParseEPKcPN6google8protobuf8internal12ParseContextE
libkiapi.so.9.0.1:_ZN5kiapi6common8commands14ClearSelection5ClearEv
libkiapi.so.9.0.1:_ZN5kiapi6common8commands14ClearSelection8CopyFromERKS2_
libkiapi.so.9.0.1:_ZN5kiapi6common8commands14ClearSelection9MergeImplERN6google8protobuf7MessageERKS5_
libkiapi.so.9.0.1:_ZN5kiapi6common8commands14ClearSelection9_Internal6headerEPKS2_
libkiapi.so.9.0.1:_ZN5kiapi6common8commands14ClearSelectionC1EPN6google8protobuf5ArenaE
libkiapi.so.9.0.1:_ZN5kiapi6common8commands14ClearSelectionC1EPN6google8protobuf5ArenaERKS2_
libkiapi.so.9.0.1:_ZN5kiapi6common8commands14ClearSelectionC2EPN6google8protobuf5ArenaE
libkiapi.so.9.0.1:_ZN5kiapi6common8commands14ClearSelectionC2EPN6google8protobuf5ArenaERKS2_
libkiapi.so.9.0.1:_ZN5kiapi6common8commands14ClearSelectionD0Ev
libkiapi.so.9.0.1:_ZN5kiapi6common8commands14ClearSelectionD1Ev
libkiapi.so.9.0.1:_ZN5kiapi6common8commands14ClearSelectionD2Ev
libkiapi.so.9.0.1:_ZN5kiapi6common8commands14GetBoundingBox11clear_itemsEv
libkiapi.so.9.0.1:_ZN5kiapi6common8commands14GetBoundingBox12InternalSwapEPS2_
libkiapi.so.9.0.1:_ZN5kiapi6common8commands14GetBoundingBox12clear_headerEv
libkiapi.so.9.0.1:_ZN5kiapi6common8commands14GetBoundingBox14_InternalParseEPKcPN6google8protobuf8internal12ParseContextE
libkiapi.so.9.0.1:_ZN5kiapi6common8commands14GetBoundingBox5ClearEv
libkiapi.so.9.0.1:_ZN5kiapi6common8commands14GetBoundingBox8CopyFromERKS2_
libkiapi.so.9.0.1:_ZN5kiapi6common8commands14GetBoundingBox9MergeImplERN6google8protobuf7MessageERKS5_
libkiapi.so.9.0.1:_ZN5kiapi6common8commands14GetBoundingBox9_Internal6headerEPKS2_
libkiapi.so.9.0.1:_ZN5kiapi6common8commands14GetBoundingBoxC1EPN6google8protobuf5ArenaE
libkiapi.so.9.0.1:_ZN5kiapi6common8commands14GetBoundingBoxC1EPN6google8protobuf5ArenaERKS2_
libkiapi.so.9.0.1:_ZN5kiapi6common8commands14GetBoundingBoxC2EPN6google8protobuf5ArenaE
libkiapi.so.9.0.1:_ZN5kiapi6common8commands14GetBoundingBoxC2EPN6google8protobuf5ArenaERKS2_
libkiapi.so.9.0.1:_ZN5kiapi6common8commands14GetBoundingBoxD0Ev
libkiapi.so.9.0.1:_ZN5kiapi6common8commands14GetBoundingBoxD1Ev
libkiapi.so.9.0.1:_ZN5kiapi6common8commands14GetBoundingBoxD2Ev
libkiapi.so.9.0.1:_ZN5kiapi6common8commands14GetTextExtents10clear_textEv
libkiapi.so.9.0.1:_ZN5kiapi6common8commands14GetTextExtents12InternalSwapEPS2_
libkiapi.so.9.0.1:_ZN5kiapi6common8commands14GetTextExtents14_InternalParseEPKcPN6google8protobuf8internal12ParseContextE
libkiapi.so.9.0.1:_ZN5kiapi6common8commands14GetTextExtents5ClearEv
libkiapi.so.9.0.1:_ZN5kiapi6common8commands14GetTextExtents8CopyFromERKS2_
libkiapi.so.9.0.1:_ZN5kiapi6common8commands14GetTextExtents9MergeImplERN6google8protobuf7MessageERKS5_
libkiapi.so.9.0.1:_ZN5kiapi6common8commands14GetTextExtents9_Internal4textEPKS2_
libkiapi.so.9.0.1:_ZN5kiapi6common8commands14GetTextExtentsC1EPN6google8protobuf5ArenaE
libkiapi.so.9.0.1:_ZN5kiapi6common8commands14GetTextExtentsC1EPN6google8protobuf5ArenaERKS2_
libkiapi.so.9.0.1:_ZN5kiapi6common8commands14GetTextExtentsC2EPN6google8protobuf5ArenaE
libkiapi.so.9.0.1:_ZN5kiapi6common8commands14GetTextExtentsC2EPN6google8protobuf5ArenaERKS2_
libkiapi.so.9.0.1:_ZN5kiapi6common8commands14GetTextExtentsD0Ev
libkiapi.so.9.0.1:_ZN5kiapi6common8commands14GetTextExtentsD1Ev
libkiapi.so.9.0.1:_ZN5kiapi6common8commands14GetTextExtentsD2Ev
libkiapi.so.9.0.1:_ZN5kiapi6common8commands14RevertDocument12InternalSwapEPS2_
libkiapi.so.9.0.1:_ZN5kiapi6common8commands14RevertDocument14_InternalParseEPKcPN6google8protobuf8internal12ParseContextE
libkiapi.so.9.0.1:_ZN5kiapi6common8commands14RevertDocument14clear_documentEv
libkiapi.so.9.0.1:_ZN5kiapi6common8commands14RevertDocument5ClearEv
libkiapi.so.9.0.1:_ZN5kiapi6common8commands14RevertDocument8CopyFromERKS2_
libkiapi.so.9.0.1:_ZN5kiapi6common8commands14RevertDocument9MergeImplERN6google8protobuf7MessageERKS5_
libkiapi.so.9.0.1:_ZN5kiapi6common8commands14RevertDocument9_Internal8documentEPKS2_
libkiapi.so.9.0.1:_ZN5kiapi6common8commands14RevertDocumentC1EPN6google8protobuf5ArenaE
libkiapi.so.9.0.1:_ZN5kiapi6common8commands14RevertDocumentC1EPN6google8protobuf5ArenaERKS2_
libkiapi.so.9.0.1:_ZN5kiapi6common8commands14RevertDocumentC2EPN6google8protobuf5ArenaE
libkiapi.so.9.0.1:_ZN5kiapi6common8commands14RevertDocumentC2EPN6google8protobuf5ArenaERKS2_
libkiapi.so.9.0.1:_ZN5kiapi6common8commands14RevertDocumentD0Ev
libkiapi.so.9.0.1:_ZN5kiapi6common8commands14RevertDocumentD1Ev
libkiapi.so.9.0.1:_ZN5kiapi6common8commands14RevertDocumentD2Ev
libkiapi.so.9.0.1:_ZN5kiapi6common8commands14StringResponse12InternalSwapEPS2_
libkiapi.so.9.0.1:_ZN5kiapi6common8commands14StringResponse14_InternalParseEPKcPN6google8protobuf8internal12ParseContextE
libkiapi.so.9.0.1:_ZN5kiapi6common8commands14StringResponse5ClearEv
libkiapi.so.9.0.1:_ZN5kiapi6common8commands14StringResponse8CopyFromERKS2_
libkiapi.so.9.0.1:_ZN5kiapi6common8commands14StringResponse9MergeImplERN6google8protobuf7MessageERKS5_
libkiapi.so.9.0.1:_ZN5kiapi6common8commands14StringResponseC1EPN6google8protobuf5ArenaE
libkiapi.so.9.0.1:_ZN5kiapi6common8commands14StringResponseC1EPN6google8protobuf5ArenaERKS2_
libkiapi.so.9.0.1:_ZN5kiapi6common8commands14StringResponseC2EPN6google8protobuf5ArenaE
libkiapi.so.9.0.1:_ZN5kiapi6common8commands14StringResponseC2EPN6google8protobuf5ArenaERKS2_
libkiapi.so.9.0.1:_ZN5kiapi6common8commands14StringResponseD0Ev
libkiapi.so.9.0.1:_ZN5kiapi6common8commands14StringResponseD1Ev
libkiapi.so.9.0.1:_ZN5kiapi6common8commands14StringResponseD2Ev
libkiapi.so.9.0.1:_ZN5kiapi6common8commands14TextWithShapes12InternalSwapEPS2_
libkiapi.so.9.0.1:_ZN5kiapi6common8commands14TextWithShapes12clear_shapesEv
libkiapi.so.9.0.1:_ZN5kiapi6common8commands14TextWithShapes14_InternalParseEPKcPN6google8protobuf8internal12ParseContextE
libkiapi.so.9.0.1:_ZN5kiapi6common8commands14TextWithShapes5ClearEv
libkiapi.so.9.0.1:_ZN5kiapi6common8commands14TextWithShapes8CopyFromERKS2_
libkiapi.so.9.0.1:_ZN5kiapi6common8commands14TextWithShapes9MergeImplERN6google8protobuf7MessageERKS5_
libkiapi.so.9.0.1:_ZN5kiapi6common8commands14TextWithShapes9_Internal4textEPKS2_
libkiapi.so.9.0.1:_ZN5kiapi6common8commands14TextWithShapes9_Internal6shapesEPKS2_
libkiapi.so.9.0.1:_ZN5kiapi6common8commands14TextWithShapesC1EPN6google8protobuf5ArenaE
libkiapi.so.9.0.1:_ZN5kiapi6common8commands14TextWithShapesC1EPN6google8protobuf5ArenaERKS2_
libkiapi.so.9.0.1:_ZN5kiapi6common8commands14TextWithShapesC2EPN6google8protobuf5ArenaE
libkiapi.so.9.0.1:_ZN5kiapi6common8commands14TextWithShapesC2EPN6google8protobuf5ArenaERKS2_
libkiapi.so.9.0.1:_ZN5kiapi6common8commands14TextWithShapesD0Ev
libkiapi.so.9.0.1:_ZN5kiapi6common8commands14TextWithShapesD1Ev
libkiapi.so.9.0.1:_ZN5kiapi6common8commands14TextWithShapesD2Ev
libkiapi.so.9.0.1:_ZN5kiapi6common8commands15GetTextAsShapes12InternalSwapEPS2_
libkiapi.so.9.0.1:_ZN5kiapi6common8commands15GetTextAsShapes14_InternalParseEPKcPN6google8protobuf8internal12ParseContextE
libkiapi.so.9.0.1:_ZN5kiapi6common8commands15GetTextAsShapes5ClearEv
libkiapi.so.9.0.1:_ZN5kiapi6common8commands15GetTextAsShapes8CopyFromERKS2_
libkiapi.so.9.0.1:_ZN5kiapi6common8commands15GetTextAsShapes9MergeImplERN6google8protobuf7MessageERKS5_
libkiapi.so.9.0.1:_ZN5kiapi6common8commands15GetTextAsShapesC1EPN6google8protobuf5ArenaE
libkiapi.so.9.0.1:_ZN5kiapi6common8commands15GetTextAsShapesC1EPN6google8protobuf5ArenaERKS2_
libkiapi.so.9.0.1:_ZN5kiapi6common8commands15GetTextAsShapesC2EPN6google8protobuf5ArenaE
libkiapi.so.9.0.1:_ZN5kiapi6common8commands15GetTextAsShapesC2EPN6google8protobuf5ArenaERKS2_
libkiapi.so.9.0.1:_ZN5kiapi6common8commands15GetTextAsShapesD0Ev
libkiapi.so.9.0.1:_ZN5kiapi6common8commands15GetTextAsShapesD1Ev
libkiapi.so.9.0.1:_ZN5kiapi6common8commands15GetTextAsShapesD2Ev
libkiapi.so.9.0.1:_ZN5kiapi6common8commands15HitTestResponse12InternalSwapEPS2_
libkiapi.so.9.0.1:_ZN5kiapi6common8commands15HitTestResponse14_InternalParseEPKcPN6google8protobuf8internal12ParseContextE
libkiapi.so.9.0.1:_ZN5kiapi6common8commands15HitTestResponse5ClearEv
libkiapi.so.9.0.1:_ZN5kiapi6common8commands15HitTestResponse8CopyFromERKS2_
libkiapi.so.9.0.1:_ZN5kiapi6common8commands15HitTestResponse9MergeImplERN6google8protobuf7MessageERKS5_
libkiapi.so.9.0.1:_ZN5kiapi6common8commands15HitTestResponseC1EPN6google8protobuf5ArenaE
libkiapi.so.9.0.1:_ZN5kiapi6common8commands15HitTestResponseC1EPN6google8protobuf5ArenaERKS2_
libkiapi.so.9.0.1:_ZN5kiapi6common8commands15HitTestResponseC2EPN6google8protobuf5ArenaE
libkiapi.so.9.0.1:_ZN5kiapi6common8commands15HitTestResponseC2EPN6google8protobuf5ArenaERKS2_
libkiapi.so.9.0.1:_ZN5kiapi6common8commands15HitTestResponseD0Ev
libkiapi.so.9.0.1:_ZN5kiapi6common8commands15HitTestResponseD1Ev
libkiapi.so.9.0.1:_ZN5kiapi6common8commands15HitTestResponseD2Ev
libkiapi.so.9.0.1:_ZN5kiapi6common8commands16GetItemsResponse11clear_itemsEv
libkiapi.so.9.0.1:_ZN5kiapi6common8commands16GetItemsResponse12InternalSwapEPS2_
libkiapi.so.9.0.1:_ZN5kiapi6common8commands16GetItemsResponse12clear_headerEv
libkiapi.so.9.0.1:_ZN5kiapi6common8commands16GetItemsResponse14_InternalParseEPKcPN6google8protobuf8internal12ParseContextE
libkiapi.so.9.0.1:_ZN5kiapi6common8commands16GetItemsResponse5ClearEv
libkiapi.so.9.0.1:_ZN5kiapi6common8commands16GetItemsResponse8CopyFromERKS2_
libkiapi.so.9.0.1:_ZN5kiapi6common8commands16GetItemsResponse9MergeImplERN6google8protobuf7MessageERKS5_
libkiapi.so.9.0.1:_ZN5kiapi6common8commands16GetItemsResponse9_Internal6headerEPKS2_
libkiapi.so.9.0.1:_ZN5kiapi6common8commands16GetItemsResponseC1EPN6google8protobuf5ArenaE
libkiapi.so.9.0.1:_ZN5kiapi6common8commands16GetItemsResponseC1EPN6google8protobuf5ArenaERKS2_
libkiapi.so.9.0.1:_ZN5kiapi6common8commands16GetItemsResponseC2EPN6google8protobuf5ArenaE
libkiapi.so.9.0.1:_ZN5kiapi6common8commands16GetItemsResponseC2EPN6google8protobuf5ArenaERKS2_
libkiapi.so.9.0.1:_ZN5kiapi6common8commands16GetItemsResponseD0Ev
libkiapi.so.9.0.1:_ZN5kiapi6common8commands16GetItemsResponseD1Ev
libkiapi.so.9.0.1:_ZN5kiapi6common8commands16GetItemsResponseD2Ev
libkiapi.so.9.0.1:_ZN5kiapi6common8commands16GetOpenDocuments12InternalSwapEPS2_
libkiapi.so.9.0.1:_ZN5kiapi6common8commands16GetOpenDocuments14_InternalParseEPKcPN6google8protobuf8internal12ParseContextE
libkiapi.so.9.0.1:_ZN5kiapi6common8commands16GetOpenDocuments5ClearEv
libkiapi.so.9.0.1:_ZN5kiapi6common8commands16GetOpenDocuments8CopyFromERKS2_
libkiapi.so.9.0.1:_ZN5kiapi6common8commands16GetOpenDocuments9MergeImplERN6google8protobuf7MessageERKS5_
libkiapi.so.9.0.1:_ZN5kiapi6common8commands16GetOpenDocumentsC1EPN6google8protobuf5ArenaE
libkiapi.so.9.0.1:_ZN5kiapi6common8commands16GetOpenDocumentsC1EPN6google8protobuf5ArenaERKS2_
libkiapi.so.9.0.1:_ZN5kiapi6common8commands16GetOpenDocumentsC2EPN6google8protobuf5ArenaE
libkiapi.so.9.0.1:_ZN5kiapi6common8commands16GetOpenDocumentsC2EPN6google8protobuf5ArenaERKS2_
libkiapi.so.9.0.1:_ZN5kiapi6common8commands16GetOpenDocumentsD0Ev
libkiapi.so.9.0.1:_ZN5kiapi6common8commands16GetOpenDocumentsD1Ev
libkiapi.so.9.0.1:_ZN5kiapi6common8commands16GetOpenDocumentsD2Ev
libkiapi.so.9.0.1:_ZN5kiapi6common8commands16GetTextVariables12InternalSwapEPS2_
libkiapi.so.9.0.1:_ZN5kiapi6common8commands16GetTextVariables14_InternalParseEPKcPN6google8protobuf8internal12ParseContextE
libkiapi.so.9.0.1:_ZN5kiapi6common8commands16GetTextVariables14clear_documentEv
libkiapi.so.9.0.1:_ZN5kiapi6common8commands16GetTextVariables5ClearEv
libkiapi.so.9.0.1:_ZN5kiapi6common8commands16GetTextVariables8CopyFromERKS2_
libkiapi.so.9.0.1:_ZN5kiapi6common8commands16GetTextVariables9MergeImplERN6google8protobuf7MessageERKS5_
libkiapi.so.9.0.1:_ZN5kiapi6common8commands16GetTextVariables9_Internal8documentEPKS2_
libkiapi.so.9.0.1:_ZN5kiapi6common8commands16GetTextVariablesC1EPN6google8protobuf5ArenaE
libkiapi.so.9.0.1:_ZN5kiapi6common8commands16GetTextVariablesC1EPN6google8protobuf5ArenaERKS2_
libkiapi.so.9.0.1:_ZN5kiapi6common8commands16GetTextVariablesC2EPN6google8protobuf5ArenaE
libkiapi.so.9.0.1:_ZN5kiapi6common8commands16GetTextVariablesC2EPN6google8protobuf5ArenaERKS2_
libkiapi.so.9.0.1:_ZN5kiapi6common8commands16GetTextVariablesD0Ev
libkiapi.so.9.0.1:_ZN5kiapi6common8commands16GetTextVariablesD1Ev
libkiapi.so.9.0.1:_ZN5kiapi6common8commands16GetTextVariablesD2Ev
libkiapi.so.9.0.1:_ZN5kiapi6common8commands16ItemUpdateResult10clear_itemEv
libkiapi.so.9.0.1:_ZN5kiapi6common8commands16ItemUpdateResult12InternalSwapEPS2_
libkiapi.so.9.0.1:_ZN5kiapi6common8commands16ItemUpdateResult14_InternalParseEPKcPN6google8protobuf8internal12ParseContextE
libkiapi.so.9.0.1:_ZN5kiapi6common8commands16ItemUpdateResult5ClearEv
libkiapi.so.9.0.1:_ZN5kiapi6common8commands16ItemUpdateResult8CopyFromERKS2_
libkiapi.so.9.0.1:_ZN5kiapi6common8commands16ItemUpdateResult9MergeImplERN6google8protobuf7MessageERKS5_
libkiapi.so.9.0.1:_ZN5kiapi6common8commands16ItemUpdateResult9_Internal4itemEPKS2_
libkiapi.so.9.0.1:_ZN5kiapi6common8commands16ItemUpdateResult9_Internal6statusEPKS2_
libkiapi.so.9.0.1:_ZN5kiapi6common8commands16ItemUpdateResultC1EPN6google8protobuf5ArenaE
libkiapi.so.9.0.1:_ZN5kiapi6common8commands16ItemUpdateResultC1EPN6google8protobuf5ArenaERKS2_
libkiapi.so.9.0.1:_ZN5kiapi6common8commands16ItemUpdateResultC2EPN6google8protobuf5ArenaE
libkiapi.so.9.0.1:_ZN5kiapi6common8commands16ItemUpdateResultC2EPN6google8protobuf5ArenaERKS2_
libkiapi.so.9.0.1:_ZN5kiapi6common8commands16ItemUpdateResultD0Ev
libkiapi.so.9.0.1:_ZN5kiapi6common8commands16ItemUpdateResultD1Ev
libkiapi.so.9.0.1:_ZN5kiapi6common8commands16ItemUpdateResultD2Ev
libkiapi.so.9.0.1:_ZN5kiapi6common8commands16SetTextVariables12InternalSwapEPS2_
libkiapi.so.9.0.1:_ZN5kiapi6common8commands16SetTextVariables14_InternalParseEPKcPN6google8protobuf8internal12ParseContextE
libkiapi.so.9.0.1:_ZN5kiapi6common8commands16SetTextVariables14clear_documentEv
libkiapi.so.9.0.1:_ZN5kiapi6common8commands16SetTextVariables15clear_variablesEv
libkiapi.so.9.0.1:_ZN5kiapi6common8commands16SetTextVariables5ClearEv
libkiapi.so.9.0.1:_ZN5kiapi6common8commands16SetTextVariables8CopyFromERKS2_
libkiapi.so.9.0.1:_ZN5kiapi6common8commands16SetTextVariables9MergeImplERN6google8protobuf7MessageERKS5_
libkiapi.so.9.0.1:_ZN5kiapi6common8commands16SetTextVariables9_Internal8documentEPKS2_
libkiapi.so.9.0.1:_ZN5kiapi6common8commands16SetTextVariables9_Internal9variablesEPKS2_
libkiapi.so.9.0.1:_ZN5kiapi6common8commands16SetTextVariablesC1EPN6google8protobuf5ArenaE
libkiapi.so.9.0.1:_ZN5kiapi6common8commands16SetTextVariablesC1EPN6google8protobuf5ArenaERKS2_
libkiapi.so.9.0.1:_ZN5kiapi6common8commands16SetTextVariablesC2EPN6google8protobuf5ArenaE
libkiapi.so.9.0.1:_ZN5kiapi6common8commands16SetTextVariablesC2EPN6google8protobuf5ArenaERKS2_
libkiapi.so.9.0.1:_ZN5kiapi6common8commands16SetTextVariablesD0Ev
libkiapi.so.9.0.1:_ZN5kiapi6common8commands16SetTextVariablesD1Ev
libkiapi.so.9.0.1:_ZN5kiapi6common8commands16SetTextVariablesD2Ev
libkiapi.so.9.0.1:_ZN5kiapi6common8commands17EndCommitResponseC1EPN6google8protobuf5ArenaE
libkiapi.so.9.0.1:_ZN5kiapi6common8commands17EndCommitResponseC1EPN6google8protobuf5ArenaERKS2_
libkiapi.so.9.0.1:_ZN5kiapi6common8commands17EndCommitResponseC2EPN6google8protobuf5ArenaE
libkiapi.so.9.0.1:_ZN5kiapi6common8commands17EndCommitResponseC2EPN6google8protobuf5ArenaERKS2_
libkiapi.so.9.0.1:_ZN5kiapi6common8commands17GetTitleBlockInfo12InternalSwapEPS2_
libkiapi.so.9.0.1:_ZN5kiapi6common8commands17GetTitleBlockInfo14_InternalParseEPKcPN6google8protobuf8internal12ParseContextE
libkiapi.so.9.0.1:_ZN5kiapi6common8commands17GetTitleBlockInfo14clear_documentEv
libkiapi.so.9.0.1:_ZN5kiapi6common8commands17GetTitleBlockInfo5ClearEv
libkiapi.so.9.0.1:_ZN5kiapi6common8commands17GetTitleBlockInfo8CopyFromERKS2_
libkiapi.so.9.0.1:_ZN5kiapi6common8commands17GetTitleBlockInfo9MergeImplERN6google8protobuf7MessageERKS5_
libkiapi.so.9.0.1:_ZN5kiapi6common8commands17GetTitleBlockInfo9_Internal8documentEPKS2_
libkiapi.so.9.0.1:_ZN5kiapi6common8commands17GetTitleBlockInfoC1EPN6google8protobuf5ArenaE
libkiapi.so.9.0.1:_ZN5kiapi6common8commands17GetTitleBlockInfoC1EPN6google8protobuf5ArenaERKS2_
libkiapi.so.9.0.1:_ZN5kiapi6common8commands17GetTitleBlockInfoC2EPN6google8protobuf5ArenaE
libkiapi.so.9.0.1:_ZN5kiapi6common8commands17GetTitleBlockInfoC2EPN6google8protobuf5ArenaERKS2_
libkiapi.so.9.0.1:_ZN5kiapi6common8commands17GetTitleBlockInfoD0Ev
libkiapi.so.9.0.1:_ZN5kiapi6common8commands17GetTitleBlockInfoD1Ev
libkiapi.so.9.0.1:_ZN5kiapi6common8commands17GetTitleBlockInfoD2Ev
libkiapi.so.9.0.1:_ZN5kiapi6common8commands17RunActionResponse12InternalSwapEPS2_
libkiapi.so.9.0.1:_ZN5kiapi6common8commands17RunActionResponse14_InternalParseEPKcPN6google8protobuf8internal12ParseContextE
libkiapi.so.9.0.1:_ZN5kiapi6common8commands17RunActionResponse5ClearEv
libkiapi.so.9.0.1:_ZN5kiapi6common8commands17RunActionResponse8CopyFromERKS2_
libkiapi.so.9.0.1:_ZN5kiapi6common8commands17RunActionResponse9MergeImplERN6google8protobuf7MessageERKS5_
libkiapi.so.9.0.1:_ZN5kiapi6common8commands17RunActionResponseC1EPN6google8protobuf5ArenaE
libkiapi.so.9.0.1:_ZN5kiapi6common8commands17RunActionResponseC1EPN6google8protobuf5ArenaERKS2_
libkiapi.so.9.0.1:_ZN5kiapi6common8commands17RunActionResponseC2EPN6google8protobuf5ArenaE
libkiapi.so.9.0.1:_ZN5kiapi6common8commands17RunActionResponseC2EPN6google8protobuf5ArenaERKS2_
libkiapi.so.9.0.1:_ZN5kiapi6common8commands17RunActionResponseD0Ev
libkiapi.so.9.0.1:_ZN5kiapi6common8commands17RunActionResponseD1Ev
libkiapi.so.9.0.1:_ZN5kiapi6common8commands17RunActionResponseD2Ev
libkiapi.so.9.0.1:_ZN5kiapi6common8commands17SelectionResponse11clear_itemsEv
libkiapi.so.9.0.1:_ZN5kiapi6common8commands17SelectionResponse12InternalSwapEPS2_
libkiapi.so.9.0.1:_ZN5kiapi6common8commands17SelectionResponse14_InternalParseEPKcPN6google8protobuf8internal12ParseContextE
libkiapi.so.9.0.1:_ZN5kiapi6common8commands17SelectionResponse5ClearEv
libkiapi.so.9.0.1:_ZN5kiapi6common8commands17SelectionResponse8CopyFromERKS2_
libkiapi.so.9.0.1:_ZN5kiapi6common8commands17SelectionResponse9MergeImplERN6google8protobuf7MessageERKS5_
libkiapi.so.9.0.1:_ZN5kiapi6common8commands17SelectionResponseC1EPN6google8protobuf5ArenaE
libkiapi.so.9.0.1:_ZN5kiapi6common8commands17SelectionResponseC1EPN6google8protobuf5ArenaERKS2_
libkiapi.so.9.0.1:_ZN5kiapi6common8commands17SelectionResponseC2EPN6google8protobuf5ArenaE
libkiapi.so.9.0.1:_ZN5kiapi6common8commands17SelectionResponseC2EPN6google8protobuf5ArenaERKS2_
libkiapi.so.9.0.1:_ZN5kiapi6common8commands17SelectionResponseD0Ev
libkiapi.so.9.0.1:_ZN5kiapi6common8commands17SelectionResponseD1Ev
libkiapi.so.9.0.1:_ZN5kiapi6common8commands17SelectionResponseD2Ev
libkiapi.so.9.0.1:_ZN5kiapi6common8commands18GetKiCadBinaryPath12InternalSwapEPS2_
libkiapi.so.9.0.1:_ZN5kiapi6common8commands18GetKiCadBinaryPath14_InternalParseEPKcPN6google8protobuf8internal12ParseContextE
libkiapi.so.9.0.1:_ZN5kiapi6common8commands18GetKiCadBinaryPath5ClearEv
libkiapi.so.9.0.1:_ZN5kiapi6common8commands18GetKiCadBinaryPath8CopyFromERKS2_
libkiapi.so.9.0.1:_ZN5kiapi6common8commands18GetKiCadBinaryPath9MergeImplERN6google8protobuf7MessageERKS5_
libkiapi.so.9.0.1:_ZN5kiapi6common8commands18GetKiCadBinaryPathC1EPN6google8protobuf5ArenaE
libkiapi.so.9.0.1:_ZN5kiapi6common8commands18GetKiCadBinaryPathC1EPN6google8protobuf5ArenaERKS2_
libkiapi.so.9.0.1:_ZN5kiapi6common8commands18GetKiCadBinaryPathC2EPN6google8protobuf5ArenaE
libkiapi.so.9.0.1:_ZN5kiapi6common8commands18GetKiCadBinaryPathC2EPN6google8protobuf5ArenaERKS2_
libkiapi.so.9.0.1:_ZN5kiapi6common8commands18GetKiCadBinaryPathD0Ev
libkiapi.so.9.0.1:_ZN5kiapi6common8commands18GetKiCadBinaryPathD1Ev
libkiapi.so.9.0.1:_ZN5kiapi6common8commands18GetKiCadBinaryPathD2Ev
libkiapi.so.9.0.1:_ZN5kiapi6common8commands18GetVersionResponse12InternalSwapEPS2_
libkiapi.so.9.0.1:_ZN5kiapi6common8commands18GetVersionResponse13clear_versionEv
libkiapi.so.9.0.1:_ZN5kiapi6common8commands18GetVersionResponse14_InternalParseEPKcPN6google8protobuf8internal12ParseContextE
libkiapi.so.9.0.1:_ZN5kiapi6common8commands18GetVersionResponse5ClearEv
libkiapi.so.9.0.1:_ZN5kiapi6common8commands18GetVersionResponse8CopyFromERKS2_
libkiapi.so.9.0.1:_ZN5kiapi6common8commands18GetVersionResponse9MergeImplERN6google8protobuf7MessageERKS5_
libkiapi.so.9.0.1:_ZN5kiapi6common8commands18GetVersionResponse9_Internal7versionEPKS2_
libkiapi.so.9.0.1:_ZN5kiapi6common8commands18GetVersionResponseC1EPN6google8protobuf5ArenaE
libkiapi.so.9.0.1:_ZN5kiapi6common8commands18GetVersionResponseC1EPN6google8protobuf5ArenaERKS2_
libkiapi.so.9.0.1:_ZN5kiapi6common8commands18GetVersionResponseC2EPN6google8protobuf5ArenaE
libkiapi.so.9.0.1:_ZN5kiapi6common8commands18GetVersionResponseC2EPN6google8protobuf5ArenaERKS2_
libkiapi.so.9.0.1:_ZN5kiapi6common8commands18GetVersionResponseD0Ev
libkiapi.so.9.0.1:_ZN5kiapi6common8commands18GetVersionResponseD1Ev
libkiapi.so.9.0.1:_ZN5kiapi6common8commands18GetVersionResponseD2Ev
libkiapi.so.9.0.1:_ZN5kiapi6common8commands18ItemCreationResult10clear_itemEv
libkiapi.so.9.0.1:_ZN5kiapi6common8commands18ItemCreationResult12InternalSwapEPS2_
libkiapi.so.9.0.1:_ZN5kiapi6common8commands18ItemCreationResult14_InternalParseEPKcPN6google8protobuf8internal12ParseContextE
libkiapi.so.9.0.1:_ZN5kiapi6common8commands18ItemCreationResult5ClearEv
libkiapi.so.9.0.1:_ZN5kiapi6common8commands18ItemCreationResult8CopyFromERKS2_
libkiapi.so.9.0.1:_ZN5kiapi6common8commands18ItemCreationResult9MergeImplERN6google8protobuf7MessageERKS5_
libkiapi.so.9.0.1:_ZN5kiapi6common8commands18ItemCreationResult9_Internal4itemEPKS2_
libkiapi.so.9.0.1:_ZN5kiapi6common8commands18ItemCreationResult9_Internal6statusEPKS2_
libkiapi.so.9.0.1:_ZN5kiapi6common8commands18ItemCreationResultC1EPN6google8protobuf5ArenaE
libkiapi.so.9.0.1:_ZN5kiapi6common8commands18ItemCreationResultC1EPN6google8protobuf5ArenaERKS2_
libkiapi.so.9.0.1:_ZN5kiapi6common8commands18ItemCreationResultC2EPN6google8protobuf5ArenaE
libkiapi.so.9.0.1:_ZN5kiapi6common8commands18ItemCreationResultC2EPN6google8protobuf5ArenaERKS2_
libkiapi.so.9.0.1:_ZN5kiapi6common8commands18ItemCreationResultD0Ev
libkiapi.so.9.0.1:_ZN5kiapi6common8commands18ItemCreationResultD1Ev
libkiapi.so.9.0.1:_ZN5kiapi6common8commands18ItemCreationResultD2Ev
libkiapi.so.9.0.1:_ZN5kiapi6common8commands18ItemDeletionResult12InternalSwapEPS2_
libkiapi.so.9.0.1:_ZN5kiapi6common8commands18ItemDeletionResult14_InternalParseEPKcPN6google8protobuf8internal12ParseContextE
libkiapi.so.9.0.1:_ZN5kiapi6common8commands18ItemDeletionResult5ClearEv
libkiapi.so.9.0.1:_ZN5kiapi6common8commands18ItemDeletionResult8CopyFromERKS2_
libkiapi.so.9.0.1:_ZN5kiapi6common8commands18ItemDeletionResult8clear_idEv
libkiapi.so.9.0.1:_ZN5kiapi6common8commands18ItemDeletionResult9MergeImplERN6google8protobuf7MessageERKS5_
libkiapi.so.9.0.1:_ZN5kiapi6common8commands18ItemDeletionResult9_Internal2idEPKS2_
libkiapi.so.9.0.1:_ZN5kiapi6common8commands18ItemDeletionResultC1EPN6google8protobuf5ArenaE
libkiapi.so.9.0.1:_ZN5kiapi6common8commands18ItemDeletionResultC1EPN6google8protobuf5ArenaERKS2_
libkiapi.so.9.0.1:_ZN5kiapi6common8commands18ItemDeletionResultC2EPN6google8protobuf5ArenaE
libkiapi.so.9.0.1:_ZN5kiapi6common8commands18ItemDeletionResultC2EPN6google8protobuf5ArenaERKS2_
libkiapi.so.9.0.1:_ZN5kiapi6common8commands18ItemDeletionResultD0Ev
libkiapi.so.9.0.1:_ZN5kiapi6common8commands18ItemDeletionResultD1Ev
libkiapi.so.9.0.1:_ZN5kiapi6common8commands18ItemDeletionResultD2Ev
libkiapi.so.9.0.1:_ZN5kiapi6common8commands18NetClassesResponse12InternalSwapEPS2_
libkiapi.so.9.0.1:_ZN5kiapi6common8commands18NetClassesResponse14_InternalParseEPKcPN6google8protobuf8internal12ParseContextE
libkiapi.so.9.0.1:_ZN5kiapi6common8commands18NetClassesResponse17clear_net_classesEv
libkiapi.so.9.0.1:_ZN5kiapi6common8commands18NetClassesResponse5ClearEv
libkiapi.so.9.0.1:_ZN5kiapi6common8commands18NetClassesResponse8CopyFromERKS2_
libkiapi.so.9.0.1:_ZN5kiapi6common8commands18NetClassesResponse9MergeImplERN6google8protobuf7MessageERKS5_
libkiapi.so.9.0.1:_ZN5kiapi6common8commands18NetClassesResponseC1EPN6google8protobuf5ArenaE
libkiapi.so.9.0.1:_ZN5kiapi6common8commands18NetClassesResponseC1EPN6google8protobuf5ArenaERKS2_
libkiapi.so.9.0.1:_ZN5kiapi6common8commands18NetClassesResponseC2EPN6google8protobuf5ArenaE
libkiapi.so.9.0.1:_ZN5kiapi6common8commands18NetClassesResponseC2EPN6google8protobuf5ArenaERKS2_
libkiapi.so.9.0.1:_ZN5kiapi6common8commands18NetClassesResponseD0Ev
libkiapi.so.9.0.1:_ZN5kiapi6common8commands18NetClassesResponseD1Ev
libkiapi.so.9.0.1:_ZN5kiapi6common8commands18NetClassesResponseD2Ev
libkiapi.so.9.0.1:_ZN5kiapi6common8commands18SaveCopyOfDocument12InternalSwapEPS2_
libkiapi.so.9.0.1:_ZN5kiapi6common8commands18SaveCopyOfDocument14_InternalParseEPKcPN6google8protobuf8internal12ParseContextE
libkiapi.so.9.0.1:_ZN5kiapi6common8commands18SaveCopyOfDocument14clear_documentEv
libkiapi.so.9.0.1:_ZN5kiapi6common8commands18SaveCopyOfDocument5ClearEv
libkiapi.so.9.0.1:_ZN5kiapi6common8commands18SaveCopyOfDocument8CopyFromERKS2_
libkiapi.so.9.0.1:_ZN5kiapi6common8commands18SaveCopyOfDocument9MergeImplERN6google8protobuf7MessageERKS5_
libkiapi.so.9.0.1:_ZN5kiapi6common8commands18SaveCopyOfDocument9_Internal7optionsEPKS2_
libkiapi.so.9.0.1:_ZN5kiapi6common8commands18SaveCopyOfDocument9_Internal8documentEPKS2_
libkiapi.so.9.0.1:_ZN5kiapi6common8commands18SaveCopyOfDocumentC1EPN6google8protobuf5ArenaE
libkiapi.so.9.0.1:_ZN5kiapi6common8commands18SaveCopyOfDocumentC1EPN6google8protobuf5ArenaERKS2_
libkiapi.so.9.0.1:_ZN5kiapi6common8commands18SaveCopyOfDocumentC2EPN6google8protobuf5ArenaE
libkiapi.so.9.0.1:_ZN5kiapi6common8commands18SaveCopyOfDocumentC2EPN6google8protobuf5ArenaERKS2_
libkiapi.so.9.0.1:_ZN5kiapi6common8commands18SaveCopyOfDocumentD0Ev
libkiapi.so.9.0.1:_ZN5kiapi6common8commands18SaveCopyOfDocumentD1Ev
libkiapi.so.9.0.1:_ZN5kiapi6common8commands18SaveCopyOfDocumentD2Ev
libkiapi.so.9.0.1:_ZN5kiapi6common8commands19BeginCommitResponse12InternalSwapEPS2_
libkiapi.so.9.0.1:_ZN5kiapi6common8commands19BeginCommitResponse14_InternalParseEPKcPN6google8protobuf8internal12ParseContextE
libkiapi.so.9.0.1:_ZN5kiapi6common8commands19BeginCommitResponse5ClearEv
libkiapi.so.9.0.1:_ZN5kiapi6common8commands19BeginCommitResponse8CopyFromERKS2_
libkiapi.so.9.0.1:_ZN5kiapi6common8commands19BeginCommitResponse8clear_idEv
libkiapi.so.9.0.1:_ZN5kiapi6common8commands19BeginCommitResponse9MergeImplERN6google8protobuf7MessageERKS5_
libkiapi.so.9.0.1:_ZN5kiapi6common8commands19BeginCommitResponse9_Internal2idEPKS2_
libkiapi.so.9.0.1:_ZN5kiapi6common8commands19BeginCommitResponseC1EPN6google8protobuf5ArenaE
libkiapi.so.9.0.1:_ZN5kiapi6common8commands19BeginCommitResponseC1EPN6google8protobuf5ArenaERKS2_
libkiapi.so.9.0.1:_ZN5kiapi6common8commands19BeginCommitResponseC2EPN6google8protobuf5ArenaE
libkiapi.so.9.0.1:_ZN5kiapi6common8commands19BeginCommitResponseC2EPN6google8protobuf5ArenaERKS2_
libkiapi.so.9.0.1:_ZN5kiapi6common8commands19BeginCommitResponseD0Ev
libkiapi.so.9.0.1:_ZN5kiapi6common8commands19BeginCommitResponseD1Ev
libkiapi.so.9.0.1:_ZN5kiapi6common8commands19BeginCommitResponseD2Ev
libkiapi.so.9.0.1:_ZN5kiapi6common8commands19CreateItemsResponse12InternalSwapEPS2_
libkiapi.so.9.0.1:_ZN5kiapi6common8commands19CreateItemsResponse12clear_headerEv
libkiapi.so.9.0.1:_ZN5kiapi6common8commands19CreateItemsResponse14_InternalParseEPKcPN6google8protobuf8internal12ParseContextE
libkiapi.so.9.0.1:_ZN5kiapi6common8commands19CreateItemsResponse5ClearEv
libkiapi.so.9.0.1:_ZN5kiapi6common8commands19CreateItemsResponse8CopyFromERKS2_
libkiapi.so.9.0.1:_ZN5kiapi6common8commands19CreateItemsResponse9MergeImplERN6google8protobuf7MessageERKS5_
libkiapi.so.9.0.1:_ZN5kiapi6common8commands19CreateItemsResponse9_Internal6headerEPKS2_
libkiapi.so.9.0.1:_ZN5kiapi6common8commands19CreateItemsResponseC1EPN6google8protobuf5ArenaE
libkiapi.so.9.0.1:_ZN5kiapi6common8commands19CreateItemsResponseC1EPN6google8protobuf5ArenaERKS2_
libkiapi.so.9.0.1:_ZN5kiapi6common8commands19CreateItemsResponseC2EPN6google8protobuf5ArenaE
libkiapi.so.9.0.1:_ZN5kiapi6common8commands19CreateItemsResponseC2EPN6google8protobuf5ArenaERKS2_
libkiapi.so.9.0.1:_ZN5kiapi6common8commands19CreateItemsResponseD0Ev
libkiapi.so.9.0.1:_ZN5kiapi6common8commands19CreateItemsResponseD1Ev
libkiapi.so.9.0.1:_ZN5kiapi6common8commands19CreateItemsResponseD2Ev
libkiapi.so.9.0.1:_ZN5kiapi6common8commands19DeleteItemsResponse12InternalSwapEPS2_
libkiapi.so.9.0.1:_ZN5kiapi6common8commands19DeleteItemsResponse12clear_headerEv
libkiapi.so.9.0.1:_ZN5kiapi6common8commands19DeleteItemsResponse14_InternalParseEPKcPN6google8protobuf8internal12ParseContextE
libkiapi.so.9.0.1:_ZN5kiapi6common8commands19DeleteItemsResponse5ClearEv
libkiapi.so.9.0.1:_ZN5kiapi6common8commands19DeleteItemsResponse8CopyFromERKS2_
libkiapi.so.9.0.1:_ZN5kiapi6common8commands19DeleteItemsResponse9MergeImplERN6google8protobuf7MessageERKS5_
libkiapi.so.9.0.1:_ZN5kiapi6common8commands19DeleteItemsResponse9_Internal6headerEPKS2_
libkiapi.so.9.0.1:_ZN5kiapi6common8commands19DeleteItemsResponseC1EPN6google8protobuf5ArenaE
libkiapi.so.9.0.1:_ZN5kiapi6common8commands19DeleteItemsResponseC1EPN6google8protobuf5ArenaERKS2_
libkiapi.so.9.0.1:_ZN5kiapi6common8commands19DeleteItemsResponseC2EPN6google8protobuf5ArenaE
libkiapi.so.9.0.1:_ZN5kiapi6common8commands19DeleteItemsResponseC2EPN6google8protobuf5ArenaERKS2_
libkiapi.so.9.0.1:_ZN5kiapi6common8commands19DeleteItemsResponseD0Ev
libkiapi.so.9.0.1:_ZN5kiapi6common8commands19DeleteItemsResponseD1Ev
libkiapi.so.9.0.1:_ZN5kiapi6common8commands19DeleteItemsResponseD2Ev
libkiapi.so.9.0.1:_ZN5kiapi6common8commands19ExpandTextVariables12InternalSwapEPS2_
libkiapi.so.9.0.1:_ZN5kiapi6common8commands19ExpandTextVariables14_InternalParseEPKcPN6google8protobuf8internal12ParseContextE
libkiapi.so.9.0.1:_ZN5kiapi6common8commands19ExpandTextVariables14clear_documentEv
libkiapi.so.9.0.1:_ZN5kiapi6common8commands19ExpandTextVariables5ClearEv
libkiapi.so.9.0.1:_ZN5kiapi6common8commands19ExpandTextVariables8CopyFromERKS2_
libkiapi.so.9.0.1:_ZN5kiapi6common8commands19ExpandTextVariables9MergeImplERN6google8protobuf7MessageERKS5_
libkiapi.so.9.0.1:_ZN5kiapi6common8commands19ExpandTextVariables9_Internal8documentEPKS2_
libkiapi.so.9.0.1:_ZN5kiapi6common8commands19ExpandTextVariablesC1EPN6google8protobuf5ArenaE
libkiapi.so.9.0.1:_ZN5kiapi6common8commands19ExpandTextVariablesC1EPN6google8protobuf5ArenaERKS2_
libkiapi.so.9.0.1:_ZN5kiapi6common8commands19ExpandTextVariablesC2EPN6google8protobuf5ArenaE
libkiapi.so.9.0.1:_ZN5kiapi6common8commands19ExpandTextVariablesC2EPN6google8protobuf5ArenaERKS2_
libkiapi.so.9.0.1:_ZN5kiapi6common8commands19ExpandTextVariablesD0Ev
libkiapi.so.9.0.1:_ZN5kiapi6common8commands19ExpandTextVariablesD1Ev
libkiapi.so.9.0.1:_ZN5kiapi6common8commands19ExpandTextVariablesD2Ev
libkiapi.so.9.0.1:_ZN5kiapi6common8commands19RemoveFromSelection11clear_itemsEv
libkiapi.so.9.0.1:_ZN5kiapi6common8commands19RemoveFromSelection12InternalSwapEPS2_
libkiapi.so.9.0.1:_ZN5kiapi6common8commands19RemoveFromSelection12clear_headerEv
libkiapi.so.9.0.1:_ZN5kiapi6common8commands19RemoveFromSelection14_InternalParseEPKcPN6google8protobuf8internal12ParseContextE
libkiapi.so.9.0.1:_ZN5kiapi6common8commands19RemoveFromSelection5ClearEv
libkiapi.so.9.0.1:_ZN5kiapi6common8commands19RemoveFromSelection8CopyFromERKS2_
libkiapi.so.9.0.1:_ZN5kiapi6common8commands19RemoveFromSelection9MergeImplERN6google8protobuf7MessageERKS5_
libkiapi.so.9.0.1:_ZN5kiapi6common8commands19RemoveFromSelection9_Internal6headerEPKS2_
libkiapi.so.9.0.1:_ZN5kiapi6common8commands19RemoveFromSelectionC1EPN6google8protobuf5ArenaE
libkiapi.so.9.0.1:_ZN5kiapi6common8commands19RemoveFromSelectionC1EPN6google8protobuf5ArenaERKS2_
libkiapi.so.9.0.1:_ZN5kiapi6common8commands19RemoveFromSelectionC2EPN6google8protobuf5ArenaE
libkiapi.so.9.0.1:_ZN5kiapi6common8commands19RemoveFromSelectionC2EPN6google8protobuf5ArenaERKS2_
libkiapi.so.9.0.1:_ZN5kiapi6common8commands19RemoveFromSelectionD0Ev
libkiapi.so.9.0.1:_ZN5kiapi6common8commands19RemoveFromSelectionD1Ev
libkiapi.so.9.0.1:_ZN5kiapi6common8commands19RemoveFromSelectionD2Ev
libkiapi.so.9.0.1:_ZN5kiapi6common8commands19UpdateItemsResponse12InternalSwapEPS2_
libkiapi.so.9.0.1:_ZN5kiapi6common8commands19UpdateItemsResponse12clear_headerEv
libkiapi.so.9.0.1:_ZN5kiapi6common8commands19UpdateItemsResponse14_InternalParseEPKcPN6google8protobuf8internal12ParseContextE
libkiapi.so.9.0.1:_ZN5kiapi6common8commands19UpdateItemsResponse5ClearEv
libkiapi.so.9.0.1:_ZN5kiapi6common8commands19UpdateItemsResponse8CopyFromERKS2_
libkiapi.so.9.0.1:_ZN5kiapi6common8commands19UpdateItemsResponse9MergeImplERN6google8protobuf7MessageERKS5_
libkiapi.so.9.0.1:_ZN5kiapi6common8commands19UpdateItemsResponse9_Internal6headerEPKS2_
libkiapi.so.9.0.1:_ZN5kiapi6common8commands19UpdateItemsResponseC1EPN6google8protobuf5ArenaE
libkiapi.so.9.0.1:_ZN5kiapi6common8commands19UpdateItemsResponseC1EPN6google8protobuf5ArenaERKS2_
libkiapi.so.9.0.1:_ZN5kiapi6common8commands19UpdateItemsResponseC2EPN6google8protobuf5ArenaE
libkiapi.so.9.0.1:_ZN5kiapi6common8commands19UpdateItemsResponseC2EPN6google8protobuf5ArenaERKS2_
libkiapi.so.9.0.1:_ZN5kiapi6common8commands19UpdateItemsResponseD0Ev
libkiapi.so.9.0.1:_ZN5kiapi6common8commands19UpdateItemsResponseD1Ev
libkiapi.so.9.0.1:_ZN5kiapi6common8commands19UpdateItemsResponseD2Ev
libkiapi.so.9.0.1:_ZN5kiapi6common8commands20CommitAction_IsValidEi
libkiapi.so.9.0.1:_ZN5kiapi6common8commands20SaveDocumentToString12InternalSwapEPS2_
libkiapi.so.9.0.1:_ZN5kiapi6common8commands20SaveDocumentToString14_InternalParseEPKcPN6google8protobuf8internal12ParseContextE
libkiapi.so.9.0.1:_ZN5kiapi6common8commands20SaveDocumentToString14clear_documentEv
libkiapi.so.9.0.1:_ZN5kiapi6common8commands20SaveDocumentToString5ClearEv
libkiapi.so.9.0.1:_ZN5kiapi6common8commands20SaveDocumentToString8CopyFromERKS2_
libkiapi.so.9.0.1:_ZN5kiapi6common8commands20SaveDocumentToString9MergeImplERN6google8protobuf7MessageERKS5_
libkiapi.so.9.0.1:_ZN5kiapi6common8commands20SaveDocumentToString9_Internal8documentEPKS2_
libkiapi.so.9.0.1:_ZN5kiapi6common8commands20SaveDocumentToStringC1EPN6google8protobuf5ArenaE
libkiapi.so.9.0.1:_ZN5kiapi6common8commands20SaveDocumentToStringC1EPN6google8protobuf5ArenaERKS2_
libkiapi.so.9.0.1:_ZN5kiapi6common8commands20SaveDocumentToStringC2EPN6google8protobuf5ArenaE
libkiapi.so.9.0.1:_ZN5kiapi6common8commands20SaveDocumentToStringC2EPN6google8protobuf5ArenaERKS2_
libkiapi.so.9.0.1:_ZN5kiapi6common8commands20SaveDocumentToStringD0Ev
libkiapi.so.9.0.1:_ZN5kiapi6common8commands20SaveDocumentToStringD1Ev
libkiapi.so.9.0.1:_ZN5kiapi6common8commands20SaveDocumentToStringD2Ev
libkiapi.so.9.0.1:_ZN5kiapi6common8commands21GetPluginSettingsPath12InternalSwapEPS2_
libkiapi.so.9.0.1:_ZN5kiapi6common8commands21GetPluginSettingsPath14_InternalParseEPKcPN6google8protobuf8internal12ParseContextE
libkiapi.so.9.0.1:_ZN5kiapi6common8commands21GetPluginSettingsPath5ClearEv
libkiapi.so.9.0.1:_ZN5kiapi6common8commands21GetPluginSettingsPath8CopyFromERKS2_
libkiapi.so.9.0.1:_ZN5kiapi6common8commands21GetPluginSettingsPath9MergeImplERN6google8protobuf7MessageERKS5_
libkiapi.so.9.0.1:_ZN5kiapi6common8commands21GetPluginSettingsPathC1EPN6google8protobuf5ArenaE
libkiapi.so.9.0.1:_ZN5kiapi6common8commands21GetPluginSettingsPathC1EPN6google8protobuf5ArenaERKS2_
libkiapi.so.9.0.1:_ZN5kiapi6common8commands21GetPluginSettingsPathC2EPN6google8protobuf5ArenaE
libkiapi.so.9.0.1:_ZN5kiapi6common8commands21GetPluginSettingsPathC2EPN6google8protobuf5ArenaERKS2_
libkiapi.so.9.0.1:_ZN5kiapi6common8commands21GetPluginSettingsPathD0Ev
libkiapi.so.9.0.1:_ZN5kiapi6common8commands21GetPluginSettingsPathD1Ev
libkiapi.so.9.0.1:_ZN5kiapi6common8commands21GetPluginSettingsPathD2Ev
libkiapi.so.9.0.1:_ZN5kiapi6common8commands21HitTestResult_IsValidEi
libkiapi.so.9.0.1:_ZN5kiapi6common8commands21SaveSelectionToStringC1EPN6google8protobuf5ArenaE
libkiapi.so.9.0.1:_ZN5kiapi6common8commands21SaveSelectionToStringC1EPN6google8protobuf5ArenaERKS2_
libkiapi.so.9.0.1:_ZN5kiapi6common8commands21SaveSelectionToStringC2EPN6google8protobuf5ArenaE
libkiapi.so.9.0.1:_ZN5kiapi6common8commands21SaveSelectionToStringC2EPN6google8protobuf5ArenaERKS2_
libkiapi.so.9.0.1:_ZN5kiapi6common8commands21SavedDocumentResponse12InternalSwapEPS2_
libkiapi.so.9.0.1:_ZN5kiapi6common8commands21SavedDocumentResponse14_InternalParseEPKcPN6google8protobuf8internal12ParseContextE
libkiapi.so.9.0.1:_ZN5kiapi6common8commands21SavedDocumentResponse14clear_documentEv
libkiapi.so.9.0.1:_ZN5kiapi6common8commands21SavedDocumentResponse5ClearEv
libkiapi.so.9.0.1:_ZN5kiapi6common8commands21SavedDocumentResponse8CopyFromERKS2_
libkiapi.so.9.0.1:_ZN5kiapi6common8commands21SavedDocumentResponse9MergeImplERN6google8protobuf7MessageERKS5_
libkiapi.so.9.0.1:_ZN5kiapi6common8commands21SavedDocumentResponse9_Internal8documentEPKS2_
libkiapi.so.9.0.1:_ZN5kiapi6common8commands21SavedDocumentResponseC1EPN6google8protobuf5ArenaE
libkiapi.so.9.0.1:_ZN5kiapi6common8commands21SavedDocumentResponseC1EPN6google8protobuf5ArenaERKS2_
libkiapi.so.9.0.1:_ZN5kiapi6common8commands21SavedDocumentResponseC2EPN6google8protobuf5ArenaE
libkiapi.so.9.0.1:_ZN5kiapi6common8commands21SavedDocumentResponseC2EPN6google8protobuf5ArenaERKS2_
libkiapi.so.9.0.1:_ZN5kiapi6common8commands21SavedDocumentResponseD0Ev
libkiapi.so.9.0.1:_ZN5kiapi6common8commands21SavedDocumentResponseD1Ev
libkiapi.so.9.0.1:_ZN5kiapi6common8commands21SavedDocumentResponseD2Ev
libkiapi.so.9.0.1:_ZN5kiapi6common8commands22GetBoundingBoxResponse11clear_boxesEv
libkiapi.so.9.0.1:_ZN5kiapi6common8commands22GetBoundingBoxResponse11clear_itemsEv
libkiapi.so.9.0.1:_ZN5kiapi6common8commands22GetBoundingBoxResponse12InternalSwapEPS2_
libkiapi.so.9.0.1:_ZN5kiapi6common8commands22GetBoundingBoxResponse14_InternalParseEPKcPN6google8protobuf8internal12ParseContextE
libkiapi.so.9.0.1:_ZN5kiapi6common8commands22GetBoundingBoxResponse5ClearEv
libkiapi.so.9.0.1:_ZN5kiapi6common8commands22GetBoundingBoxResponse8CopyFromERKS2_
libkiapi.so.9.0.1:_ZN5kiapi6common8commands22GetBoundingBoxResponse9MergeImplERN6google8protobuf7MessageERKS5_
libkiapi.so.9.0.1:_ZN5kiapi6common8commands22GetBoundingBoxResponseC1EPN6google8protobuf5ArenaE
libkiapi.so.9.0.1:_ZN5kiapi6common8commands22GetBoundingBoxResponseC1EPN6google8protobuf5ArenaERKS2_
libkiapi.so.9.0.1:_ZN5kiapi6common8commands22GetBoundingBoxResponseC2EPN6google8protobuf5ArenaE
libkiapi.so.9.0.1:_ZN5kiapi6common8commands22GetBoundingBoxResponseC2EPN6google8protobuf5ArenaERKS2_
libkiapi.so.9.0.1:_ZN5kiapi6common8commands22GetBoundingBoxResponseD0Ev
libkiapi.so.9.0.1:_ZN5kiapi6common8commands22GetBoundingBoxResponseD1Ev
libkiapi.so.9.0.1:_ZN5kiapi6common8commands22GetBoundingBoxResponseD2Ev
libkiapi.so.9.0.1:_ZN5kiapi6common8commands22ItemStatusCode_IsValidEi
libkiapi.so.9.0.1:_ZN5kiapi6common8commands22SavedSelectionResponse12InternalSwapEPS2_
libkiapi.so.9.0.1:_ZN5kiapi6common8commands22SavedSelectionResponse14_InternalParseEPKcPN6google8protobuf8internal12ParseContextE
libkiapi.so.9.0.1:_ZN5kiapi6common8commands22SavedSelectionResponse5ClearEv
libkiapi.so.9.0.1:_ZN5kiapi6common8commands22SavedSelectionResponse8CopyFromERKS2_
libkiapi.so.9.0.1:_ZN5kiapi6common8commands22SavedSelectionResponse9MergeImplERN6google8protobuf7MessageERKS5_
libkiapi.so.9.0.1:_ZN5kiapi6common8commands22SavedSelectionResponse9clear_idsEv
libkiapi.so.9.0.1:_ZN5kiapi6common8commands22SavedSelectionResponseC1EPN6google8protobuf5ArenaE
libkiapi.so.9.0.1:_ZN5kiapi6common8commands22SavedSelectionResponseC1EPN6google8protobuf5ArenaERKS2_
libkiapi.so.9.0.1:_ZN5kiapi6common8commands22SavedSelectionResponseC2EPN6google8protobuf5ArenaE
libkiapi.so.9.0.1:_ZN5kiapi6common8commands22SavedSelectionResponseC2EPN6google8protobuf5ArenaERKS2_
libkiapi.so.9.0.1:_ZN5kiapi6common8commands22SavedSelectionResponseD0Ev
libkiapi.so.9.0.1:_ZN5kiapi6common8commands22SavedSelectionResponseD1Ev
libkiapi.so.9.0.1:_ZN5kiapi6common8commands22SavedSelectionResponseD2Ev
libkiapi.so.9.0.1:_ZN5kiapi6common8commands23BoundingBoxMode_IsValidEi
libkiapi.so.9.0.1:_ZN5kiapi6common8commands23CommitAction_descriptorEv
libkiapi.so.9.0.1:_ZN5kiapi6common8commands23GetTextAsShapesResponse12InternalSwapEPS2_
libkiapi.so.9.0.1:_ZN5kiapi6common8commands23GetTextAsShapesResponse14_InternalParseEPKcPN6google8protobuf8internal12ParseContextE
libkiapi.so.9.0.1:_ZN5kiapi6common8commands23GetTextAsShapesResponse5ClearEv
libkiapi.so.9.0.1:_ZN5kiapi6common8commands23GetTextAsShapesResponse8CopyFromERKS2_
libkiapi.so.9.0.1:_ZN5kiapi6common8commands23GetTextAsShapesResponse9MergeImplERN6google8protobuf7MessageERKS5_
libkiapi.so.9.0.1:_ZN5kiapi6common8commands23GetTextAsShapesResponseC1EPN6google8protobuf5ArenaE
libkiapi.so.9.0.1:_ZN5kiapi6common8commands23GetTextAsShapesResponseC1EPN6google8protobuf5ArenaERKS2_
libkiapi.so.9.0.1:_ZN5kiapi6common8commands23GetTextAsShapesResponseC2EPN6google8protobuf5ArenaE
libkiapi.so.9.0.1:_ZN5kiapi6common8commands23GetTextAsShapesResponseC2EPN6google8protobuf5ArenaERKS2_
libkiapi.so.9.0.1:_ZN5kiapi6common8commands23GetTextAsShapesResponseD0Ev
libkiapi.so.9.0.1:_ZN5kiapi6common8commands23GetTextAsShapesResponseD1Ev
libkiapi.so.9.0.1:_ZN5kiapi6common8commands23GetTextAsShapesResponseD2Ev
libkiapi.so.9.0.1:_ZN5kiapi6common8commands23RunActionStatus_IsValidEi
libkiapi.so.9.0.1:_ZN5kiapi6common8commands24GetOpenDocumentsResponse12InternalSwapEPS2_
libkiapi.so.9.0.1:_ZN5kiapi6common8commands24GetOpenDocumentsResponse14_InternalParseEPKcPN6google8protobuf8internal12ParseContextE
libkiapi.so.9.0.1:_ZN5kiapi6common8commands24GetOpenDocumentsResponse15clear_documentsEv
libkiapi.so.9.0.1:_ZN5kiapi6common8commands24GetOpenDocumentsResponse5ClearEv
libkiapi.so.9.0.1:_ZN5kiapi6common8commands24GetOpenDocumentsResponse8CopyFromERKS2_
libkiapi.so.9.0.1:_ZN5kiapi6common8commands24GetOpenDocumentsResponse9MergeImplERN6google8protobuf7MessageERKS5_
libkiapi.so.9.0.1:_ZN5kiapi6common8commands24GetOpenDocumentsResponseC1EPN6google8protobuf5ArenaE
libkiapi.so.9.0.1:_ZN5kiapi6common8commands24GetOpenDocumentsResponseC1EPN6google8protobuf5ArenaERKS2_
libkiapi.so.9.0.1:_ZN5kiapi6common8commands24GetOpenDocumentsResponseC2EPN6google8protobuf5ArenaE
libkiapi.so.9.0.1:_ZN5kiapi6common8commands24GetOpenDocumentsResponseC2EPN6google8protobuf5ArenaERKS2_
libkiapi.so.9.0.1:_ZN5kiapi6common8commands24GetOpenDocumentsResponseD0Ev
libkiapi.so.9.0.1:_ZN5kiapi6common8commands24GetOpenDocumentsResponseD1Ev
libkiapi.so.9.0.1:_ZN5kiapi6common8commands24GetOpenDocumentsResponseD2Ev
libkiapi.so.9.0.1:_ZN5kiapi6common8commands24HitTestResult_descriptorEv
libkiapi.so.9.0.1:_ZN5kiapi6common8commands25ItemStatusCode_descriptorEv
libkiapi.so.9.0.1:_ZN5kiapi6common8commands26BoundingBoxMode_descriptorEv
libkiapi.so.9.0.1:_ZN5kiapi6common8commands26ItemDeletionStatus_IsValidEi
libkiapi.so.9.0.1:_ZN5kiapi6common8commands26RunActionStatus_descriptorEv
libkiapi.so.9.0.1:_ZN5kiapi6common8commands27ExpandTextVariablesResponse12InternalSwapEPS2_
libkiapi.so.9.0.1:_ZN5kiapi6common8commands27ExpandTextVariablesResponse14_InternalParseEPKcPN6google8protobuf8internal12ParseContextE
libkiapi.so.9.0.1:_ZN5kiapi6common8commands27ExpandTextVariablesResponse5ClearEv
libkiapi.so.9.0.1:_ZN5kiapi6common8commands27ExpandTextVariablesResponse8CopyFromERKS2_
libkiapi.so.9.0.1:_ZN5kiapi6common8commands27ExpandTextVariablesResponse9MergeImplERN6google8protobuf7MessageERKS5_
libkiapi.so.9.0.1:_ZN5kiapi6common8commands27ExpandTextVariablesResponseC1EPN6google8protobuf5ArenaE
libkiapi.so.9.0.1:_ZN5kiapi6common8commands27ExpandTextVariablesResponseC1EPN6google8protobuf5ArenaERKS2_
libkiapi.so.9.0.1:_ZN5kiapi6common8commands27ExpandTextVariablesResponseC2EPN6google8protobuf5ArenaE
libkiapi.so.9.0.1:_ZN5kiapi6common8commands27ExpandTextVariablesResponseC2EPN6google8protobuf5ArenaERKS2_
libkiapi.so.9.0.1:_ZN5kiapi6common8commands27ExpandTextVariablesResponseD0Ev
libkiapi.so.9.0.1:_ZN5kiapi6common8commands27ExpandTextVariablesResponseD1Ev
libkiapi.so.9.0.1:_ZN5kiapi6common8commands27ExpandTextVariablesResponseD2Ev
libkiapi.so.9.0.1:_ZN5kiapi6common8commands29ItemDeletionStatus_descriptorEv
libkiapi.so.9.0.1:_ZN5kiapi6common8commands29ParseAndCreateItemsFromString12InternalSwapEPS2_
libkiapi.so.9.0.1:_ZN5kiapi6common8commands29ParseAndCreateItemsFromString14_InternalParseEPKcPN6google8protobuf8internal12ParseContextE
libkiapi.so.9.0.1:_ZN5kiapi6common8commands29ParseAndCreateItemsFromString14clear_documentEv
libkiapi.so.9.0.1:_ZN5kiapi6common8commands29ParseAndCreateItemsFromString5ClearEv
libkiapi.so.9.0.1:_ZN5kiapi6common8commands29ParseAndCreateItemsFromString8CopyFromERKS2_
libkiapi.so.9.0.1:_ZN5kiapi6common8commands29ParseAndCreateItemsFromString9MergeImplERN6google8protobuf7MessageERKS5_
libkiapi.so.9.0.1:_ZN5kiapi6common8commands29ParseAndCreateItemsFromString9_Internal8documentEPKS2_
libkiapi.so.9.0.1:_ZN5kiapi6common8commands29ParseAndCreateItemsFromStringC1EPN6google8protobuf5ArenaE
libkiapi.so.9.0.1:_ZN5kiapi6common8commands29ParseAndCreateItemsFromStringC1EPN6google8protobuf5ArenaERKS2_
libkiapi.so.9.0.1:_ZN5kiapi6common8commands29ParseAndCreateItemsFromStringC2EPN6google8protobuf5ArenaE
libkiapi.so.9.0.1:_ZN5kiapi6common8commands29ParseAndCreateItemsFromStringC2EPN6google8protobuf5ArenaERKS2_
libkiapi.so.9.0.1:_ZN5kiapi6common8commands29ParseAndCreateItemsFromStringD0Ev
libkiapi.so.9.0.1:_ZN5kiapi6common8commands29ParseAndCreateItemsFromStringD1Ev
libkiapi.so.9.0.1:_ZN5kiapi6common8commands29ParseAndCreateItemsFromStringD2Ev
libkiapi.so.9.0.1:_ZN5kiapi6common8commands4PingC1EPN6google8protobuf5ArenaE
libkiapi.so.9.0.1:_ZN5kiapi6common8commands4PingC1EPN6google8protobuf5ArenaERKS2_
libkiapi.so.9.0.1:_ZN5kiapi6common8commands4PingC2EPN6google8protobuf5ArenaE
libkiapi.so.9.0.1:_ZN5kiapi6common8commands4PingC2EPN6google8protobuf5ArenaERKS2_
libkiapi.so.9.0.1:_ZN5kiapi6common8commands7HitTest12InternalSwapEPS2_
libkiapi.so.9.0.1:_ZN5kiapi6common8commands7HitTest12clear_headerEv
libkiapi.so.9.0.1:_ZN5kiapi6common8commands7HitTest14_InternalParseEPKcPN6google8protobuf8internal12ParseContextE
libkiapi.so.9.0.1:_ZN5kiapi6common8commands7HitTest14clear_positionEv
libkiapi.so.9.0.1:_ZN5kiapi6common8commands7HitTest5ClearEv
libkiapi.so.9.0.1:_ZN5kiapi6common8commands7HitTest8CopyFromERKS2_
libkiapi.so.9.0.1:_ZN5kiapi6common8commands7HitTest8clear_idEv
libkiapi.so.9.0.1:_ZN5kiapi6common8commands7HitTest9MergeImplERN6google8protobuf7MessageERKS5_
libkiapi.so.9.0.1:_ZN5kiapi6common8commands7HitTest9_Internal2idEPKS2_
libkiapi.so.9.0.1:_ZN5kiapi6common8commands7HitTest9_Internal6headerEPKS2_
libkiapi.so.9.0.1:_ZN5kiapi6common8commands7HitTest9_Internal8positionEPKS2_
libkiapi.so.9.0.1:_ZN5kiapi6common8commands7HitTestC1EPN6google8protobuf5ArenaE
libkiapi.so.9.0.1:_ZN5kiapi6common8commands7HitTestC1EPN6google8protobuf5ArenaERKS2_
libkiapi.so.9.0.1:_ZN5kiapi6common8commands7HitTestC2EPN6google8protobuf5ArenaE
libkiapi.so.9.0.1:_ZN5kiapi6common8commands7HitTestC2EPN6google8protobuf5ArenaERKS2_
libkiapi.so.9.0.1:_ZN5kiapi6common8commands7HitTestD0Ev
libkiapi.so.9.0.1:_ZN5kiapi6common8commands7HitTestD1Ev
libkiapi.so.9.0.1:_ZN5kiapi6common8commands7HitTestD2Ev
libkiapi.so.9.0.1:_ZN5kiapi6common8commands8GetItems12InternalSwapEPS2_
libkiapi.so.9.0.1:_ZN5kiapi6common8commands8GetItems12clear_headerEv
libkiapi.so.9.0.1:_ZN5kiapi6common8commands8GetItems14_InternalParseEPKcPN6google8protobuf8internal12ParseContextE
libkiapi.so.9.0.1:_ZN5kiapi6common8commands8GetItems5ClearEv
libkiapi.so.9.0.1:_ZN5kiapi6common8commands8GetItems8CopyFromERKS2_
libkiapi.so.9.0.1:_ZN5kiapi6common8commands8GetItems9MergeImplERN6google8protobuf7MessageERKS5_
libkiapi.so.9.0.1:_ZN5kiapi6common8commands8GetItems9_Internal6headerEPKS2_
libkiapi.so.9.0.1:_ZN5kiapi6common8commands8GetItemsC1EPN6google8protobuf5ArenaE
libkiapi.so.9.0.1:_ZN5kiapi6common8commands8GetItemsC1EPN6google8protobuf5ArenaERKS2_
libkiapi.so.9.0.1:_ZN5kiapi6common8commands8GetItemsC2EPN6google8protobuf5ArenaE
libkiapi.so.9.0.1:_ZN5kiapi6common8commands8GetItemsC2EPN6google8protobuf5ArenaERKS2_
libkiapi.so.9.0.1:_ZN5kiapi6common8commands8GetItemsD0Ev
libkiapi.so.9.0.1:_ZN5kiapi6common8commands8GetItemsD1Ev
libkiapi.so.9.0.1:_ZN5kiapi6common8commands8GetItemsD2Ev
libkiapi.so.9.0.1:_ZN5kiapi6common8commands9EndCommit12InternalSwapEPS2_
libkiapi.so.9.0.1:_ZN5kiapi6common8commands9EndCommit14_InternalParseEPKcPN6google8protobuf8internal12ParseContextE
libkiapi.so.9.0.1:_ZN5kiapi6common8commands9EndCommit5ClearEv
libkiapi.so.9.0.1:_ZN5kiapi6common8commands9EndCommit8CopyFromERKS2_
libkiapi.so.9.0.1:_ZN5kiapi6common8commands9EndCommit8clear_idEv
libkiapi.so.9.0.1:_ZN5kiapi6common8commands9EndCommit9MergeImplERN6google8protobuf7MessageERKS5_
libkiapi.so.9.0.1:_ZN5kiapi6common8commands9EndCommit9_Internal2idEPKS2_
libkiapi.so.9.0.1:_ZN5kiapi6common8commands9EndCommitC1EPN6google8protobuf5ArenaE
libkiapi.so.9.0.1:_ZN5kiapi6common8commands9EndCommitC1EPN6google8protobuf5ArenaERKS2_
libkiapi.so.9.0.1:_ZN5kiapi6common8commands9EndCommitC2EPN6google8protobuf5ArenaE
libkiapi.so.9.0.1:_ZN5kiapi6common8commands9EndCommitC2EPN6google8protobuf5ArenaERKS2_
libkiapi.so.9.0.1:_ZN5kiapi6common8commands9EndCommitD0Ev
libkiapi.so.9.0.1:_ZN5kiapi6common8commands9EndCommitD1Ev
libkiapi.so.9.0.1:_ZN5kiapi6common8commands9EndCommitD2Ev
libkiapi.so.9.0.1:_ZN5kiapi6common8commands9RunAction12InternalSwapEPS2_
libkiapi.so.9.0.1:_ZN5kiapi6common8commands9RunAction14_InternalParseEPKcPN6google8protobuf8internal12ParseContextE
libkiapi.so.9.0.1:_ZN5kiapi6common8commands9RunAction5ClearEv
libkiapi.so.9.0.1:_ZN5kiapi6common8commands9RunAction8CopyFromERKS2_
libkiapi.so.9.0.1:_ZN5kiapi6common8commands9RunAction9MergeImplERN6google8protobuf7MessageERKS5_
libkiapi.so.9.0.1:_ZN5kiapi6common8commands9RunActionC1EPN6google8protobuf5ArenaE
libkiapi.so.9.0.1:_ZN5kiapi6common8commands9RunActionC1EPN6google8protobuf5ArenaERKS2_
libkiapi.so.9.0.1:_ZN5kiapi6common8commands9RunActionC2EPN6google8protobuf5ArenaE
libkiapi.so.9.0.1:_ZN5kiapi6common8commands9RunActionC2EPN6google8protobuf5ArenaERKS2_
libkiapi.so.9.0.1:_ZN5kiapi6common8commands9RunActionD0Ev
libkiapi.so.9.0.1:_ZN5kiapi6common8commands9RunActionD1Ev
libkiapi.so.9.0.1:_ZN5kiapi6common8commands9RunActionD2Ev
libkiapi.so.9.0.1:_ZN5kiapi9schematic5types10LocalLabel12InternalSwapEPS2_
libkiapi.so.9.0.1:_ZN5kiapi9schematic5types10LocalLabel14_InternalParseEPKcPN6google8protobuf8internal12ParseContextE
libkiapi.so.9.0.1:_ZN5kiapi9schematic5types10LocalLabel14clear_positionEv
libkiapi.so.9.0.1:_ZN5kiapi9schematic5types10LocalLabel5ClearEv
libkiapi.so.9.0.1:_ZN5kiapi9schematic5types10LocalLabel8CopyFromERKS2_
libkiapi.so.9.0.1:_ZN5kiapi9schematic5types10LocalLabel8clear_idEv
libkiapi.so.9.0.1:_ZN5kiapi9schematic5types10LocalLabel9MergeImplERN6google8protobuf7MessageERKS5_
libkiapi.so.9.0.1:_ZN5kiapi9schematic5types10LocalLabel9_Internal2idEPKS2_
libkiapi.so.9.0.1:_ZN5kiapi9schematic5types10LocalLabel9_Internal4textEPKS2_
libkiapi.so.9.0.1:_ZN5kiapi9schematic5types10LocalLabel9_Internal8positionEPKS2_
libkiapi.so.9.0.1:_ZN5kiapi9schematic5types10LocalLabelC1EPN6google8protobuf5ArenaE
libkiapi.so.9.0.1:_ZN5kiapi9schematic5types10LocalLabelC1EPN6google8protobuf5ArenaERKS2_
libkiapi.so.9.0.1:_ZN5kiapi9schematic5types10LocalLabelC2EPN6google8protobuf5ArenaE
libkiapi.so.9.0.1:_ZN5kiapi9schematic5types10LocalLabelC2EPN6google8protobuf5ArenaERKS2_
libkiapi.so.9.0.1:_ZN5kiapi9schematic5types10LocalLabelD0Ev
libkiapi.so.9.0.1:_ZN5kiapi9schematic5types10LocalLabelD1Ev
libkiapi.so.9.0.1:_ZN5kiapi9schematic5types10LocalLabelD2Ev
libkiapi.so.9.0.1:_ZN5kiapi9schematic5types11GlobalLabel12InternalSwapEPS2_
libkiapi.so.9.0.1:_ZN5kiapi9schematic5types11GlobalLabel14_InternalParseEPKcPN6google8protobuf8internal12ParseContextE
libkiapi.so.9.0.1:_ZN5kiapi9schematic5types11GlobalLabel14clear_positionEv
libkiapi.so.9.0.1:_ZN5kiapi9schematic5types11GlobalLabel5ClearEv
libkiapi.so.9.0.1:_ZN5kiapi9schematic5types11GlobalLabel8CopyFromERKS2_
libkiapi.so.9.0.1:_ZN5kiapi9schematic5types11GlobalLabel8clear_idEv
libkiapi.so.9.0.1:_ZN5kiapi9schematic5types11GlobalLabel9MergeImplERN6google8protobuf7MessageERKS5_
libkiapi.so.9.0.1:_ZN5kiapi9schematic5types11GlobalLabel9_Internal2idEPKS2_
libkiapi.so.9.0.1:_ZN5kiapi9schematic5types11GlobalLabel9_Internal4textEPKS2_
libkiapi.so.9.0.1:_ZN5kiapi9schematic5types11GlobalLabel9_Internal8positionEPKS2_
libkiapi.so.9.0.1:_ZN5kiapi9schematic5types11GlobalLabelC1EPN6google8protobuf5ArenaE
libkiapi.so.9.0.1:_ZN5kiapi9schematic5types11GlobalLabelC1EPN6google8protobuf5ArenaERKS2_
libkiapi.so.9.0.1:_ZN5kiapi9schematic5types11GlobalLabelC2EPN6google8protobuf5ArenaE
libkiapi.so.9.0.1:_ZN5kiapi9schematic5types11GlobalLabelC2EPN6google8protobuf5ArenaERKS2_
libkiapi.so.9.0.1:_ZN5kiapi9schematic5types11GlobalLabelD0Ev
libkiapi.so.9.0.1:_ZN5kiapi9schematic5types11GlobalLabelD1Ev
libkiapi.so.9.0.1:_ZN5kiapi9schematic5types11GlobalLabelD2Ev
libkiapi.so.9.0.1:_ZN5kiapi9schematic5types14DirectiveLabel12InternalSwapEPS2_
libkiapi.so.9.0.1:_ZN5kiapi9schematic5types14DirectiveLabel14_InternalParseEPKcPN6google8protobuf8internal12ParseContextE
libkiapi.so.9.0.1:_ZN5kiapi9schematic5types14DirectiveLabel14clear_positionEv
libkiapi.so.9.0.1:_ZN5kiapi9schematic5types14DirectiveLabel5ClearEv
libkiapi.so.9.0.1:_ZN5kiapi9schematic5types14DirectiveLabel8CopyFromERKS2_
libkiapi.so.9.0.1:_ZN5kiapi9schematic5types14DirectiveLabel8clear_idEv
libkiapi.so.9.0.1:_ZN5kiapi9schematic5types14DirectiveLabel9MergeImplERN6google8protobuf7MessageERKS5_
libkiapi.so.9.0.1:_ZN5kiapi9schematic5types14DirectiveLabel9_Internal2idEPKS2_
libkiapi.so.9.0.1:_ZN5kiapi9schematic5types14DirectiveLabel9_Internal4textEPKS2_
libkiapi.so.9.0.1:_ZN5kiapi9schematic5types14DirectiveLabel9_Internal8positionEPKS2_
libkiapi.so.9.0.1:_ZN5kiapi9schematic5types14DirectiveLabelC1EPN6google8protobuf5ArenaE
libkiapi.so.9.0.1:_ZN5kiapi9schematic5types14DirectiveLabelC1EPN6google8protobuf5ArenaERKS2_
libkiapi.so.9.0.1:_ZN5kiapi9schematic5types14DirectiveLabelC2EPN6google8protobuf5ArenaE
libkiapi.so.9.0.1:_ZN5kiapi9schematic5types14DirectiveLabelC2EPN6google8protobuf5ArenaERKS2_
libkiapi.so.9.0.1:_ZN5kiapi9schematic5types14DirectiveLabelD0Ev
libkiapi.so.9.0.1:_ZN5kiapi9schematic5types14DirectiveLabelD1Ev
libkiapi.so.9.0.1:_ZN5kiapi9schematic5types14DirectiveLabelD2Ev
libkiapi.so.9.0.1:_ZN5kiapi9schematic5types17HierarchicalLabel12InternalSwapEPS2_
libkiapi.so.9.0.1:_ZN5kiapi9schematic5types17HierarchicalLabel14_InternalParseEPKcPN6google8protobuf8internal12ParseContextE
libkiapi.so.9.0.1:_ZN5kiapi9schematic5types17HierarchicalLabel14clear_positionEv
libkiapi.so.9.0.1:_ZN5kiapi9schematic5types17HierarchicalLabel5ClearEv
libkiapi.so.9.0.1:_ZN5kiapi9schematic5types17HierarchicalLabel8CopyFromERKS2_
libkiapi.so.9.0.1:_ZN5kiapi9schematic5types17HierarchicalLabel8clear_idEv
libkiapi.so.9.0.1:_ZN5kiapi9schematic5types17HierarchicalLabel9MergeImplERN6google8protobuf7MessageERKS5_
libkiapi.so.9.0.1:_ZN5kiapi9schematic5types17HierarchicalLabel9_Internal2idEPKS2_
libkiapi.so.9.0.1:_ZN5kiapi9schematic5types17HierarchicalLabel9_Internal4textEPKS2_
libkiapi.so.9.0.1:_ZN5kiapi9schematic5types17HierarchicalLabel9_Internal8positionEPKS2_
libkiapi.so.9.0.1:_ZN5kiapi9schematic5types17HierarchicalLabelC1EPN6google8protobuf5ArenaE
libkiapi.so.9.0.1:_ZN5kiapi9schematic5types17HierarchicalLabelC1EPN6google8protobuf5ArenaERKS2_
libkiapi.so.9.0.1:_ZN5kiapi9schematic5types17HierarchicalLabelC2EPN6google8protobuf5ArenaE
libkiapi.so.9.0.1:_ZN5kiapi9schematic5types17HierarchicalLabelC2EPN6google8protobuf5ArenaERKS2_
libkiapi.so.9.0.1:_ZN5kiapi9schematic5types17HierarchicalLabelD0Ev
libkiapi.so.9.0.1:_ZN5kiapi9schematic5types17HierarchicalLabelD1Ev
libkiapi.so.9.0.1:_ZN5kiapi9schematic5types17HierarchicalLabelD2Ev
libkiapi.so.9.0.1:_ZN5kiapi9schematic5types22SchematicLayer_IsValidEi
libkiapi.so.9.0.1:_ZN5kiapi9schematic5types25SchematicLayer_descriptorEv
libkiapi.so.9.0.1:_ZN5kiapi9schematic5types4Line11clear_startEv
libkiapi.so.9.0.1:_ZN5kiapi9schematic5types4Line12InternalSwapEPS2_
libkiapi.so.9.0.1:_ZN5kiapi9schematic5types4Line14_InternalParseEPKcPN6google8protobuf8internal12ParseContextE
libkiapi.so.9.0.1:_ZN5kiapi9schematic5types4Line5ClearEv
libkiapi.so.9.0.1:_ZN5kiapi9schematic5types4Line8CopyFromERKS2_
libkiapi.so.9.0.1:_ZN5kiapi9schematic5types4Line8clear_idEv
libkiapi.so.9.0.1:_ZN5kiapi9schematic5types4Line9MergeImplERN6google8protobuf7MessageERKS5_
libkiapi.so.9.0.1:_ZN5kiapi9schematic5types4Line9_Internal2idEPKS2_
libkiapi.so.9.0.1:_ZN5kiapi9schematic5types4Line9_Internal3endEPKS2_
libkiapi.so.9.0.1:_ZN5kiapi9schematic5types4Line9_Internal5startEPKS2_
libkiapi.so.9.0.1:_ZN5kiapi9schematic5types4Line9clear_endEv
libkiapi.so.9.0.1:_ZN5kiapi9schematic5types4LineC1EPN6google8protobuf5ArenaE
libkiapi.so.9.0.1:_ZN5kiapi9schematic5types4LineC1EPN6google8protobuf5ArenaERKS2_
libkiapi.so.9.0.1:_ZN5kiapi9schematic5types4LineC2EPN6google8protobuf5ArenaE
libkiapi.so.9.0.1:_ZN5kiapi9schematic5types4LineC2EPN6google8protobuf5ArenaERKS2_
libkiapi.so.9.0.1:_ZN5kiapi9schematic5types4LineD0Ev
libkiapi.so.9.0.1:_ZN5kiapi9schematic5types4LineD1Ev
libkiapi.so.9.0.1:_ZN5kiapi9schematic5types4LineD2Ev
libkiapi.so.9.0.1:_ZN5kiapi9schematic5types4Text10clear_textEv
libkiapi.so.9.0.1:_ZN5kiapi9schematic5types4Text12InternalSwapEPS2_
libkiapi.so.9.0.1:_ZN5kiapi9schematic5types4Text14_InternalParseEPKcPN6google8protobuf8internal12ParseContextE
libkiapi.so.9.0.1:_ZN5kiapi9schematic5types4Text5ClearEv
libkiapi.so.9.0.1:_ZN5kiapi9schematic5types4Text8CopyFromERKS2_
libkiapi.so.9.0.1:_ZN5kiapi9schematic5types4Text9MergeImplERN6google8protobuf7MessageERKS5_
libkiapi.so.9.0.1:_ZN5kiapi9schematic5types4Text9_Internal4textEPKS2_
libkiapi.so.9.0.1:_ZN5kiapi9schematic5types4TextC1EPN6google8protobuf5ArenaE
libkiapi.so.9.0.1:_ZN5kiapi9schematic5types4TextC1EPN6google8protobuf5ArenaERKS2_
libkiapi.so.9.0.1:_ZN5kiapi9schematic5types4TextC2EPN6google8protobuf5ArenaE
libkiapi.so.9.0.1:_ZN5kiapi9schematic5types4TextC2EPN6google8protobuf5ArenaERKS2_
libkiapi.so.9.0.1:_ZN5kiapi9schematic5types4TextD0Ev
libkiapi.so.9.0.1:_ZN5kiapi9schematic5types4TextD1Ev
libkiapi.so.9.0.1:_ZN5kiapi9schematic5types4TextD2Ev
libkiapi.so.9.0.1:_ZNK5kiapi5board11BoardFinish11GetMetadataEv
libkiapi.so.9.0.1:_ZNK5kiapi5board11BoardFinish12ByteSizeLongEv
libkiapi.so.9.0.1:_ZNK5kiapi5board11BoardFinish12GetClassDataEv
libkiapi.so.9.0.1:_ZNK5kiapi5board11BoardFinish13IsInitializedEv
libkiapi.so.9.0.1:_ZNK5kiapi5board11BoardFinish16AccessCachedSizeEv
libkiapi.so.9.0.1:_ZNK5kiapi5board11BoardFinish18_InternalSerializeEPhPN6google8protobuf2io19EpsCopyOutputStreamE
libkiapi.so.9.0.1:_ZNK5kiapi5board11EdgePlating11GetMetadataEv
libkiapi.so.9.0.1:_ZNK5kiapi5board11EdgePlating12ByteSizeLongEv
libkiapi.so.9.0.1:_ZNK5kiapi5board11EdgePlating12GetClassDataEv
libkiapi.so.9.0.1:_ZNK5kiapi5board11EdgePlating13IsInitializedEv
libkiapi.so.9.0.1:_ZNK5kiapi5board11EdgePlating16AccessCachedSizeEv
libkiapi.so.9.0.1:_ZNK5kiapi5board11EdgePlating18_InternalSerializeEPhPN6google8protobuf2io19EpsCopyOutputStreamE
libkiapi.so.9.0.1:_ZNK5kiapi5board12BoardStackup11GetMetadataEv
libkiapi.so.9.0.1:_ZNK5kiapi5board12BoardStackup12ByteSizeLongEv
libkiapi.so.9.0.1:_ZNK5kiapi5board12BoardStackup12GetClassDataEv
libkiapi.so.9.0.1:_ZNK5kiapi5board12BoardStackup13IsInitializedEv
libkiapi.so.9.0.1:_ZNK5kiapi5board12BoardStackup16AccessCachedSizeEv
libkiapi.so.9.0.1:_ZNK5kiapi5board12BoardStackup18_InternalSerializeEPhPN6google8protobuf2io19EpsCopyOutputStreamE
libkiapi.so.9.0.1:_ZNK5kiapi5board12Castellation11GetMetadataEv
libkiapi.so.9.0.1:_ZNK5kiapi5board12Castellation12ByteSizeLongEv
libkiapi.so.9.0.1:_ZNK5kiapi5board12Castellation12GetClassDataEv
libkiapi.so.9.0.1:_ZNK5kiapi5board12Castellation13IsInitializedEv
libkiapi.so.9.0.1:_ZNK5kiapi5board12Castellation16AccessCachedSizeEv
libkiapi.so.9.0.1:_ZNK5kiapi5board12Castellation18_InternalSerializeEPhPN6google8protobuf2io19EpsCopyOutputStreamE
libkiapi.so.9.0.1:_ZNK5kiapi5board13BoardSettings11GetMetadataEv
libkiapi.so.9.0.1:_ZNK5kiapi5board13BoardSettings12ByteSizeLongEv
libkiapi.so.9.0.1:_ZNK5kiapi5board13BoardSettings12GetClassDataEv
libkiapi.so.9.0.1:_ZNK5kiapi5board13BoardSettings13IsInitializedEv
libkiapi.so.9.0.1:_ZNK5kiapi5board13BoardSettings16AccessCachedSizeEv
libkiapi.so.9.0.1:_ZNK5kiapi5board13BoardSettings18_InternalSerializeEPhPN6google8protobuf2io19EpsCopyOutputStreamE
libkiapi.so.9.0.1:_ZNK5kiapi5board16BoardDesignRules11GetMetadataEv
libkiapi.so.9.0.1:_ZNK5kiapi5board16GraphicsDefaults11GetMetadataEv
libkiapi.so.9.0.1:_ZNK5kiapi5board16GraphicsDefaults12ByteSizeLongEv
libkiapi.so.9.0.1:_ZNK5kiapi5board16GraphicsDefaults12GetClassDataEv
libkiapi.so.9.0.1:_ZNK5kiapi5board16GraphicsDefaults13IsInitializedEv
libkiapi.so.9.0.1:_ZNK5kiapi5board16GraphicsDefaults16AccessCachedSizeEv
libkiapi.so.9.0.1:_ZNK5kiapi5board16GraphicsDefaults18_InternalSerializeEPhPN6google8protobuf2io19EpsCopyOutputStreamE
libkiapi.so.9.0.1:_ZNK5kiapi5board17BoardEdgeSettings11GetMetadataEv
libkiapi.so.9.0.1:_ZNK5kiapi5board17BoardEdgeSettings12ByteSizeLongEv
libkiapi.so.9.0.1:_ZNK5kiapi5board17BoardEdgeSettings12GetClassDataEv
libkiapi.so.9.0.1:_ZNK5kiapi5board17BoardEdgeSettings13IsInitializedEv
libkiapi.so.9.0.1:_ZNK5kiapi5board17BoardEdgeSettings16AccessCachedSizeEv
libkiapi.so.9.0.1:_ZNK5kiapi5board17BoardEdgeSettings18_InternalSerializeEPhPN6google8protobuf2io19EpsCopyOutputStreamE
libkiapi.so.9.0.1:_ZNK5kiapi5board17BoardStackupLayer11GetMetadataEv
libkiapi.so.9.0.1:_ZNK5kiapi5board17BoardStackupLayer12ByteSizeLongEv
libkiapi.so.9.0.1:_ZNK5kiapi5board17BoardStackupLayer12GetClassDataEv
libkiapi.so.9.0.1:_ZNK5kiapi5board17BoardStackupLayer13IsInitializedEv
libkiapi.so.9.0.1:_ZNK5kiapi5board17BoardStackupLayer16AccessCachedSizeEv
libkiapi.so.9.0.1:_ZNK5kiapi5board17BoardStackupLayer18_InternalSerializeEPhPN6google8protobuf2io19EpsCopyOutputStreamE
libkiapi.so.9.0.1:_ZNK5kiapi5board18BoardEdgeConnector11GetMetadataEv
libkiapi.so.9.0.1:_ZNK5kiapi5board21BoardImpedanceControl11GetMetadataEv
libkiapi.so.9.0.1:_ZNK5kiapi5board21BoardImpedanceControl12ByteSizeLongEv
libkiapi.so.9.0.1:_ZNK5kiapi5board21BoardImpedanceControl12GetClassDataEv
libkiapi.so.9.0.1:_ZNK5kiapi5board21BoardImpedanceControl13IsInitializedEv
libkiapi.so.9.0.1:_ZNK5kiapi5board21BoardImpedanceControl16AccessCachedSizeEv
libkiapi.so.9.0.1:_ZNK5kiapi5board21BoardImpedanceControl18_InternalSerializeEPhPN6google8protobuf2io19EpsCopyOutputStreamE
libkiapi.so.9.0.1:_ZNK5kiapi5board23BoardStackupCopperLayer11GetMetadataEv
libkiapi.so.9.0.1:_ZNK5kiapi5board26BoardLayerGraphicsDefaults11GetMetadataEv
libkiapi.so.9.0.1:_ZNK5kiapi5board26BoardLayerGraphicsDefaults12ByteSizeLongEv
libkiapi.so.9.0.1:_ZNK5kiapi5board26BoardLayerGraphicsDefaults12GetClassDataEv
libkiapi.so.9.0.1:_ZNK5kiapi5board26BoardLayerGraphicsDefaults13IsInitializedEv
libkiapi.so.9.0.1:_ZNK5kiapi5board26BoardLayerGraphicsDefaults16AccessCachedSizeEv
libkiapi.so.9.0.1:_ZNK5kiapi5board26BoardLayerGraphicsDefaults18_InternalSerializeEPhPN6google8protobuf2io19EpsCopyOutputStreamE
libkiapi.so.9.0.1:_ZNK5kiapi5board27BoardStackupDielectricLayer11GetMetadataEv
libkiapi.so.9.0.1:_ZNK5kiapi5board27BoardStackupDielectricLayer12ByteSizeLongEv
libkiapi.so.9.0.1:_ZNK5kiapi5board27BoardStackupDielectricLayer12GetClassDataEv
libkiapi.so.9.0.1:_ZNK5kiapi5board27BoardStackupDielectricLayer13IsInitializedEv
libkiapi.so.9.0.1:_ZNK5kiapi5board27BoardStackupDielectricLayer16AccessCachedSizeEv
libkiapi.so.9.0.1:_ZNK5kiapi5board27BoardStackupDielectricLayer18_InternalSerializeEPhPN6google8protobuf2io19EpsCopyOutputStreamE
libkiapi.so.9.0.1:_ZNK5kiapi5board32BoardStackupDielectricProperties11GetMetadataEv
libkiapi.so.9.0.1:_ZNK5kiapi5board32BoardStackupDielectricProperties12ByteSizeLongEv
libkiapi.so.9.0.1:_ZNK5kiapi5board32BoardStackupDielectricProperties12GetClassDataEv
libkiapi.so.9.0.1:_ZNK5kiapi5board32BoardStackupDielectricProperties13IsInitializedEv
libkiapi.so.9.0.1:_ZNK5kiapi5board32BoardStackupDielectricProperties16AccessCachedSizeEv
libkiapi.so.9.0.1:_ZNK5kiapi5board32BoardStackupDielectricProperties18_InternalSerializeEPhPN6google8protobuf2io19EpsCopyOutputStreamE
libkiapi.so.9.0.1:_ZNK5kiapi5board5types12BoardTextBox11GetMetadataEv
libkiapi.so.9.0.1:_ZNK5kiapi5board5types12BoardTextBox12ByteSizeLongEv
libkiapi.so.9.0.1:_ZNK5kiapi5board5types12BoardTextBox12GetClassDataEv
libkiapi.so.9.0.1:_ZNK5kiapi5board5types12BoardTextBox13IsInitializedEv
libkiapi.so.9.0.1:_ZNK5kiapi5board5types12BoardTextBox16AccessCachedSizeEv
libkiapi.so.9.0.1:_ZNK5kiapi5board5types12BoardTextBox18_InternalSerializeEPhPN6google8protobuf2io19EpsCopyOutputStreamE
libkiapi.so.9.0.1:_ZNK5kiapi5board5types13PadStackLayer11GetMetadataEv
libkiapi.so.9.0.1:_ZNK5kiapi5board5types13PadStackLayer12ByteSizeLongEv
libkiapi.so.9.0.1:_ZNK5kiapi5board5types13PadStackLayer12GetClassDataEv
libkiapi.so.9.0.1:_ZNK5kiapi5board5types13PadStackLayer13IsInitializedEv
libkiapi.so.9.0.1:_ZNK5kiapi5board5types13PadStackLayer16AccessCachedSizeEv
libkiapi.so.9.0.1:_ZNK5kiapi5board5types13PadStackLayer18_InternalSerializeEPhPN6google8protobuf2io19EpsCopyOutputStreamE
libkiapi.so.9.0.1:_ZNK5kiapi5board5types14ReferenceImage11GetMetadataEv
libkiapi.so.9.0.1:_ZNK5kiapi5board5types15DrillProperties11GetMetadataEv
libkiapi.so.9.0.1:_ZNK5kiapi5board5types15DrillProperties12ByteSizeLongEv
libkiapi.so.9.0.1:_ZNK5kiapi5board5types15DrillProperties12GetClassDataEv
libkiapi.so.9.0.1:_ZNK5kiapi5board5types15DrillProperties13IsInitializedEv
libkiapi.so.9.0.1:_ZNK5kiapi5board5types15DrillProperties16AccessCachedSizeEv
libkiapi.so.9.0.1:_ZNK5kiapi5board5types15DrillProperties18_InternalSerializeEPhPN6google8protobuf2io19EpsCopyOutputStreamE
libkiapi.so.9.0.1:_ZNK5kiapi5board5types16Footprint3DModel11GetMetadataEv
libkiapi.so.9.0.1:_ZNK5kiapi5board5types16Footprint3DModel12ByteSizeLongEv
libkiapi.so.9.0.1:_ZNK5kiapi5board5types16Footprint3DModel12GetClassDataEv
libkiapi.so.9.0.1:_ZNK5kiapi5board5types16Footprint3DModel13IsInitializedEv
libkiapi.so.9.0.1:_ZNK5kiapi5board5types16Footprint3DModel16AccessCachedSizeEv
libkiapi.so.9.0.1:_ZNK5kiapi5board5types16Footprint3DModel18_InternalSerializeEPhPN6google8protobuf2io19EpsCopyOutputStreamE
libkiapi.so.9.0.1:_ZNK5kiapi5board5types16NetTieDefinition11GetMetadataEv
libkiapi.so.9.0.1:_ZNK5kiapi5board5types16NetTieDefinition12ByteSizeLongEv
libkiapi.so.9.0.1:_ZNK5kiapi5board5types16NetTieDefinition12GetClassDataEv
libkiapi.so.9.0.1:_ZNK5kiapi5board5types16NetTieDefinition13IsInitializedEv
libkiapi.so.9.0.1:_ZNK5kiapi5board5types16NetTieDefinition16AccessCachedSizeEv
libkiapi.so.9.0.1:_ZNK5kiapi5board5types16NetTieDefinition18_InternalSerializeEPhPN6google8protobuf2io19EpsCopyOutputStreamE
libkiapi.so.9.0.1:_ZNK5kiapi5board5types16RuleAreaSettings11GetMetadataEv
libkiapi.so.9.0.1:_ZNK5kiapi5board5types16RuleAreaSettings12ByteSizeLongEv
libkiapi.so.9.0.1:_ZNK5kiapi5board5types16RuleAreaSettings12GetClassDataEv
libkiapi.so.9.0.1:_ZNK5kiapi5board5types16RuleAreaSettings13IsInitializedEv
libkiapi.so.9.0.1:_ZNK5kiapi5board5types16RuleAreaSettings16AccessCachedSizeEv
libkiapi.so.9.0.1:_ZNK5kiapi5board5types16RuleAreaSettings18_InternalSerializeEPhPN6google8protobuf2io19EpsCopyOutputStreamE
libkiapi.so.9.0.1:_ZNK5kiapi5board5types16TeardropSettings11GetMetadataEv
libkiapi.so.9.0.1:_ZNK5kiapi5board5types16TeardropSettings12ByteSizeLongEv
libkiapi.so.9.0.1:_ZNK5kiapi5board5types16TeardropSettings12GetClassDataEv
libkiapi.so.9.0.1:_ZNK5kiapi5board5types16TeardropSettings13IsInitializedEv
libkiapi.so.9.0.1:_ZNK5kiapi5board5types16TeardropSettings16AccessCachedSizeEv
libkiapi.so.9.0.1:_ZNK5kiapi5board5types16TeardropSettings18_InternalSerializeEPhPN6google8protobuf2io19EpsCopyOutputStreamE
libkiapi.so.9.0.1:_ZNK5kiapi5board5types17BoardGraphicShape11GetMetadataEv
libkiapi.so.9.0.1:_ZNK5kiapi5board5types17BoardGraphicShape12ByteSizeLongEv
libkiapi.so.9.0.1:_ZNK5kiapi5board5types17BoardGraphicShape12GetClassDataEv
libkiapi.so.9.0.1:_ZNK5kiapi5board5types17BoardGraphicShape13IsInitializedEv
libkiapi.so.9.0.1:_ZNK5kiapi5board5types17BoardGraphicShape16AccessCachedSizeEv
libkiapi.so.9.0.1:_ZNK5kiapi5board5types17BoardGraphicShape18_InternalSerializeEPhPN6google8protobuf2io19EpsCopyOutputStreamE
libkiapi.so.9.0.1:_ZNK5kiapi5board5types17FootprintInstance11GetMetadataEv
libkiapi.so.9.0.1:_ZNK5kiapi5board5types17FootprintInstance12ByteSizeLongEv
libkiapi.so.9.0.1:_ZNK5kiapi5board5types17FootprintInstance12GetClassDataEv
libkiapi.so.9.0.1:_ZNK5kiapi5board5types17FootprintInstance13IsInitializedEv
libkiapi.so.9.0.1:_ZNK5kiapi5board5types17FootprintInstance16AccessCachedSizeEv
libkiapi.so.9.0.1:_ZNK5kiapi5board5types17FootprintInstance18_InternalSerializeEPhPN6google8protobuf2io19EpsCopyOutputStreamE
libkiapi.so.9.0.1:_ZNK5kiapi5board5types17HatchFillSettings11GetMetadataEv
libkiapi.so.9.0.1:_ZNK5kiapi5board5types17HatchFillSettings12ByteSizeLongEv
libkiapi.so.9.0.1:_ZNK5kiapi5board5types17HatchFillSettings12GetClassDataEv
libkiapi.so.9.0.1:_ZNK5kiapi5board5types17HatchFillSettings13IsInitializedEv
libkiapi.so.9.0.1:_ZNK5kiapi5board5types17HatchFillSettings16AccessCachedSizeEv
libkiapi.so.9.0.1:_ZNK5kiapi5board5types17HatchFillSettings18_InternalSerializeEPhPN6google8protobuf2io19EpsCopyOutputStreamE
libkiapi.so.9.0.1:_ZNK5kiapi5board5types18CopperZoneSettings11GetMetadataEv
libkiapi.so.9.0.1:_ZNK5kiapi5board5types18CopperZoneSettings12ByteSizeLongEv
libkiapi.so.9.0.1:_ZNK5kiapi5board5types18CopperZoneSettings12GetClassDataEv
libkiapi.so.9.0.1:_ZNK5kiapi5board5types18CopperZoneSettings13IsInitializedEv
libkiapi.so.9.0.1:_ZNK5kiapi5board5types18CopperZoneSettings16AccessCachedSizeEv
libkiapi.so.9.0.1:_ZNK5kiapi5board5types18CopperZoneSettings18_InternalSerializeEPhPN6google8protobuf2io19EpsCopyOutputStreamE
libkiapi.so.9.0.1:_ZNK5kiapi5board5types18PadStackOuterLayer11GetMetadataEv
libkiapi.so.9.0.1:_ZNK5kiapi5board5types18PadStackOuterLayer12ByteSizeLongEv
libkiapi.so.9.0.1:_ZNK5kiapi5board5types18PadStackOuterLayer12GetClassDataEv
libkiapi.so.9.0.1:_ZNK5kiapi5board5types18PadStackOuterLayer13IsInitializedEv
libkiapi.so.9.0.1:_ZNK5kiapi5board5types18PadStackOuterLayer16AccessCachedSizeEv
libkiapi.so.9.0.1:_ZNK5kiapi5board5types18PadStackOuterLayer18_InternalSerializeEPhPN6google8protobuf2io19EpsCopyOutputStreamE
libkiapi.so.9.0.1:_ZNK5kiapi5board5types18ZoneBorderSettings11GetMetadataEv
libkiapi.so.9.0.1:_ZNK5kiapi5board5types18ZoneBorderSettings12ByteSizeLongEv
libkiapi.so.9.0.1:_ZNK5kiapi5board5types18ZoneBorderSettings12GetClassDataEv
libkiapi.so.9.0.1:_ZNK5kiapi5board5types18ZoneBorderSettings13IsInitializedEv
libkiapi.so.9.0.1:_ZNK5kiapi5board5types18ZoneBorderSettings16AccessCachedSizeEv
libkiapi.so.9.0.1:_ZNK5kiapi5board5types18ZoneBorderSettings18_InternalSerializeEPhPN6google8protobuf2io19EpsCopyOutputStreamE
libkiapi.so.9.0.1:_ZNK5kiapi5board5types18ZoneFilledPolygons11GetMetadataEv
libkiapi.so.9.0.1:_ZNK5kiapi5board5types18ZoneFilledPolygons12ByteSizeLongEv
libkiapi.so.9.0.1:_ZNK5kiapi5board5types18ZoneFilledPolygons12GetClassDataEv
libkiapi.so.9.0.1:_ZNK5kiapi5board5types18ZoneFilledPolygons13IsInitializedEv
libkiapi.so.9.0.1:_ZNK5kiapi5board5types18ZoneFilledPolygons16AccessCachedSizeEv
libkiapi.so.9.0.1:_ZNK5kiapi5board5types18ZoneFilledPolygons18_InternalSerializeEPhPN6google8protobuf2io19EpsCopyOutputStreamE
libkiapi.so.9.0.1:_ZNK5kiapi5board5types19FootprintAttributes11GetMetadataEv
libkiapi.so.9.0.1:_ZNK5kiapi5board5types19FootprintAttributes12ByteSizeLongEv
libkiapi.so.9.0.1:_ZNK5kiapi5board5types19FootprintAttributes12GetClassDataEv
libkiapi.so.9.0.1:_ZNK5kiapi5board5types19FootprintAttributes13IsInitializedEv
libkiapi.so.9.0.1:_ZNK5kiapi5board5types19FootprintAttributes16AccessCachedSizeEv
libkiapi.so.9.0.1:_ZNK5kiapi5board5types19FootprintAttributes18_InternalSerializeEPhPN6google8protobuf2io19EpsCopyOutputStreamE
libkiapi.so.9.0.1:_ZNK5kiapi5board5types19SolderMaskOverrides11GetMetadataEv
libkiapi.so.9.0.1:_ZNK5kiapi5board5types19SolderMaskOverrides12ByteSizeLongEv
libkiapi.so.9.0.1:_ZNK5kiapi5board5types19SolderMaskOverrides12GetClassDataEv
libkiapi.so.9.0.1:_ZNK5kiapi5board5types19SolderMaskOverrides13IsInitializedEv
libkiapi.so.9.0.1:_ZNK5kiapi5board5types19SolderMaskOverrides16AccessCachedSizeEv
libkiapi.so.9.0.1:_ZNK5kiapi5board5types19SolderMaskOverrides18_InternalSerializeEPhPN6google8protobuf2io19EpsCopyOutputStreamE
libkiapi.so.9.0.1:_ZNK5kiapi5board5types20ChamferedRectCorners11GetMetadataEv
libkiapi.so.9.0.1:_ZNK5kiapi5board5types20ChamferedRectCorners12ByteSizeLongEv
libkiapi.so.9.0.1:_ZNK5kiapi5board5types20ChamferedRectCorners12GetClassDataEv
libkiapi.so.9.0.1:_ZNK5kiapi5board5types20ChamferedRectCorners13IsInitializedEv
libkiapi.so.9.0.1:_ZNK5kiapi5board5types20ChamferedRectCorners16AccessCachedSizeEv
libkiapi.so.9.0.1:_ZNK5kiapi5board5types20ChamferedRectCorners18_InternalSerializeEPhPN6google8protobuf2io19EpsCopyOutputStreamE
libkiapi.so.9.0.1:_ZNK5kiapi5board5types20SolderPasteOverrides11GetMetadataEv
libkiapi.so.9.0.1:_ZNK5kiapi5board5types20SolderPasteOverrides12ByteSizeLongEv
libkiapi.so.9.0.1:_ZNK5kiapi5board5types20SolderPasteOverrides12GetClassDataEv
libkiapi.so.9.0.1:_ZNK5kiapi5board5types20SolderPasteOverrides13IsInitializedEv
libkiapi.so.9.0.1:_ZNK5kiapi5board5types20SolderPasteOverrides16AccessCachedSizeEv
libkiapi.so.9.0.1:_ZNK5kiapi5board5types20SolderPasteOverrides18_InternalSerializeEPhPN6google8protobuf2io19EpsCopyOutputStreamE
libkiapi.so.9.0.1:_ZNK5kiapi5board5types20ThermalSpokeSettings11GetMetadataEv
libkiapi.so.9.0.1:_ZNK5kiapi5board5types20ThermalSpokeSettings12ByteSizeLongEv
libkiapi.so.9.0.1:_ZNK5kiapi5board5types20ThermalSpokeSettings12GetClassDataEv
libkiapi.so.9.0.1:_ZNK5kiapi5board5types20ThermalSpokeSettings13IsInitializedEv
libkiapi.so.9.0.1:_ZNK5kiapi5board5types20ThermalSpokeSettings16AccessCachedSizeEv
libkiapi.so.9.0.1:_ZNK5kiapi5board5types20ThermalSpokeSettings18_InternalSerializeEPhPN6google8protobuf2io19EpsCopyOutputStreamE
libkiapi.so.9.0.1:_ZNK5kiapi5board5types22ZoneConnectionSettings11GetMetadataEv
libkiapi.so.9.0.1:_ZNK5kiapi5board5types22ZoneConnectionSettings12ByteSizeLongEv
libkiapi.so.9.0.1:_ZNK5kiapi5board5types22ZoneConnectionSettings12GetClassDataEv
libkiapi.so.9.0.1:_ZNK5kiapi5board5types22ZoneConnectionSettings13IsInitializedEv
libkiapi.so.9.0.1:_ZNK5kiapi5board5types22ZoneConnectionSettings16AccessCachedSizeEv
libkiapi.so.9.0.1:_ZNK5kiapi5board5types22ZoneConnectionSettings18_InternalSerializeEPhPN6google8protobuf2io19EpsCopyOutputStreamE
libkiapi.so.9.0.1:_ZNK5kiapi5board5types25CenterDimensionAttributes11GetMetadataEv
libkiapi.so.9.0.1:_ZNK5kiapi5board5types25CenterDimensionAttributes12ByteSizeLongEv
libkiapi.so.9.0.1:_ZNK5kiapi5board5types25CenterDimensionAttributes12GetClassDataEv
libkiapi.so.9.0.1:_ZNK5kiapi5board5types25CenterDimensionAttributes13IsInitializedEv
libkiapi.so.9.0.1:_ZNK5kiapi5board5types25CenterDimensionAttributes16AccessCachedSizeEv
libkiapi.so.9.0.1:_ZNK5kiapi5board5types25CenterDimensionAttributes18_InternalSerializeEPhPN6google8protobuf2io19EpsCopyOutputStreamE
libkiapi.so.9.0.1:_ZNK5kiapi5board5types25LeaderDimensionAttributes11GetMetadataEv
libkiapi.so.9.0.1:_ZNK5kiapi5board5types25LeaderDimensionAttributes12ByteSizeLongEv
libkiapi.so.9.0.1:_ZNK5kiapi5board5types25LeaderDimensionAttributes12GetClassDataEv
libkiapi.so.9.0.1:_ZNK5kiapi5board5types25LeaderDimensionAttributes13IsInitializedEv
libkiapi.so.9.0.1:_ZNK5kiapi5board5types25LeaderDimensionAttributes16AccessCachedSizeEv
libkiapi.so.9.0.1:_ZNK5kiapi5board5types25LeaderDimensionAttributes18_InternalSerializeEPhPN6google8protobuf2io19EpsCopyOutputStreamE
libkiapi.so.9.0.1:_ZNK5kiapi5board5types25RadialDimensionAttributes11GetMetadataEv
libkiapi.so.9.0.1:_ZNK5kiapi5board5types25RadialDimensionAttributes12ByteSizeLongEv
libkiapi.so.9.0.1:_ZNK5kiapi5board5types25RadialDimensionAttributes12GetClassDataEv
libkiapi.so.9.0.1:_ZNK5kiapi5board5types25RadialDimensionAttributes13IsInitializedEv
libkiapi.so.9.0.1:_ZNK5kiapi5board5types25RadialDimensionAttributes16AccessCachedSizeEv
libkiapi.so.9.0.1:_ZNK5kiapi5board5types25RadialDimensionAttributes18_InternalSerializeEPhPN6google8protobuf2io19EpsCopyOutputStreamE
libkiapi.so.9.0.1:_ZNK5kiapi5board5types26AlignedDimensionAttributes11GetMetadataEv
libkiapi.so.9.0.1:_ZNK5kiapi5board5types26AlignedDimensionAttributes12ByteSizeLongEv
libkiapi.so.9.0.1:_ZNK5kiapi5board5types26AlignedDimensionAttributes12GetClassDataEv
libkiapi.so.9.0.1:_ZNK5kiapi5board5types26AlignedDimensionAttributes13IsInitializedEv
libkiapi.so.9.0.1:_ZNK5kiapi5board5types26AlignedDimensionAttributes16AccessCachedSizeEv
libkiapi.so.9.0.1:_ZNK5kiapi5board5types26AlignedDimensionAttributes18_InternalSerializeEPhPN6google8protobuf2io19EpsCopyOutputStreamE
libkiapi.so.9.0.1:_ZNK5kiapi5board5types28FootprintDesignRuleOverrides11GetMetadataEv
libkiapi.so.9.0.1:_ZNK5kiapi5board5types28FootprintDesignRuleOverrides12ByteSizeLongEv
libkiapi.so.9.0.1:_ZNK5kiapi5board5types28FootprintDesignRuleOverrides12GetClassDataEv
libkiapi.so.9.0.1:_ZNK5kiapi5board5types28FootprintDesignRuleOverrides13IsInitializedEv
libkiapi.so.9.0.1:_ZNK5kiapi5board5types28FootprintDesignRuleOverrides16AccessCachedSizeEv
libkiapi.so.9.0.1:_ZNK5kiapi5board5types28FootprintDesignRuleOverrides18_InternalSerializeEPhPN6google8protobuf2io19EpsCopyOutputStreamE
libkiapi.so.9.0.1:_ZNK5kiapi5board5types29OrthogonalDimensionAttributes11GetMetadataEv
libkiapi.so.9.0.1:_ZNK5kiapi5board5types29OrthogonalDimensionAttributes12ByteSizeLongEv
libkiapi.so.9.0.1:_ZNK5kiapi5board5types29OrthogonalDimensionAttributes12GetClassDataEv
libkiapi.so.9.0.1:_ZNK5kiapi5board5types29OrthogonalDimensionAttributes13IsInitializedEv
libkiapi.so.9.0.1:_ZNK5kiapi5board5types29OrthogonalDimensionAttributes16AccessCachedSizeEv
libkiapi.so.9.0.1:_ZNK5kiapi5board5types29OrthogonalDimensionAttributes18_InternalSerializeEPhPN6google8protobuf2io19EpsCopyOutputStreamE
libkiapi.so.9.0.1:_ZNK5kiapi5board5types3Arc11GetMetadataEv
libkiapi.so.9.0.1:_ZNK5kiapi5board5types3Arc12ByteSizeLongEv
libkiapi.so.9.0.1:_ZNK5kiapi5board5types3Arc12GetClassDataEv
libkiapi.so.9.0.1:_ZNK5kiapi5board5types3Arc13IsInitializedEv
libkiapi.so.9.0.1:_ZNK5kiapi5board5types3Arc16AccessCachedSizeEv
libkiapi.so.9.0.1:_ZNK5kiapi5board5types3Arc18_InternalSerializeEPhPN6google8protobuf2io19EpsCopyOutputStreamE
libkiapi.so.9.0.1:_ZNK5kiapi5board5types3Net11GetMetadataEv
libkiapi.so.9.0.1:_ZNK5kiapi5board5types3Net12ByteSizeLongEv
libkiapi.so.9.0.1:_ZNK5kiapi5board5types3Net12GetClassDataEv
libkiapi.so.9.0.1:_ZNK5kiapi5board5types3Net13IsInitializedEv
libkiapi.so.9.0.1:_ZNK5kiapi5board5types3Net16AccessCachedSizeEv
libkiapi.so.9.0.1:_ZNK5kiapi5board5types3Net18_InternalSerializeEPhPN6google8protobuf2io19EpsCopyOutputStreamE
libkiapi.so.9.0.1:_ZNK5kiapi5board5types3Pad11GetMetadataEv
libkiapi.so.9.0.1:_ZNK5kiapi5board5types3Pad12ByteSizeLongEv
libkiapi.so.9.0.1:_ZNK5kiapi5board5types3Pad12GetClassDataEv
libkiapi.so.9.0.1:_ZNK5kiapi5board5types3Pad13IsInitializedEv
libkiapi.so.9.0.1:_ZNK5kiapi5board5types3Pad16AccessCachedSizeEv
libkiapi.so.9.0.1:_ZNK5kiapi5board5types3Pad18_InternalSerializeEPhPN6google8protobuf2io19EpsCopyOutputStreamE
libkiapi.so.9.0.1:_ZNK5kiapi5board5types3Via11GetMetadataEv
libkiapi.so.9.0.1:_ZNK5kiapi5board5types3Via12ByteSizeLongEv
libkiapi.so.9.0.1:_ZNK5kiapi5board5types3Via12GetClassDataEv
libkiapi.so.9.0.1:_ZNK5kiapi5board5types3Via13IsInitializedEv
libkiapi.so.9.0.1:_ZNK5kiapi5board5types3Via16AccessCachedSizeEv
libkiapi.so.9.0.1:_ZNK5kiapi5board5types3Via18_InternalSerializeEPhPN6google8protobuf2io19EpsCopyOutputStreamE
libkiapi.so.9.0.1:_ZNK5kiapi5board5types4Zone11GetMetadataEv
libkiapi.so.9.0.1:_ZNK5kiapi5board5types4Zone12ByteSizeLongEv
libkiapi.so.9.0.1:_ZNK5kiapi5board5types4Zone12GetClassDataEv
libkiapi.so.9.0.1:_ZNK5kiapi5board5types4Zone13IsInitializedEv
libkiapi.so.9.0.1:_ZNK5kiapi5board5types4Zone16AccessCachedSizeEv
libkiapi.so.9.0.1:_ZNK5kiapi5board5types4Zone18_InternalSerializeEPhPN6google8protobuf2io19EpsCopyOutputStreamE
libkiapi.so.9.0.1:_ZNK5kiapi5board5types5Field11GetMetadataEv
libkiapi.so.9.0.1:_ZNK5kiapi5board5types5Field12ByteSizeLongEv
libkiapi.so.9.0.1:_ZNK5kiapi5board5types5Field12GetClassDataEv
libkiapi.so.9.0.1:_ZNK5kiapi5board5types5Field13IsInitializedEv
libkiapi.so.9.0.1:_ZNK5kiapi5board5types5Field16AccessCachedSizeEv
libkiapi.so.9.0.1:_ZNK5kiapi5board5types5Field18_InternalSerializeEPhPN6google8protobuf2io19EpsCopyOutputStreamE
libkiapi.so.9.0.1:_ZNK5kiapi5board5types5Group11GetMetadataEv
libkiapi.so.9.0.1:_ZNK5kiapi5board5types5Track11GetMetadataEv
libkiapi.so.9.0.1:_ZNK5kiapi5board5types5Track12ByteSizeLongEv
libkiapi.so.9.0.1:_ZNK5kiapi5board5types5Track12GetClassDataEv
libkiapi.so.9.0.1:_ZNK5kiapi5board5types5Track13IsInitializedEv
libkiapi.so.9.0.1:_ZNK5kiapi5board5types5Track16AccessCachedSizeEv
libkiapi.so.9.0.1:_ZNK5kiapi5board5types5Track18_InternalSerializeEPhPN6google8protobuf2io19EpsCopyOutputStreamE
libkiapi.so.9.0.1:_ZNK5kiapi5board5types7FieldId11GetMetadataEv
libkiapi.so.9.0.1:_ZNK5kiapi5board5types7FieldId12ByteSizeLongEv
libkiapi.so.9.0.1:_ZNK5kiapi5board5types7FieldId12GetClassDataEv
libkiapi.so.9.0.1:_ZNK5kiapi5board5types7FieldId13IsInitializedEv
libkiapi.so.9.0.1:_ZNK5kiapi5board5types7FieldId16AccessCachedSizeEv
libkiapi.so.9.0.1:_ZNK5kiapi5board5types7FieldId18_InternalSerializeEPhPN6google8protobuf2io19EpsCopyOutputStreamE
libkiapi.so.9.0.1:_ZNK5kiapi5board5types7NetCode11GetMetadataEv
libkiapi.so.9.0.1:_ZNK5kiapi5board5types7NetCode12ByteSizeLongEv
libkiapi.so.9.0.1:_ZNK5kiapi5board5types7NetCode12GetClassDataEv
libkiapi.so.9.0.1:_ZNK5kiapi5board5types7NetCode13IsInitializedEv
libkiapi.so.9.0.1:_ZNK5kiapi5board5types7NetCode16AccessCachedSizeEv
libkiapi.so.9.0.1:_ZNK5kiapi5board5types7NetCode18_InternalSerializeEPhPN6google8protobuf2io19EpsCopyOutputStreamE
libkiapi.so.9.0.1:_ZNK5kiapi5board5types8PadStack11GetMetadataEv
libkiapi.so.9.0.1:_ZNK5kiapi5board5types8PadStack12ByteSizeLongEv
libkiapi.so.9.0.1:_ZNK5kiapi5board5types8PadStack12GetClassDataEv
libkiapi.so.9.0.1:_ZNK5kiapi5board5types8PadStack13IsInitializedEv
libkiapi.so.9.0.1:_ZNK5kiapi5board5types8PadStack16AccessCachedSizeEv
libkiapi.so.9.0.1:_ZNK5kiapi5board5types8PadStack18_InternalSerializeEPhPN6google8protobuf2io19EpsCopyOutputStreamE
libkiapi.so.9.0.1:_ZNK5kiapi5board5types9BoardText11GetMetadataEv
libkiapi.so.9.0.1:_ZNK5kiapi5board5types9BoardText12ByteSizeLongEv
libkiapi.so.9.0.1:_ZNK5kiapi5board5types9BoardText12GetClassDataEv
libkiapi.so.9.0.1:_ZNK5kiapi5board5types9BoardText13IsInitializedEv
libkiapi.so.9.0.1:_ZNK5kiapi5board5types9BoardText16AccessCachedSizeEv
libkiapi.so.9.0.1:_ZNK5kiapi5board5types9BoardText18_InternalSerializeEPhPN6google8protobuf2io19EpsCopyOutputStreamE
libkiapi.so.9.0.1:_ZNK5kiapi5board5types9Dimension11GetMetadataEv
libkiapi.so.9.0.1:_ZNK5kiapi5board5types9Dimension12ByteSizeLongEv
libkiapi.so.9.0.1:_ZNK5kiapi5board5types9Dimension12GetClassDataEv
libkiapi.so.9.0.1:_ZNK5kiapi5board5types9Dimension13IsInitializedEv
libkiapi.so.9.0.1:_ZNK5kiapi5board5types9Dimension16AccessCachedSizeEv
libkiapi.so.9.0.1:_ZNK5kiapi5board5types9Dimension18_InternalSerializeEPhPN6google8protobuf2io19EpsCopyOutputStreamE
libkiapi.so.9.0.1:_ZNK5kiapi5board5types9Footprint11GetMetadataEv
libkiapi.so.9.0.1:_ZNK5kiapi5board5types9Footprint12ByteSizeLongEv
libkiapi.so.9.0.1:_ZNK5kiapi5board5types9Footprint12GetClassDataEv
libkiapi.so.9.0.1:_ZNK5kiapi5board5types9Footprint13IsInitializedEv
libkiapi.so.9.0.1:_ZNK5kiapi5board5types9Footprint16AccessCachedSizeEv
libkiapi.so.9.0.1:_ZNK5kiapi5board5types9Footprint18_InternalSerializeEPhPN6google8protobuf2io19EpsCopyOutputStreamE
libkiapi.so.9.0.1:_ZNK5kiapi5board8commands11BoardLayers11GetMetadataEv
libkiapi.so.9.0.1:_ZNK5kiapi5board8commands11BoardLayers12ByteSizeLongEv
libkiapi.so.9.0.1:_ZNK5kiapi5board8commands11BoardLayers12GetClassDataEv
libkiapi.so.9.0.1:_ZNK5kiapi5board8commands11BoardLayers13IsInitializedEv
libkiapi.so.9.0.1:_ZNK5kiapi5board8commands11BoardLayers16AccessCachedSizeEv
libkiapi.so.9.0.1:_ZNK5kiapi5board8commands11BoardLayers18_InternalSerializeEPhPN6google8protobuf2io19EpsCopyOutputStreamE
libkiapi.so.9.0.1:_ZNK5kiapi5board8commands11RefillZones11GetMetadataEv
libkiapi.so.9.0.1:_ZNK5kiapi5board8commands11RefillZones12ByteSizeLongEv
libkiapi.so.9.0.1:_ZNK5kiapi5board8commands11RefillZones12GetClassDataEv
libkiapi.so.9.0.1:_ZNK5kiapi5board8commands11RefillZones13IsInitializedEv
libkiapi.so.9.0.1:_ZNK5kiapi5board8commands11RefillZones16AccessCachedSizeEv
libkiapi.so.9.0.1:_ZNK5kiapi5board8commands11RefillZones18_InternalSerializeEPhPN6google8protobuf2io19EpsCopyOutputStreamE
libkiapi.so.9.0.1:_ZNK5kiapi5board8commands12NetsResponse11GetMetadataEv
libkiapi.so.9.0.1:_ZNK5kiapi5board8commands12NetsResponse12ByteSizeLongEv
libkiapi.so.9.0.1:_ZNK5kiapi5board8commands12NetsResponse12GetClassDataEv
libkiapi.so.9.0.1:_ZNK5kiapi5board8commands12NetsResponse13IsInitializedEv
libkiapi.so.9.0.1:_ZNK5kiapi5board8commands12NetsResponse16AccessCachedSizeEv
libkiapi.so.9.0.1:_ZNK5kiapi5board8commands12NetsResponse18_InternalSerializeEPhPN6google8protobuf2io19EpsCopyOutputStreamE
libkiapi.so.9.0.1:_ZNK5kiapi5board8commands13GetItemsByNet11GetMetadataEv
libkiapi.so.9.0.1:_ZNK5kiapi5board8commands13GetItemsByNet12ByteSizeLongEv
libkiapi.so.9.0.1:_ZNK5kiapi5board8commands13GetItemsByNet12GetClassDataEv
libkiapi.so.9.0.1:_ZNK5kiapi5board8commands13GetItemsByNet13IsInitializedEv
libkiapi.so.9.0.1:_ZNK5kiapi5board8commands13GetItemsByNet16AccessCachedSizeEv
libkiapi.so.9.0.1:_ZNK5kiapi5board8commands13GetItemsByNet18_InternalSerializeEPhPN6google8protobuf2io19EpsCopyOutputStreamE
libkiapi.so.9.0.1:_ZNK5kiapi5board8commands14GetActiveLayer11GetMetadataEv
libkiapi.so.9.0.1:_ZNK5kiapi5board8commands14GetActiveLayer12ByteSizeLongEv
libkiapi.so.9.0.1:_ZNK5kiapi5board8commands14GetActiveLayer12GetClassDataEv
libkiapi.so.9.0.1:_ZNK5kiapi5board8commands14GetActiveLayer13IsInitializedEv
libkiapi.so.9.0.1:_ZNK5kiapi5board8commands14GetActiveLayer16AccessCachedSizeEv
libkiapi.so.9.0.1:_ZNK5kiapi5board8commands14GetActiveLayer18_InternalSerializeEPhPN6google8protobuf2io19EpsCopyOutputStreamE
libkiapi.so.9.0.1:_ZNK5kiapi5board8commands14GetBoardOrigin11GetMetadataEv
libkiapi.so.9.0.1:_ZNK5kiapi5board8commands14GetBoardOrigin12ByteSizeLongEv
libkiapi.so.9.0.1:_ZNK5kiapi5board8commands14GetBoardOrigin12GetClassDataEv
libkiapi.so.9.0.1:_ZNK5kiapi5board8commands14GetBoardOrigin13IsInitializedEv
libkiapi.so.9.0.1:_ZNK5kiapi5board8commands14GetBoardOrigin16AccessCachedSizeEv
libkiapi.so.9.0.1:_ZNK5kiapi5board8commands14GetBoardOrigin18_InternalSerializeEPhPN6google8protobuf2io19EpsCopyOutputStreamE
libkiapi.so.9.0.1:_ZNK5kiapi5board8commands14SetActiveLayer11GetMetadataEv
libkiapi.so.9.0.1:_ZNK5kiapi5board8commands14SetActiveLayer12ByteSizeLongEv
libkiapi.so.9.0.1:_ZNK5kiapi5board8commands14SetActiveLayer12GetClassDataEv
libkiapi.so.9.0.1:_ZNK5kiapi5board8commands14SetActiveLayer13IsInitializedEv
libkiapi.so.9.0.1:_ZNK5kiapi5board8commands14SetActiveLayer16AccessCachedSizeEv
libkiapi.so.9.0.1:_ZNK5kiapi5board8commands14SetActiveLayer18_InternalSerializeEPhPN6google8protobuf2io19EpsCopyOutputStreamE
libkiapi.so.9.0.1:_ZNK5kiapi5board8commands14SetBoardOrigin11GetMetadataEv
libkiapi.so.9.0.1:_ZNK5kiapi5board8commands14SetBoardOrigin12ByteSizeLongEv
libkiapi.so.9.0.1:_ZNK5kiapi5board8commands14SetBoardOrigin12GetClassDataEv
libkiapi.so.9.0.1:_ZNK5kiapi5board8commands14SetBoardOrigin13IsInitializedEv
libkiapi.so.9.0.1:_ZNK5kiapi5board8commands14SetBoardOrigin16AccessCachedSizeEv
libkiapi.so.9.0.1:_ZNK5kiapi5board8commands14SetBoardOrigin18_InternalSerializeEPhPN6google8protobuf2io19EpsCopyOutputStreamE
libkiapi.so.9.0.1:_ZNK5kiapi5board8commands15GetBoardStackup11GetMetadataEv
libkiapi.so.9.0.1:_ZNK5kiapi5board8commands15GetBoardStackup12ByteSizeLongEv
libkiapi.so.9.0.1:_ZNK5kiapi5board8commands15GetBoardStackup12GetClassDataEv
libkiapi.so.9.0.1:_ZNK5kiapi5board8commands15GetBoardStackup13IsInitializedEv
libkiapi.so.9.0.1:_ZNK5kiapi5board8commands15GetBoardStackup16AccessCachedSizeEv
libkiapi.so.9.0.1:_ZNK5kiapi5board8commands15GetBoardStackup18_InternalSerializeEPhPN6google8protobuf2io19EpsCopyOutputStreamE
libkiapi.so.9.0.1:_ZNK5kiapi5board8commands16GetVisibleLayers11GetMetadataEv
libkiapi.so.9.0.1:_ZNK5kiapi5board8commands16GetVisibleLayers12ByteSizeLongEv
libkiapi.so.9.0.1:_ZNK5kiapi5board8commands16GetVisibleLayers12GetClassDataEv
libkiapi.so.9.0.1:_ZNK5kiapi5board8commands16GetVisibleLayers13IsInitializedEv
libkiapi.so.9.0.1:_ZNK5kiapi5board8commands16GetVisibleLayers16AccessCachedSizeEv
libkiapi.so.9.0.1:_ZNK5kiapi5board8commands16GetVisibleLayers18_InternalSerializeEPhPN6google8protobuf2io19EpsCopyOutputStreamE
libkiapi.so.9.0.1:_ZNK5kiapi5board8commands16SetVisibleLayers11GetMetadataEv
libkiapi.so.9.0.1:_ZNK5kiapi5board8commands16SetVisibleLayers12ByteSizeLongEv
libkiapi.so.9.0.1:_ZNK5kiapi5board8commands16SetVisibleLayers12GetClassDataEv
libkiapi.so.9.0.1:_ZNK5kiapi5board8commands16SetVisibleLayers13IsInitializedEv
libkiapi.so.9.0.1:_ZNK5kiapi5board8commands16SetVisibleLayers16AccessCachedSizeEv
libkiapi.so.9.0.1:_ZNK5kiapi5board8commands16SetVisibleLayers18_InternalSerializeEPhPN6google8protobuf2io19EpsCopyOutputStreamE
libkiapi.so.9.0.1:_ZNK5kiapi5board8commands18BoardLayerResponse11GetMetadataEv
libkiapi.so.9.0.1:_ZNK5kiapi5board8commands18BoardLayerResponse12ByteSizeLongEv
libkiapi.so.9.0.1:_ZNK5kiapi5board8commands18BoardLayerResponse12GetClassDataEv
libkiapi.so.9.0.1:_ZNK5kiapi5board8commands18BoardLayerResponse13IsInitializedEv
libkiapi.so.9.0.1:_ZNK5kiapi5board8commands18BoardLayerResponse16AccessCachedSizeEv
libkiapi.so.9.0.1:_ZNK5kiapi5board8commands18BoardLayerResponse18_InternalSerializeEPhPN6google8protobuf2io19EpsCopyOutputStreamE
libkiapi.so.9.0.1:_ZNK5kiapi5board8commands18GetItemsByNetClass11GetMetadataEv
libkiapi.so.9.0.1:_ZNK5kiapi5board8commands18GetItemsByNetClass12ByteSizeLongEv
libkiapi.so.9.0.1:_ZNK5kiapi5board8commands18GetItemsByNetClass12GetClassDataEv
libkiapi.so.9.0.1:_ZNK5kiapi5board8commands18GetItemsByNetClass13IsInitializedEv
libkiapi.so.9.0.1:_ZNK5kiapi5board8commands18GetItemsByNetClass16AccessCachedSizeEv
libkiapi.so.9.0.1:_ZNK5kiapi5board8commands18GetItemsByNetClass18_InternalSerializeEPhPN6google8protobuf2io19EpsCopyOutputStreamE
libkiapi.so.9.0.1:_ZNK5kiapi5board8commands18GetNetClassForNets11GetMetadataEv
libkiapi.so.9.0.1:_ZNK5kiapi5board8commands18GetNetClassForNets12ByteSizeLongEv
libkiapi.so.9.0.1:_ZNK5kiapi5board8commands18GetNetClassForNets12GetClassDataEv
libkiapi.so.9.0.1:_ZNK5kiapi5board8commands18GetNetClassForNets13IsInitializedEv
libkiapi.so.9.0.1:_ZNK5kiapi5board8commands18GetNetClassForNets16AccessCachedSizeEv
libkiapi.so.9.0.1:_ZNK5kiapi5board8commands18GetNetClassForNets18_InternalSerializeEPhPN6google8protobuf2io19EpsCopyOutputStreamE
libkiapi.so.9.0.1:_ZNK5kiapi5board8commands18UpdateBoardStackup11GetMetadataEv
libkiapi.so.9.0.1:_ZNK5kiapi5board8commands18UpdateBoardStackup12ByteSizeLongEv
libkiapi.so.9.0.1:_ZNK5kiapi5board8commands18UpdateBoardStackup12GetClassDataEv
libkiapi.so.9.0.1:_ZNK5kiapi5board8commands18UpdateBoardStackup13IsInitializedEv
libkiapi.so.9.0.1:_ZNK5kiapi5board8commands18UpdateBoardStackup16AccessCachedSizeEv
libkiapi.so.9.0.1:_ZNK5kiapi5board8commands18UpdateBoardStackup18_InternalSerializeEPhPN6google8protobuf2io19EpsCopyOutputStreamE
libkiapi.so.9.0.1:_ZNK5kiapi5board8commands19GetGraphicsDefaults11GetMetadataEv
libkiapi.so.9.0.1:_ZNK5kiapi5board8commands19GetGraphicsDefaults12ByteSizeLongEv
libkiapi.so.9.0.1:_ZNK5kiapi5board8commands19GetGraphicsDefaults12GetClassDataEv
libkiapi.so.9.0.1:_ZNK5kiapi5board8commands19GetGraphicsDefaults13IsInitializedEv
libkiapi.so.9.0.1:_ZNK5kiapi5board8commands19GetGraphicsDefaults16AccessCachedSizeEv
libkiapi.so.9.0.1:_ZNK5kiapi5board8commands19GetGraphicsDefaults18_InternalSerializeEPhPN6google8protobuf2io19EpsCopyOutputStreamE
libkiapi.so.9.0.1:_ZNK5kiapi5board8commands20BoardStackupResponse11GetMetadataEv
libkiapi.so.9.0.1:_ZNK5kiapi5board8commands20BoardStackupResponse12ByteSizeLongEv
libkiapi.so.9.0.1:_ZNK5kiapi5board8commands20BoardStackupResponse12GetClassDataEv
libkiapi.so.9.0.1:_ZNK5kiapi5board8commands20BoardStackupResponse13IsInitializedEv
libkiapi.so.9.0.1:_ZNK5kiapi5board8commands20BoardStackupResponse16AccessCachedSizeEv
libkiapi.so.9.0.1:_ZNK5kiapi5board8commands20BoardStackupResponse18_InternalSerializeEPhPN6google8protobuf2io19EpsCopyOutputStreamE
libkiapi.so.9.0.1:_ZNK5kiapi5board8commands20GetPadShapeAsPolygon11GetMetadataEv
libkiapi.so.9.0.1:_ZNK5kiapi5board8commands20GetPadShapeAsPolygon12ByteSizeLongEv
libkiapi.so.9.0.1:_ZNK5kiapi5board8commands20GetPadShapeAsPolygon12GetClassDataEv
libkiapi.so.9.0.1:_ZNK5kiapi5board8commands20GetPadShapeAsPolygon13IsInitializedEv
libkiapi.so.9.0.1:_ZNK5kiapi5board8commands20GetPadShapeAsPolygon16AccessCachedSizeEv
libkiapi.so.9.0.1:_ZNK5kiapi5board8commands20GetPadShapeAsPolygon18_InternalSerializeEPhPN6google8protobuf2io19EpsCopyOutputStreamE
libkiapi.so.9.0.1:_ZNK5kiapi5board8commands20InteractiveMoveItems11GetMetadataEv
libkiapi.so.9.0.1:_ZNK5kiapi5board8commands20InteractiveMoveItems12ByteSizeLongEv
libkiapi.so.9.0.1:_ZNK5kiapi5board8commands20InteractiveMoveItems12GetClassDataEv
libkiapi.so.9.0.1:_ZNK5kiapi5board8commands20InteractiveMoveItems13IsInitializedEv
libkiapi.so.9.0.1:_ZNK5kiapi5board8commands20InteractiveMoveItems16AccessCachedSizeEv
libkiapi.so.9.0.1:_ZNK5kiapi5board8commands20InteractiveMoveItems18_InternalSerializeEPhPN6google8protobuf2io19EpsCopyOutputStreamE
libkiapi.so.9.0.1:_ZNK5kiapi5board8commands23NetClassForNetsResponse11GetMetadataEv
libkiapi.so.9.0.1:_ZNK5kiapi5board8commands23NetClassForNetsResponse12ByteSizeLongEv
libkiapi.so.9.0.1:_ZNK5kiapi5board8commands23NetClassForNetsResponse12GetClassDataEv
libkiapi.so.9.0.1:_ZNK5kiapi5board8commands23NetClassForNetsResponse13IsInitializedEv
libkiapi.so.9.0.1:_ZNK5kiapi5board8commands23NetClassForNetsResponse16AccessCachedSizeEv
libkiapi.so.9.0.1:_ZNK5kiapi5board8commands23NetClassForNetsResponse18_InternalSerializeEPhPN6google8protobuf2io19EpsCopyOutputStreamE
libkiapi.so.9.0.1:_ZNK5kiapi5board8commands24GraphicsDefaultsResponse11GetMetadataEv
libkiapi.so.9.0.1:_ZNK5kiapi5board8commands24GraphicsDefaultsResponse12ByteSizeLongEv
libkiapi.so.9.0.1:_ZNK5kiapi5board8commands24GraphicsDefaultsResponse12GetClassDataEv
libkiapi.so.9.0.1:_ZNK5kiapi5board8commands24GraphicsDefaultsResponse13IsInitializedEv
libkiapi.so.9.0.1:_ZNK5kiapi5board8commands24GraphicsDefaultsResponse16AccessCachedSizeEv
libkiapi.so.9.0.1:_ZNK5kiapi5board8commands24GraphicsDefaultsResponse18_InternalSerializeEPhPN6google8protobuf2io19EpsCopyOutputStreamE
libkiapi.so.9.0.1:_ZNK5kiapi5board8commands25PadShapeAsPolygonResponse11GetMetadataEv
libkiapi.so.9.0.1:_ZNK5kiapi5board8commands25PadShapeAsPolygonResponse12ByteSizeLongEv
libkiapi.so.9.0.1:_ZNK5kiapi5board8commands25PadShapeAsPolygonResponse12GetClassDataEv
libkiapi.so.9.0.1:_ZNK5kiapi5board8commands25PadShapeAsPolygonResponse13IsInitializedEv
libkiapi.so.9.0.1:_ZNK5kiapi5board8commands25PadShapeAsPolygonResponse16AccessCachedSizeEv
libkiapi.so.9.0.1:_ZNK5kiapi5board8commands25PadShapeAsPolygonResponse18_InternalSerializeEPhPN6google8protobuf2io19EpsCopyOutputStreamE
libkiapi.so.9.0.1:_ZNK5kiapi5board8commands29BoardEditorAppearanceSettings11GetMetadataEv
libkiapi.so.9.0.1:_ZNK5kiapi5board8commands29BoardEditorAppearanceSettings12ByteSizeLongEv
libkiapi.so.9.0.1:_ZNK5kiapi5board8commands29BoardEditorAppearanceSettings12GetClassDataEv
libkiapi.so.9.0.1:_ZNK5kiapi5board8commands29BoardEditorAppearanceSettings13IsInitializedEv
libkiapi.so.9.0.1:_ZNK5kiapi5board8commands29BoardEditorAppearanceSettings16AccessCachedSizeEv
libkiapi.so.9.0.1:_ZNK5kiapi5board8commands29BoardEditorAppearanceSettings18_InternalSerializeEPhPN6google8protobuf2io19EpsCopyOutputStreamE
libkiapi.so.9.0.1:_ZNK5kiapi5board8commands32GetBoardEditorAppearanceSettings11GetMetadataEv
libkiapi.so.9.0.1:_ZNK5kiapi5board8commands32SetBoardEditorAppearanceSettings11GetMetadataEv
libkiapi.so.9.0.1:_ZNK5kiapi5board8commands32SetBoardEditorAppearanceSettings12ByteSizeLongEv
libkiapi.so.9.0.1:_ZNK5kiapi5board8commands32SetBoardEditorAppearanceSettings12GetClassDataEv
libkiapi.so.9.0.1:_ZNK5kiapi5board8commands32SetBoardEditorAppearanceSettings13IsInitializedEv
libkiapi.so.9.0.1:_ZNK5kiapi5board8commands32SetBoardEditorAppearanceSettings16AccessCachedSizeEv
libkiapi.so.9.0.1:_ZNK5kiapi5board8commands32SetBoardEditorAppearanceSettings18_InternalSerializeEPhPN6google8protobuf2io19EpsCopyOutputStreamE
libkiapi.so.9.0.1:_ZNK5kiapi5board8commands7GetNets11GetMetadataEv
libkiapi.so.9.0.1:_ZNK5kiapi5board8commands7GetNets12ByteSizeLongEv
libkiapi.so.9.0.1:_ZNK5kiapi5board8commands7GetNets12GetClassDataEv
libkiapi.so.9.0.1:_ZNK5kiapi5board8commands7GetNets13IsInitializedEv
libkiapi.so.9.0.1:_ZNK5kiapi5board8commands7GetNets16AccessCachedSizeEv
libkiapi.so.9.0.1:_ZNK5kiapi5board8commands7GetNets18_InternalSerializeEPhPN6google8protobuf2io19EpsCopyOutputStreamE
libkiapi.so.9.0.1:_ZNK5kiapi6common10ApiRequest11GetMetadataEv
libkiapi.so.9.0.1:_ZNK5kiapi6common10ApiRequest12ByteSizeLongEv
libkiapi.so.9.0.1:_ZNK5kiapi6common10ApiRequest12GetClassDataEv
libkiapi.so.9.0.1:_ZNK5kiapi6common10ApiRequest13IsInitializedEv
libkiapi.so.9.0.1:_ZNK5kiapi6common10ApiRequest16AccessCachedSizeEv
libkiapi.so.9.0.1:_ZNK5kiapi6common10ApiRequest18_InternalSerializeEPhPN6google8protobuf2io19EpsCopyOutputStreamE
libkiapi.so.9.0.1:_ZNK5kiapi6common11ApiResponse11GetMetadataEv
libkiapi.so.9.0.1:_ZNK5kiapi6common11ApiResponse12ByteSizeLongEv
libkiapi.so.9.0.1:_ZNK5kiapi6common11ApiResponse12GetClassDataEv
libkiapi.so.9.0.1:_ZNK5kiapi6common11ApiResponse13IsInitializedEv
libkiapi.so.9.0.1:_ZNK5kiapi6common11ApiResponse16AccessCachedSizeEv
libkiapi.so.9.0.1:_ZNK5kiapi6common11ApiResponse18_InternalSerializeEPhPN6google8protobuf2io19EpsCopyOutputStreamE
libkiapi.so.9.0.1:_ZNK5kiapi6common16ApiRequestHeader11GetMetadataEv
libkiapi.so.9.0.1:_ZNK5kiapi6common16ApiRequestHeader12ByteSizeLongEv
libkiapi.so.9.0.1:_ZNK5kiapi6common16ApiRequestHeader12GetClassDataEv
libkiapi.so.9.0.1:_ZNK5kiapi6common16ApiRequestHeader13IsInitializedEv
libkiapi.so.9.0.1:_ZNK5kiapi6common16ApiRequestHeader16AccessCachedSizeEv
libkiapi.so.9.0.1:_ZNK5kiapi6common16ApiRequestHeader18_InternalSerializeEPhPN6google8protobuf2io19EpsCopyOutputStreamE
libkiapi.so.9.0.1:_ZNK5kiapi6common17ApiResponseHeader11GetMetadataEv
libkiapi.so.9.0.1:_ZNK5kiapi6common17ApiResponseHeader12ByteSizeLongEv
libkiapi.so.9.0.1:_ZNK5kiapi6common17ApiResponseHeader12GetClassDataEv
libkiapi.so.9.0.1:_ZNK5kiapi6common17ApiResponseHeader13IsInitializedEv
libkiapi.so.9.0.1:_ZNK5kiapi6common17ApiResponseHeader16AccessCachedSizeEv
libkiapi.so.9.0.1:_ZNK5kiapi6common17ApiResponseHeader18_InternalSerializeEPhPN6google8protobuf2io19EpsCopyOutputStreamE
libkiapi.so.9.0.1:_ZNK5kiapi6common17ApiResponseStatus11GetMetadataEv
libkiapi.so.9.0.1:_ZNK5kiapi6common17ApiResponseStatus12ByteSizeLongEv
libkiapi.so.9.0.1:_ZNK5kiapi6common17ApiResponseStatus12GetClassDataEv
libkiapi.so.9.0.1:_ZNK5kiapi6common17ApiResponseStatus13IsInitializedEv
libkiapi.so.9.0.1:_ZNK5kiapi6common17ApiResponseStatus16AccessCachedSizeEv
libkiapi.so.9.0.1:_ZNK5kiapi6common17ApiResponseStatus18_InternalSerializeEPhPN6google8protobuf2io19EpsCopyOutputStreamE
libkiapi.so.9.0.1:_ZNK5kiapi6common5types10ItemHeader11GetMetadataEv
libkiapi.so.9.0.1:_ZNK5kiapi6common5types10ItemHeader12ByteSizeLongEv
libkiapi.so.9.0.1:_ZNK5kiapi6common5types10ItemHeader12GetClassDataEv
libkiapi.so.9.0.1:_ZNK5kiapi6common5types10ItemHeader13IsInitializedEv
libkiapi.so.9.0.1:_ZNK5kiapi6common5types10ItemHeader16AccessCachedSizeEv
libkiapi.so.9.0.1:_ZNK5kiapi6common5types10ItemHeader18_InternalSerializeEPhPN6google8protobuf2io19EpsCopyOutputStreamE
libkiapi.so.9.0.1:_ZNK5kiapi6common5types12GraphicShape11GetMetadataEv
libkiapi.so.9.0.1:_ZNK5kiapi6common5types12GraphicShape12ByteSizeLongEv
libkiapi.so.9.0.1:_ZNK5kiapi6common5types12GraphicShape12GetClassDataEv
libkiapi.so.9.0.1:_ZNK5kiapi6common5types12GraphicShape13IsInitializedEv
libkiapi.so.9.0.1:_ZNK5kiapi6common5types12GraphicShape16AccessCachedSizeEv
libkiapi.so.9.0.1:_ZNK5kiapi6common5types12GraphicShape18_InternalSerializeEPhPN6google8protobuf2io19EpsCopyOutputStreamE
libkiapi.so.9.0.1:_ZNK5kiapi6common5types12KiCadVersion11GetMetadataEv
libkiapi.so.9.0.1:_ZNK5kiapi6common5types12KiCadVersion12ByteSizeLongEv
libkiapi.so.9.0.1:_ZNK5kiapi6common5types12KiCadVersion12GetClassDataEv
libkiapi.so.9.0.1:_ZNK5kiapi6common5types12KiCadVersion13IsInitializedEv
libkiapi.so.9.0.1:_ZNK5kiapi6common5types12KiCadVersion16AccessCachedSizeEv
libkiapi.so.9.0.1:_ZNK5kiapi6common5types12KiCadVersion18_InternalSerializeEPhPN6google8protobuf2io19EpsCopyOutputStreamE
libkiapi.so.9.0.1:_ZNK5kiapi6common5types12PolyLineNode11GetMetadataEv
libkiapi.so.9.0.1:_ZNK5kiapi6common5types12PolyLineNode12ByteSizeLongEv
libkiapi.so.9.0.1:_ZNK5kiapi6common5types12PolyLineNode12GetClassDataEv
libkiapi.so.9.0.1:_ZNK5kiapi6common5types12PolyLineNode13IsInitializedEv
libkiapi.so.9.0.1:_ZNK5kiapi6common5types12PolyLineNode16AccessCachedSizeEv
libkiapi.so.9.0.1:_ZNK5kiapi6common5types12PolyLineNode18_InternalSerializeEPhPN6google8protobuf2io19EpsCopyOutputStreamE
libkiapi.so.9.0.1:_ZNK5kiapi6common5types13CompoundShape11GetMetadataEv
libkiapi.so.9.0.1:_ZNK5kiapi6common5types13CompoundShape12ByteSizeLongEv
libkiapi.so.9.0.1:_ZNK5kiapi6common5types13CompoundShape12GetClassDataEv
libkiapi.so.9.0.1:_ZNK5kiapi6common5types13CompoundShape13IsInitializedEv
libkiapi.so.9.0.1:_ZNK5kiapi6common5types13CompoundShape16AccessCachedSizeEv
libkiapi.so.9.0.1:_ZNK5kiapi6common5types13CompoundShape18_InternalSerializeEPhPN6google8protobuf2io19EpsCopyOutputStreamE
libkiapi.so.9.0.1:_ZNK5kiapi6common5types14ArcStartMidEnd11GetMetadataEv
libkiapi.so.9.0.1:_ZNK5kiapi6common5types14ArcStartMidEnd12ByteSizeLongEv
libkiapi.so.9.0.1:_ZNK5kiapi6common5types14ArcStartMidEnd12GetClassDataEv
libkiapi.so.9.0.1:_ZNK5kiapi6common5types14ArcStartMidEnd13IsInitializedEv
libkiapi.so.9.0.1:_ZNK5kiapi6common5types14ArcStartMidEnd16AccessCachedSizeEv
libkiapi.so.9.0.1:_ZNK5kiapi6common5types14ArcStartMidEnd18_InternalSerializeEPhPN6google8protobuf2io19EpsCopyOutputStreamE
libkiapi.so.9.0.1:_ZNK5kiapi6common5types14TextAttributes11GetMetadataEv
libkiapi.so.9.0.1:_ZNK5kiapi6common5types14TextAttributes12ByteSizeLongEv
libkiapi.so.9.0.1:_ZNK5kiapi6common5types14TextAttributes12GetClassDataEv
libkiapi.so.9.0.1:_ZNK5kiapi6common5types14TextAttributes13IsInitializedEv
libkiapi.so.9.0.1:_ZNK5kiapi6common5types14TextAttributes16AccessCachedSizeEv
libkiapi.so.9.0.1:_ZNK5kiapi6common5types14TextAttributes18_InternalSerializeEPhPN6google8protobuf2io19EpsCopyOutputStreamE
libkiapi.so.9.0.1:_ZNK5kiapi6common5types14TitleBlockInfo11GetMetadataEv
libkiapi.so.9.0.1:_ZNK5kiapi6common5types14TitleBlockInfo12ByteSizeLongEv
libkiapi.so.9.0.1:_ZNK5kiapi6common5types14TitleBlockInfo12GetClassDataEv
libkiapi.so.9.0.1:_ZNK5kiapi6common5types14TitleBlockInfo13IsInitializedEv
libkiapi.so.9.0.1:_ZNK5kiapi6common5types14TitleBlockInfo16AccessCachedSizeEv
libkiapi.so.9.0.1:_ZNK5kiapi6common5types14TitleBlockInfo18_InternalSerializeEPhPN6google8protobuf2io19EpsCopyOutputStreamE
libkiapi.so.9.0.1:_ZNK5kiapi6common5types16PolygonWithHoles11GetMetadataEv
libkiapi.so.9.0.1:_ZNK5kiapi6common5types16PolygonWithHoles12ByteSizeLongEv
libkiapi.so.9.0.1:_ZNK5kiapi6common5types16PolygonWithHoles12GetClassDataEv
libkiapi.so.9.0.1:_ZNK5kiapi6common5types16PolygonWithHoles13IsInitializedEv
libkiapi.so.9.0.1:_ZNK5kiapi6common5types16PolygonWithHoles16AccessCachedSizeEv
libkiapi.so.9.0.1:_ZNK5kiapi6common5types16PolygonWithHoles18_InternalSerializeEPhPN6google8protobuf2io19EpsCopyOutputStreamE
libkiapi.so.9.0.1:_ZNK5kiapi6common5types16ProjectSpecifier11GetMetadataEv
libkiapi.so.9.0.1:_ZNK5kiapi6common5types16ProjectSpecifier12ByteSizeLongEv
libkiapi.so.9.0.1:_ZNK5kiapi6common5types16ProjectSpecifier12GetClassDataEv
libkiapi.so.9.0.1:_ZNK5kiapi6common5types16ProjectSpecifier13IsInitializedEv
libkiapi.so.9.0.1:_ZNK5kiapi6common5types16ProjectSpecifier16AccessCachedSizeEv
libkiapi.so.9.0.1:_ZNK5kiapi6common5types16ProjectSpecifier18_InternalSerializeEPhPN6google8protobuf2io19EpsCopyOutputStreamE
libkiapi.so.9.0.1:_ZNK5kiapi6common5types16StrokeAttributes11GetMetadataEv
libkiapi.so.9.0.1:_ZNK5kiapi6common5types16StrokeAttributes12ByteSizeLongEv
libkiapi.so.9.0.1:_ZNK5kiapi6common5types16StrokeAttributes12GetClassDataEv
libkiapi.so.9.0.1:_ZNK5kiapi6common5types16StrokeAttributes13IsInitializedEv
libkiapi.so.9.0.1:_ZNK5kiapi6common5types16StrokeAttributes16AccessCachedSizeEv
libkiapi.so.9.0.1:_ZNK5kiapi6common5types16StrokeAttributes18_InternalSerializeEPhPN6google8protobuf2io19EpsCopyOutputStreamE
libkiapi.so.9.0.1:_ZNK5kiapi6common5types17DocumentSpecifier11GetMetadataEv
libkiapi.so.9.0.1:_ZNK5kiapi6common5types17DocumentSpecifier12ByteSizeLongEv
libkiapi.so.9.0.1:_ZNK5kiapi6common5types17DocumentSpecifier12GetClassDataEv
libkiapi.so.9.0.1:_ZNK5kiapi6common5types17DocumentSpecifier13IsInitializedEv
libkiapi.so.9.0.1:_ZNK5kiapi6common5types17DocumentSpecifier16AccessCachedSizeEv
libkiapi.so.9.0.1:_ZNK5kiapi6common5types17DocumentSpecifier18_InternalSerializeEPhPN6google8protobuf2io19EpsCopyOutputStreamE
libkiapi.so.9.0.1:_ZNK5kiapi6common5types17GraphicAttributes11GetMetadataEv
libkiapi.so.9.0.1:_ZNK5kiapi6common5types17GraphicAttributes12ByteSizeLongEv
libkiapi.so.9.0.1:_ZNK5kiapi6common5types17GraphicAttributes12GetClassDataEv
libkiapi.so.9.0.1:_ZNK5kiapi6common5types17GraphicAttributes13IsInitializedEv
libkiapi.so.9.0.1:_ZNK5kiapi6common5types17GraphicAttributes16AccessCachedSizeEv
libkiapi.so.9.0.1:_ZNK5kiapi6common5types17GraphicAttributes18_InternalSerializeEPhPN6google8protobuf2io19EpsCopyOutputStreamE
libkiapi.so.9.0.1:_ZNK5kiapi6common5types17LibraryIdentifier11GetMetadataEv
libkiapi.so.9.0.1:_ZNK5kiapi6common5types17LibraryIdentifier12ByteSizeLongEv
libkiapi.so.9.0.1:_ZNK5kiapi6common5types17LibraryIdentifier12GetClassDataEv
libkiapi.so.9.0.1:_ZNK5kiapi6common5types17LibraryIdentifier13IsInitializedEv
libkiapi.so.9.0.1:_ZNK5kiapi6common5types17LibraryIdentifier16AccessCachedSizeEv
libkiapi.so.9.0.1:_ZNK5kiapi6common5types17LibraryIdentifier18_InternalSerializeEPhPN6google8protobuf2io19EpsCopyOutputStreamE
libkiapi.so.9.0.1:_ZNK5kiapi6common5types20GraphicArcAttributes11GetMetadataEv
libkiapi.so.9.0.1:_ZNK5kiapi6common5types20GraphicArcAttributes12ByteSizeLongEv
libkiapi.so.9.0.1:_ZNK5kiapi6common5types20GraphicArcAttributes12GetClassDataEv
libkiapi.so.9.0.1:_ZNK5kiapi6common5types20GraphicArcAttributes13IsInitializedEv
libkiapi.so.9.0.1:_ZNK5kiapi6common5types20GraphicArcAttributes16AccessCachedSizeEv
libkiapi.so.9.0.1:_ZNK5kiapi6common5types20GraphicArcAttributes18_InternalSerializeEPhPN6google8protobuf2io19EpsCopyOutputStreamE
libkiapi.so.9.0.1:_ZNK5kiapi6common5types21CommandStatusResponse11GetMetadataEv
libkiapi.so.9.0.1:_ZNK5kiapi6common5types21CommandStatusResponse12ByteSizeLongEv
libkiapi.so.9.0.1:_ZNK5kiapi6common5types21CommandStatusResponse12GetClassDataEv
libkiapi.so.9.0.1:_ZNK5kiapi6common5types21CommandStatusResponse13IsInitializedEv
libkiapi.so.9.0.1:_ZNK5kiapi6common5types21CommandStatusResponse16AccessCachedSizeEv
libkiapi.so.9.0.1:_ZNK5kiapi6common5types21CommandStatusResponse18_InternalSerializeEPhPN6google8protobuf2io19EpsCopyOutputStreamE
libkiapi.so.9.0.1:_ZNK5kiapi6common5types21GraphicFillAttributes11GetMetadataEv
libkiapi.so.9.0.1:_ZNK5kiapi6common5types21GraphicFillAttributes12ByteSizeLongEv
libkiapi.so.9.0.1:_ZNK5kiapi6common5types21GraphicFillAttributes12GetClassDataEv
libkiapi.so.9.0.1:_ZNK5kiapi6common5types21GraphicFillAttributes13IsInitializedEv
libkiapi.so.9.0.1:_ZNK5kiapi6common5types21GraphicFillAttributes16AccessCachedSizeEv
libkiapi.so.9.0.1:_ZNK5kiapi6common5types21GraphicFillAttributes18_InternalSerializeEPhPN6google8protobuf2io19EpsCopyOutputStreamE
libkiapi.so.9.0.1:_ZNK5kiapi6common5types23GraphicBezierAttributes11GetMetadataEv
libkiapi.so.9.0.1:_ZNK5kiapi6common5types23GraphicBezierAttributes12ByteSizeLongEv
libkiapi.so.9.0.1:_ZNK5kiapi6common5types23GraphicBezierAttributes12GetClassDataEv
libkiapi.so.9.0.1:_ZNK5kiapi6common5types23GraphicBezierAttributes13IsInitializedEv
libkiapi.so.9.0.1:_ZNK5kiapi6common5types23GraphicBezierAttributes16AccessCachedSizeEv
libkiapi.so.9.0.1:_ZNK5kiapi6common5types23GraphicBezierAttributes18_InternalSerializeEPhPN6google8protobuf2io19EpsCopyOutputStreamE
libkiapi.so.9.0.1:_ZNK5kiapi6common5types23GraphicCircleAttributes11GetMetadataEv
libkiapi.so.9.0.1:_ZNK5kiapi6common5types23GraphicCircleAttributes12ByteSizeLongEv
libkiapi.so.9.0.1:_ZNK5kiapi6common5types23GraphicCircleAttributes12GetClassDataEv
libkiapi.so.9.0.1:_ZNK5kiapi6common5types23GraphicCircleAttributes13IsInitializedEv
libkiapi.so.9.0.1:_ZNK5kiapi6common5types23GraphicCircleAttributes16AccessCachedSizeEv
libkiapi.so.9.0.1:_ZNK5kiapi6common5types23GraphicCircleAttributes18_InternalSerializeEPhPN6google8protobuf2io19EpsCopyOutputStreamE
libkiapi.so.9.0.1:_ZNK5kiapi6common5types24GraphicSegmentAttributes11GetMetadataEv
libkiapi.so.9.0.1:_ZNK5kiapi6common5types24GraphicSegmentAttributes12ByteSizeLongEv
libkiapi.so.9.0.1:_ZNK5kiapi6common5types24GraphicSegmentAttributes12GetClassDataEv
libkiapi.so.9.0.1:_ZNK5kiapi6common5types24GraphicSegmentAttributes13IsInitializedEv
libkiapi.so.9.0.1:_ZNK5kiapi6common5types24GraphicSegmentAttributes16AccessCachedSizeEv
libkiapi.so.9.0.1:_ZNK5kiapi6common5types24GraphicSegmentAttributes18_InternalSerializeEPhPN6google8protobuf2io19EpsCopyOutputStreamE
libkiapi.so.9.0.1:_ZNK5kiapi6common5types26GraphicRectangleAttributes11GetMetadataEv
libkiapi.so.9.0.1:_ZNK5kiapi6common5types26GraphicRectangleAttributes12ByteSizeLongEv
libkiapi.so.9.0.1:_ZNK5kiapi6common5types26GraphicRectangleAttributes12GetClassDataEv
libkiapi.so.9.0.1:_ZNK5kiapi6common5types26GraphicRectangleAttributes13IsInitializedEv
libkiapi.so.9.0.1:_ZNK5kiapi6common5types26GraphicRectangleAttributes16AccessCachedSizeEv
libkiapi.so.9.0.1:_ZNK5kiapi6common5types26GraphicRectangleAttributes18_InternalSerializeEPhPN6google8protobuf2io19EpsCopyOutputStreamE
libkiapi.so.9.0.1:_ZNK5kiapi6common5types4Box211GetMetadataEv
libkiapi.so.9.0.1:_ZNK5kiapi6common5types4Box212ByteSizeLongEv
libkiapi.so.9.0.1:_ZNK5kiapi6common5types4Box212GetClassDataEv
libkiapi.so.9.0.1:_ZNK5kiapi6common5types4Box213IsInitializedEv
libkiapi.so.9.0.1:_ZNK5kiapi6common5types4Box216AccessCachedSizeEv
libkiapi.so.9.0.1:_ZNK5kiapi6common5types4Box218_InternalSerializeEPhPN6google8protobuf2io19EpsCopyOutputStreamE
libkiapi.so.9.0.1:_ZNK5kiapi6common5types4KIID11GetMetadataEv
libkiapi.so.9.0.1:_ZNK5kiapi6common5types4KIID12ByteSizeLongEv
libkiapi.so.9.0.1:_ZNK5kiapi6common5types4KIID12GetClassDataEv
libkiapi.so.9.0.1:_ZNK5kiapi6common5types4KIID13IsInitializedEv
libkiapi.so.9.0.1:_ZNK5kiapi6common5types4KIID16AccessCachedSizeEv
libkiapi.so.9.0.1:_ZNK5kiapi6common5types4KIID18_InternalSerializeEPhPN6google8protobuf2io19EpsCopyOutputStreamE
libkiapi.so.9.0.1:_ZNK5kiapi6common5types4Text11GetMetadataEv
libkiapi.so.9.0.1:_ZNK5kiapi6common5types4Text12ByteSizeLongEv
libkiapi.so.9.0.1:_ZNK5kiapi6common5types4Text12GetClassDataEv
libkiapi.so.9.0.1:_ZNK5kiapi6common5types4Text13IsInitializedEv
libkiapi.so.9.0.1:_ZNK5kiapi6common5types4Text16AccessCachedSizeEv
libkiapi.so.9.0.1:_ZNK5kiapi6common5types4Text18_InternalSerializeEPhPN6google8protobuf2io19EpsCopyOutputStreamE
libkiapi.so.9.0.1:_ZNK5kiapi6common5types5Angle11GetMetadataEv
libkiapi.so.9.0.1:_ZNK5kiapi6common5types5Angle12ByteSizeLongEv
libkiapi.so.9.0.1:_ZNK5kiapi6common5types5Angle12GetClassDataEv
libkiapi.so.9.0.1:_ZNK5kiapi6common5types5Angle13IsInitializedEv
libkiapi.so.9.0.1:_ZNK5kiapi6common5types5Angle16AccessCachedSizeEv
libkiapi.so.9.0.1:_ZNK5kiapi6common5types5Angle18_InternalSerializeEPhPN6google8protobuf2io19EpsCopyOutputStreamE
libkiapi.so.9.0.1:_ZNK5kiapi6common5types5Color11GetMetadataEv
libkiapi.so.9.0.1:_ZNK5kiapi6common5types5Color12ByteSizeLongEv
libkiapi.so.9.0.1:_ZNK5kiapi6common5types5Color12GetClassDataEv
libkiapi.so.9.0.1:_ZNK5kiapi6common5types5Color13IsInitializedEv
libkiapi.so.9.0.1:_ZNK5kiapi6common5types5Color16AccessCachedSizeEv
libkiapi.so.9.0.1:_ZNK5kiapi6common5types5Color18_InternalSerializeEPhPN6google8protobuf2io19EpsCopyOutputStreamE
libkiapi.so.9.0.1:_ZNK5kiapi6common5types5Ratio11GetMetadataEv
libkiapi.so.9.0.1:_ZNK5kiapi6common5types5Ratio12ByteSizeLongEv
libkiapi.so.9.0.1:_ZNK5kiapi6common5types5Ratio12GetClassDataEv
libkiapi.so.9.0.1:_ZNK5kiapi6common5types5Ratio13IsInitializedEv
libkiapi.so.9.0.1:_ZNK5kiapi6common5types5Ratio16AccessCachedSizeEv
libkiapi.so.9.0.1:_ZNK5kiapi6common5types5Ratio18_InternalSerializeEPhPN6google8protobuf2io19EpsCopyOutputStreamE
libkiapi.so.9.0.1:_ZNK5kiapi6common5types7PolySet11GetMetadataEv
libkiapi.so.9.0.1:_ZNK5kiapi6common5types7PolySet12ByteSizeLongEv
libkiapi.so.9.0.1:_ZNK5kiapi6common5types7PolySet12GetClassDataEv
libkiapi.so.9.0.1:_ZNK5kiapi6common5types7PolySet13IsInitializedEv
libkiapi.so.9.0.1:_ZNK5kiapi6common5types7PolySet16AccessCachedSizeEv
libkiapi.so.9.0.1:_ZNK5kiapi6common5types7PolySet18_InternalSerializeEPhPN6google8protobuf2io19EpsCopyOutputStreamE
libkiapi.so.9.0.1:_ZNK5kiapi6common5types7TextBox11GetMetadataEv
libkiapi.so.9.0.1:_ZNK5kiapi6common5types7TextBox12ByteSizeLongEv
libkiapi.so.9.0.1:_ZNK5kiapi6common5types7TextBox12GetClassDataEv
libkiapi.so.9.0.1:_ZNK5kiapi6common5types7TextBox13IsInitializedEv
libkiapi.so.9.0.1:_ZNK5kiapi6common5types7TextBox16AccessCachedSizeEv
libkiapi.so.9.0.1:_ZNK5kiapi6common5types7TextBox18_InternalSerializeEPhPN6google8protobuf2io19EpsCopyOutputStreamE
libkiapi.so.9.0.1:_ZNK5kiapi6common5types7Vector211GetMetadataEv
libkiapi.so.9.0.1:_ZNK5kiapi6common5types7Vector212ByteSizeLongEv
libkiapi.so.9.0.1:_ZNK5kiapi6common5types7Vector212GetClassDataEv
libkiapi.so.9.0.1:_ZNK5kiapi6common5types7Vector213IsInitializedEv
libkiapi.so.9.0.1:_ZNK5kiapi6common5types7Vector216AccessCachedSizeEv
libkiapi.so.9.0.1:_ZNK5kiapi6common5types7Vector218_InternalSerializeEPhPN6google8protobuf2io19EpsCopyOutputStreamE
libkiapi.so.9.0.1:_ZNK5kiapi6common5types7Vector311GetMetadataEv
libkiapi.so.9.0.1:_ZNK5kiapi6common5types7Vector312ByteSizeLongEv
libkiapi.so.9.0.1:_ZNK5kiapi6common5types7Vector312GetClassDataEv
libkiapi.so.9.0.1:_ZNK5kiapi6common5types7Vector313IsInitializedEv
libkiapi.so.9.0.1:_ZNK5kiapi6common5types7Vector316AccessCachedSizeEv
libkiapi.so.9.0.1:_ZNK5kiapi6common5types7Vector318_InternalSerializeEPhPN6google8protobuf2io19EpsCopyOutputStreamE
libkiapi.so.9.0.1:_ZNK5kiapi6common5types8Distance11GetMetadataEv
libkiapi.so.9.0.1:_ZNK5kiapi6common5types8Distance12ByteSizeLongEv
libkiapi.so.9.0.1:_ZNK5kiapi6common5types8Distance12GetClassDataEv
libkiapi.so.9.0.1:_ZNK5kiapi6common5types8Distance13IsInitializedEv
libkiapi.so.9.0.1:_ZNK5kiapi6common5types8Distance16AccessCachedSizeEv
libkiapi.so.9.0.1:_ZNK5kiapi6common5types8Distance18_InternalSerializeEPhPN6google8protobuf2io19EpsCopyOutputStreamE
libkiapi.so.9.0.1:_ZNK5kiapi6common5types8PolyLine11GetMetadataEv
libkiapi.so.9.0.1:_ZNK5kiapi6common5types8PolyLine12ByteSizeLongEv
libkiapi.so.9.0.1:_ZNK5kiapi6common5types8PolyLine12GetClassDataEv
libkiapi.so.9.0.1:_ZNK5kiapi6common5types8PolyLine13IsInitializedEv
libkiapi.so.9.0.1:_ZNK5kiapi6common5types8PolyLine16AccessCachedSizeEv
libkiapi.so.9.0.1:_ZNK5kiapi6common5types8PolyLine18_InternalSerializeEPhPN6google8protobuf2io19EpsCopyOutputStreamE
libkiapi.so.9.0.1:_ZNK5kiapi6common5types8Vector3D11GetMetadataEv
libkiapi.so.9.0.1:_ZNK5kiapi6common5types8Vector3D12ByteSizeLongEv
libkiapi.so.9.0.1:_ZNK5kiapi6common5types8Vector3D12GetClassDataEv
libkiapi.so.9.0.1:_ZNK5kiapi6common5types8Vector3D13IsInitializedEv
libkiapi.so.9.0.1:_ZNK5kiapi6common5types8Vector3D16AccessCachedSizeEv
libkiapi.so.9.0.1:_ZNK5kiapi6common5types8Vector3D18_InternalSerializeEPhPN6google8protobuf2io19EpsCopyOutputStreamE
libkiapi.so.9.0.1:_ZNK5kiapi6common5types9SheetPath11GetMetadataEv
libkiapi.so.9.0.1:_ZNK5kiapi6common5types9SheetPath12ByteSizeLongEv
libkiapi.so.9.0.1:_ZNK5kiapi6common5types9SheetPath12GetClassDataEv
libkiapi.so.9.0.1:_ZNK5kiapi6common5types9SheetPath13IsInitializedEv
libkiapi.so.9.0.1:_ZNK5kiapi6common5types9SheetPath16AccessCachedSizeEv
libkiapi.so.9.0.1:_ZNK5kiapi6common5types9SheetPath18_InternalSerializeEPhPN6google8protobuf2io19EpsCopyOutputStreamE
libkiapi.so.9.0.1:_ZNK5kiapi6common7project13TextVariables11GetMetadataEv
libkiapi.so.9.0.1:_ZNK5kiapi6common7project13TextVariables12ByteSizeLongEv
libkiapi.so.9.0.1:_ZNK5kiapi6common7project13TextVariables12GetClassDataEv
libkiapi.so.9.0.1:_ZNK5kiapi6common7project13TextVariables13IsInitializedEv
libkiapi.so.9.0.1:_ZNK5kiapi6common7project13TextVariables16AccessCachedSizeEv
libkiapi.so.9.0.1:_ZNK5kiapi6common7project13TextVariables18_InternalSerializeEPhPN6google8protobuf2io19EpsCopyOutputStreamE
libkiapi.so.9.0.1:_ZNK5kiapi6common7project21NetClassBoardSettings11GetMetadataEv
libkiapi.so.9.0.1:_ZNK5kiapi6common7project21NetClassBoardSettings12ByteSizeLongEv
libkiapi.so.9.0.1:_ZNK5kiapi6common7project21NetClassBoardSettings12GetClassDataEv
libkiapi.so.9.0.1:_ZNK5kiapi6common7project21NetClassBoardSettings13IsInitializedEv
libkiapi.so.9.0.1:_ZNK5kiapi6common7project21NetClassBoardSettings16AccessCachedSizeEv
libkiapi.so.9.0.1:_ZNK5kiapi6common7project21NetClassBoardSettings18_InternalSerializeEPhPN6google8protobuf2io19EpsCopyOutputStreamE
libkiapi.so.9.0.1:_ZNK5kiapi6common7project25NetClassSchematicSettings11GetMetadataEv
libkiapi.so.9.0.1:_ZNK5kiapi6common7project25NetClassSchematicSettings12ByteSizeLongEv
libkiapi.so.9.0.1:_ZNK5kiapi6common7project25NetClassSchematicSettings12GetClassDataEv
libkiapi.so.9.0.1:_ZNK5kiapi6common7project25NetClassSchematicSettings13IsInitializedEv
libkiapi.so.9.0.1:_ZNK5kiapi6common7project25NetClassSchematicSettings16AccessCachedSizeEv
libkiapi.so.9.0.1:_ZNK5kiapi6common7project25NetClassSchematicSettings18_InternalSerializeEPhPN6google8protobuf2io19EpsCopyOutputStreamE
libkiapi.so.9.0.1:_ZNK5kiapi6common7project8NetClass11GetMetadataEv
libkiapi.so.9.0.1:_ZNK5kiapi6common7project8NetClass12ByteSizeLongEv
libkiapi.so.9.0.1:_ZNK5kiapi6common7project8NetClass12GetClassDataEv
libkiapi.so.9.0.1:_ZNK5kiapi6common7project8NetClass13IsInitializedEv
libkiapi.so.9.0.1:_ZNK5kiapi6common7project8NetClass16AccessCachedSizeEv
libkiapi.so.9.0.1:_ZNK5kiapi6common7project8NetClass18_InternalSerializeEPhPN6google8protobuf2io19EpsCopyOutputStreamE
libkiapi.so.9.0.1:_ZNK5kiapi6common8commands10GetVersion11GetMetadataEv
libkiapi.so.9.0.1:_ZNK5kiapi6common8commands10ItemStatus11GetMetadataEv
libkiapi.so.9.0.1:_ZNK5kiapi6common8commands10ItemStatus12ByteSizeLongEv
libkiapi.so.9.0.1:_ZNK5kiapi6common8commands10ItemStatus12GetClassDataEv
libkiapi.so.9.0.1:_ZNK5kiapi6common8commands10ItemStatus13IsInitializedEv
libkiapi.so.9.0.1:_ZNK5kiapi6common8commands10ItemStatus16AccessCachedSizeEv
libkiapi.so.9.0.1:_ZNK5kiapi6common8commands10ItemStatus18_InternalSerializeEPhPN6google8protobuf2io19EpsCopyOutputStreamE
libkiapi.so.9.0.1:_ZNK5kiapi6common8commands11BeginCommit11GetMetadataEv
libkiapi.so.9.0.1:_ZNK5kiapi6common8commands11CreateItems11GetMetadataEv
libkiapi.so.9.0.1:_ZNK5kiapi6common8commands11CreateItems12ByteSizeLongEv
libkiapi.so.9.0.1:_ZNK5kiapi6common8commands11CreateItems12GetClassDataEv
libkiapi.so.9.0.1:_ZNK5kiapi6common8commands11CreateItems13IsInitializedEv
libkiapi.so.9.0.1:_ZNK5kiapi6common8commands11CreateItems16AccessCachedSizeEv
libkiapi.so.9.0.1:_ZNK5kiapi6common8commands11CreateItems18_InternalSerializeEPhPN6google8protobuf2io19EpsCopyOutputStreamE
libkiapi.so.9.0.1:_ZNK5kiapi6common8commands11DeleteItems11GetMetadataEv
libkiapi.so.9.0.1:_ZNK5kiapi6common8commands11DeleteItems12ByteSizeLongEv
libkiapi.so.9.0.1:_ZNK5kiapi6common8commands11DeleteItems12GetClassDataEv
libkiapi.so.9.0.1:_ZNK5kiapi6common8commands11DeleteItems13IsInitializedEv
libkiapi.so.9.0.1:_ZNK5kiapi6common8commands11DeleteItems16AccessCachedSizeEv
libkiapi.so.9.0.1:_ZNK5kiapi6common8commands11DeleteItems18_InternalSerializeEPhPN6google8protobuf2io19EpsCopyOutputStreamE
libkiapi.so.9.0.1:_ZNK5kiapi6common8commands11SaveOptions11GetMetadataEv
libkiapi.so.9.0.1:_ZNK5kiapi6common8commands11SaveOptions12ByteSizeLongEv
libkiapi.so.9.0.1:_ZNK5kiapi6common8commands11SaveOptions12GetClassDataEv
libkiapi.so.9.0.1:_ZNK5kiapi6common8commands11SaveOptions13IsInitializedEv
libkiapi.so.9.0.1:_ZNK5kiapi6common8commands11SaveOptions16AccessCachedSizeEv
libkiapi.so.9.0.1:_ZNK5kiapi6common8commands11SaveOptions18_InternalSerializeEPhPN6google8protobuf2io19EpsCopyOutputStreamE
libkiapi.so.9.0.1:_ZNK5kiapi6common8commands11UpdateItems11GetMetadataEv
libkiapi.so.9.0.1:_ZNK5kiapi6common8commands11UpdateItems12ByteSizeLongEv
libkiapi.so.9.0.1:_ZNK5kiapi6common8commands11UpdateItems12GetClassDataEv
libkiapi.so.9.0.1:_ZNK5kiapi6common8commands11UpdateItems13IsInitializedEv
libkiapi.so.9.0.1:_ZNK5kiapi6common8commands11UpdateItems16AccessCachedSizeEv
libkiapi.so.9.0.1:_ZNK5kiapi6common8commands11UpdateItems18_InternalSerializeEPhPN6google8protobuf2io19EpsCopyOutputStreamE
libkiapi.so.9.0.1:_ZNK5kiapi6common8commands12GetSelection11GetMetadataEv
libkiapi.so.9.0.1:_ZNK5kiapi6common8commands12GetSelection12ByteSizeLongEv
libkiapi.so.9.0.1:_ZNK5kiapi6common8commands12GetSelection12GetClassDataEv
libkiapi.so.9.0.1:_ZNK5kiapi6common8commands12GetSelection13IsInitializedEv
libkiapi.so.9.0.1:_ZNK5kiapi6common8commands12GetSelection16AccessCachedSizeEv
libkiapi.so.9.0.1:_ZNK5kiapi6common8commands12GetSelection18_InternalSerializeEPhPN6google8protobuf2io19EpsCopyOutputStreamE
libkiapi.so.9.0.1:_ZNK5kiapi6common8commands12PathResponse11GetMetadataEv
libkiapi.so.9.0.1:_ZNK5kiapi6common8commands12PathResponse12ByteSizeLongEv
libkiapi.so.9.0.1:_ZNK5kiapi6common8commands12PathResponse12GetClassDataEv
libkiapi.so.9.0.1:_ZNK5kiapi6common8commands12PathResponse13IsInitializedEv
libkiapi.so.9.0.1:_ZNK5kiapi6common8commands12PathResponse16AccessCachedSizeEv
libkiapi.so.9.0.1:_ZNK5kiapi6common8commands12PathResponse18_InternalSerializeEPhPN6google8protobuf2io19EpsCopyOutputStreamE
libkiapi.so.9.0.1:_ZNK5kiapi6common8commands12SaveDocument11GetMetadataEv
libkiapi.so.9.0.1:_ZNK5kiapi6common8commands12SaveDocument12ByteSizeLongEv
libkiapi.so.9.0.1:_ZNK5kiapi6common8commands12SaveDocument12GetClassDataEv
libkiapi.so.9.0.1:_ZNK5kiapi6common8commands12SaveDocument13IsInitializedEv
libkiapi.so.9.0.1:_ZNK5kiapi6common8commands12SaveDocument16AccessCachedSizeEv
libkiapi.so.9.0.1:_ZNK5kiapi6common8commands12SaveDocument18_InternalSerializeEPhPN6google8protobuf2io19EpsCopyOutputStreamE
libkiapi.so.9.0.1:_ZNK5kiapi6common8commands13GetNetClasses11GetMetadataEv
libkiapi.so.9.0.1:_ZNK5kiapi6common8commands13RefreshEditor11GetMetadataEv
libkiapi.so.9.0.1:_ZNK5kiapi6common8commands13RefreshEditor12ByteSizeLongEv
libkiapi.so.9.0.1:_ZNK5kiapi6common8commands13RefreshEditor12GetClassDataEv
libkiapi.so.9.0.1:_ZNK5kiapi6common8commands13RefreshEditor13IsInitializedEv
libkiapi.so.9.0.1:_ZNK5kiapi6common8commands13RefreshEditor16AccessCachedSizeEv
libkiapi.so.9.0.1:_ZNK5kiapi6common8commands13RefreshEditor18_InternalSerializeEPhPN6google8protobuf2io19EpsCopyOutputStreamE
libkiapi.so.9.0.1:_ZNK5kiapi6common8commands13SetNetClasses11GetMetadataEv
libkiapi.so.9.0.1:_ZNK5kiapi6common8commands13SetNetClasses12ByteSizeLongEv
libkiapi.so.9.0.1:_ZNK5kiapi6common8commands13SetNetClasses12GetClassDataEv
libkiapi.so.9.0.1:_ZNK5kiapi6common8commands13SetNetClasses13IsInitializedEv
libkiapi.so.9.0.1:_ZNK5kiapi6common8commands13SetNetClasses16AccessCachedSizeEv
libkiapi.so.9.0.1:_ZNK5kiapi6common8commands13SetNetClasses18_InternalSerializeEPhPN6google8protobuf2io19EpsCopyOutputStreamE
libkiapi.so.9.0.1:_ZNK5kiapi6common8commands13TextOrTextBox11GetMetadataEv
libkiapi.so.9.0.1:_ZNK5kiapi6common8commands13TextOrTextBox12ByteSizeLongEv
libkiapi.so.9.0.1:_ZNK5kiapi6common8commands13TextOrTextBox12GetClassDataEv
libkiapi.so.9.0.1:_ZNK5kiapi6common8commands13TextOrTextBox13IsInitializedEv
libkiapi.so.9.0.1:_ZNK5kiapi6common8commands13TextOrTextBox16AccessCachedSizeEv
libkiapi.so.9.0.1:_ZNK5kiapi6common8commands13TextOrTextBox18_InternalSerializeEPhPN6google8protobuf2io19EpsCopyOutputStreamE
libkiapi.so.9.0.1:_ZNK5kiapi6common8commands14AddToSelection11GetMetadataEv
libkiapi.so.9.0.1:_ZNK5kiapi6common8commands14AddToSelection12ByteSizeLongEv
libkiapi.so.9.0.1:_ZNK5kiapi6common8commands14AddToSelection12GetClassDataEv
libkiapi.so.9.0.1:_ZNK5kiapi6common8commands14AddToSelection13IsInitializedEv
libkiapi.so.9.0.1:_ZNK5kiapi6common8commands14AddToSelection16AccessCachedSizeEv
libkiapi.so.9.0.1:_ZNK5kiapi6common8commands14AddToSelection18_InternalSerializeEPhPN6google8protobuf2io19EpsCopyOutputStreamE
libkiapi.so.9.0.1:_ZNK5kiapi6common8commands14ClearSelection11GetMetadataEv
libkiapi.so.9.0.1:_ZNK5kiapi6common8commands14ClearSelection12ByteSizeLongEv
libkiapi.so.9.0.1:_ZNK5kiapi6common8commands14ClearSelection12GetClassDataEv
libkiapi.so.9.0.1:_ZNK5kiapi6common8commands14ClearSelection13IsInitializedEv
libkiapi.so.9.0.1:_ZNK5kiapi6common8commands14ClearSelection16AccessCachedSizeEv
libkiapi.so.9.0.1:_ZNK5kiapi6common8commands14ClearSelection18_InternalSerializeEPhPN6google8protobuf2io19EpsCopyOutputStreamE
libkiapi.so.9.0.1:_ZNK5kiapi6common8commands14GetBoundingBox11GetMetadataEv
libkiapi.so.9.0.1:_ZNK5kiapi6common8commands14GetBoundingBox12ByteSizeLongEv
libkiapi.so.9.0.1:_ZNK5kiapi6common8commands14GetBoundingBox12GetClassDataEv
libkiapi.so.9.0.1:_ZNK5kiapi6common8commands14GetBoundingBox13IsInitializedEv
libkiapi.so.9.0.1:_ZNK5kiapi6common8commands14GetBoundingBox16AccessCachedSizeEv
libkiapi.so.9.0.1:_ZNK5kiapi6common8commands14GetBoundingBox18_InternalSerializeEPhPN6google8protobuf2io19EpsCopyOutputStreamE
libkiapi.so.9.0.1:_ZNK5kiapi6common8commands14GetTextExtents11GetMetadataEv
libkiapi.so.9.0.1:_ZNK5kiapi6common8commands14GetTextExtents12ByteSizeLongEv
libkiapi.so.9.0.1:_ZNK5kiapi6common8commands14GetTextExtents12GetClassDataEv
libkiapi.so.9.0.1:_ZNK5kiapi6common8commands14GetTextExtents13IsInitializedEv
libkiapi.so.9.0.1:_ZNK5kiapi6common8commands14GetTextExtents16AccessCachedSizeEv
libkiapi.so.9.0.1:_ZNK5kiapi6common8commands14GetTextExtents18_InternalSerializeEPhPN6google8protobuf2io19EpsCopyOutputStreamE
libkiapi.so.9.0.1:_ZNK5kiapi6common8commands14RevertDocument11GetMetadataEv
libkiapi.so.9.0.1:_ZNK5kiapi6common8commands14RevertDocument12ByteSizeLongEv
libkiapi.so.9.0.1:_ZNK5kiapi6common8commands14RevertDocument12GetClassDataEv
libkiapi.so.9.0.1:_ZNK5kiapi6common8commands14RevertDocument13IsInitializedEv
libkiapi.so.9.0.1:_ZNK5kiapi6common8commands14RevertDocument16AccessCachedSizeEv
libkiapi.so.9.0.1:_ZNK5kiapi6common8commands14RevertDocument18_InternalSerializeEPhPN6google8protobuf2io19EpsCopyOutputStreamE
libkiapi.so.9.0.1:_ZNK5kiapi6common8commands14StringResponse11GetMetadataEv
libkiapi.so.9.0.1:_ZNK5kiapi6common8commands14StringResponse12ByteSizeLongEv
libkiapi.so.9.0.1:_ZNK5kiapi6common8commands14StringResponse12GetClassDataEv
libkiapi.so.9.0.1:_ZNK5kiapi6common8commands14StringResponse13IsInitializedEv
libkiapi.so.9.0.1:_ZNK5kiapi6common8commands14StringResponse16AccessCachedSizeEv
libkiapi.so.9.0.1:_ZNK5kiapi6common8commands14StringResponse18_InternalSerializeEPhPN6google8protobuf2io19EpsCopyOutputStreamE
libkiapi.so.9.0.1:_ZNK5kiapi6common8commands14TextWithShapes11GetMetadataEv
libkiapi.so.9.0.1:_ZNK5kiapi6common8commands14TextWithShapes12ByteSizeLongEv
libkiapi.so.9.0.1:_ZNK5kiapi6common8commands14TextWithShapes12GetClassDataEv
libkiapi.so.9.0.1:_ZNK5kiapi6common8commands14TextWithShapes13IsInitializedEv
libkiapi.so.9.0.1:_ZNK5kiapi6common8commands14TextWithShapes16AccessCachedSizeEv
libkiapi.so.9.0.1:_ZNK5kiapi6common8commands14TextWithShapes18_InternalSerializeEPhPN6google8protobuf2io19EpsCopyOutputStreamE
libkiapi.so.9.0.1:_ZNK5kiapi6common8commands15GetTextAsShapes11GetMetadataEv
libkiapi.so.9.0.1:_ZNK5kiapi6common8commands15GetTextAsShapes12ByteSizeLongEv
libkiapi.so.9.0.1:_ZNK5kiapi6common8commands15GetTextAsShapes12GetClassDataEv
libkiapi.so.9.0.1:_ZNK5kiapi6common8commands15GetTextAsShapes13IsInitializedEv
libkiapi.so.9.0.1:_ZNK5kiapi6common8commands15GetTextAsShapes16AccessCachedSizeEv
libkiapi.so.9.0.1:_ZNK5kiapi6common8commands15GetTextAsShapes18_InternalSerializeEPhPN6google8protobuf2io19EpsCopyOutputStreamE
libkiapi.so.9.0.1:_ZNK5kiapi6common8commands15HitTestResponse11GetMetadataEv
libkiapi.so.9.0.1:_ZNK5kiapi6common8commands15HitTestResponse12ByteSizeLongEv
libkiapi.so.9.0.1:_ZNK5kiapi6common8commands15HitTestResponse12GetClassDataEv
libkiapi.so.9.0.1:_ZNK5kiapi6common8commands15HitTestResponse13IsInitializedEv
libkiapi.so.9.0.1:_ZNK5kiapi6common8commands15HitTestResponse16AccessCachedSizeEv
libkiapi.so.9.0.1:_ZNK5kiapi6common8commands15HitTestResponse18_InternalSerializeEPhPN6google8protobuf2io19EpsCopyOutputStreamE
libkiapi.so.9.0.1:_ZNK5kiapi6common8commands16GetItemsResponse11GetMetadataEv
libkiapi.so.9.0.1:_ZNK5kiapi6common8commands16GetItemsResponse12ByteSizeLongEv
libkiapi.so.9.0.1:_ZNK5kiapi6common8commands16GetItemsResponse12GetClassDataEv
libkiapi.so.9.0.1:_ZNK5kiapi6common8commands16GetItemsResponse13IsInitializedEv
libkiapi.so.9.0.1:_ZNK5kiapi6common8commands16GetItemsResponse16AccessCachedSizeEv
libkiapi.so.9.0.1:_ZNK5kiapi6common8commands16GetItemsResponse18_InternalSerializeEPhPN6google8protobuf2io19EpsCopyOutputStreamE
libkiapi.so.9.0.1:_ZNK5kiapi6common8commands16GetOpenDocuments11GetMetadataEv
libkiapi.so.9.0.1:_ZNK5kiapi6common8commands16GetOpenDocuments12ByteSizeLongEv
libkiapi.so.9.0.1:_ZNK5kiapi6common8commands16GetOpenDocuments12GetClassDataEv
libkiapi.so.9.0.1:_ZNK5kiapi6common8commands16GetOpenDocuments13IsInitializedEv
libkiapi.so.9.0.1:_ZNK5kiapi6common8commands16GetOpenDocuments16AccessCachedSizeEv
libkiapi.so.9.0.1:_ZNK5kiapi6common8commands16GetOpenDocuments18_InternalSerializeEPhPN6google8protobuf2io19EpsCopyOutputStreamE
libkiapi.so.9.0.1:_ZNK5kiapi6common8commands16GetTextVariables11GetMetadataEv
libkiapi.so.9.0.1:_ZNK5kiapi6common8commands16GetTextVariables12ByteSizeLongEv
libkiapi.so.9.0.1:_ZNK5kiapi6common8commands16GetTextVariables12GetClassDataEv
libkiapi.so.9.0.1:_ZNK5kiapi6common8commands16GetTextVariables13IsInitializedEv
libkiapi.so.9.0.1:_ZNK5kiapi6common8commands16GetTextVariables16AccessCachedSizeEv
libkiapi.so.9.0.1:_ZNK5kiapi6common8commands16GetTextVariables18_InternalSerializeEPhPN6google8protobuf2io19EpsCopyOutputStreamE
libkiapi.so.9.0.1:_ZNK5kiapi6common8commands16ItemUpdateResult11GetMetadataEv
libkiapi.so.9.0.1:_ZNK5kiapi6common8commands16ItemUpdateResult12ByteSizeLongEv
libkiapi.so.9.0.1:_ZNK5kiapi6common8commands16ItemUpdateResult12GetClassDataEv
libkiapi.so.9.0.1:_ZNK5kiapi6common8commands16ItemUpdateResult13IsInitializedEv
libkiapi.so.9.0.1:_ZNK5kiapi6common8commands16ItemUpdateResult16AccessCachedSizeEv
libkiapi.so.9.0.1:_ZNK5kiapi6common8commands16ItemUpdateResult18_InternalSerializeEPhPN6google8protobuf2io19EpsCopyOutputStreamE
libkiapi.so.9.0.1:_ZNK5kiapi6common8commands16SetTextVariables11GetMetadataEv
libkiapi.so.9.0.1:_ZNK5kiapi6common8commands16SetTextVariables12ByteSizeLongEv
libkiapi.so.9.0.1:_ZNK5kiapi6common8commands16SetTextVariables12GetClassDataEv
libkiapi.so.9.0.1:_ZNK5kiapi6common8commands16SetTextVariables13IsInitializedEv
libkiapi.so.9.0.1:_ZNK5kiapi6common8commands16SetTextVariables16AccessCachedSizeEv
libkiapi.so.9.0.1:_ZNK5kiapi6common8commands16SetTextVariables18_InternalSerializeEPhPN6google8protobuf2io19EpsCopyOutputStreamE
libkiapi.so.9.0.1:_ZNK5kiapi6common8commands17EndCommitResponse11GetMetadataEv
libkiapi.so.9.0.1:_ZNK5kiapi6common8commands17GetTitleBlockInfo11GetMetadataEv
libkiapi.so.9.0.1:_ZNK5kiapi6common8commands17GetTitleBlockInfo12ByteSizeLongEv
libkiapi.so.9.0.1:_ZNK5kiapi6common8commands17GetTitleBlockInfo12GetClassDataEv
libkiapi.so.9.0.1:_ZNK5kiapi6common8commands17GetTitleBlockInfo13IsInitializedEv
libkiapi.so.9.0.1:_ZNK5kiapi6common8commands17GetTitleBlockInfo16AccessCachedSizeEv
libkiapi.so.9.0.1:_ZNK5kiapi6common8commands17GetTitleBlockInfo18_InternalSerializeEPhPN6google8protobuf2io19EpsCopyOutputStreamE
libkiapi.so.9.0.1:_ZNK5kiapi6common8commands17RunActionResponse11GetMetadataEv
libkiapi.so.9.0.1:_ZNK5kiapi6common8commands17RunActionResponse12ByteSizeLongEv
libkiapi.so.9.0.1:_ZNK5kiapi6common8commands17RunActionResponse12GetClassDataEv
libkiapi.so.9.0.1:_ZNK5kiapi6common8commands17RunActionResponse13IsInitializedEv
libkiapi.so.9.0.1:_ZNK5kiapi6common8commands17RunActionResponse16AccessCachedSizeEv
libkiapi.so.9.0.1:_ZNK5kiapi6common8commands17RunActionResponse18_InternalSerializeEPhPN6google8protobuf2io19EpsCopyOutputStreamE
libkiapi.so.9.0.1:_ZNK5kiapi6common8commands17SelectionResponse11GetMetadataEv
libkiapi.so.9.0.1:_ZNK5kiapi6common8commands17SelectionResponse12ByteSizeLongEv
libkiapi.so.9.0.1:_ZNK5kiapi6common8commands17SelectionResponse12GetClassDataEv
libkiapi.so.9.0.1:_ZNK5kiapi6common8commands17SelectionResponse13IsInitializedEv
libkiapi.so.9.0.1:_ZNK5kiapi6common8commands17SelectionResponse16AccessCachedSizeEv
libkiapi.so.9.0.1:_ZNK5kiapi6common8commands17SelectionResponse18_InternalSerializeEPhPN6google8protobuf2io19EpsCopyOutputStreamE
libkiapi.so.9.0.1:_ZNK5kiapi6common8commands18GetKiCadBinaryPath11GetMetadataEv
libkiapi.so.9.0.1:_ZNK5kiapi6common8commands18GetKiCadBinaryPath12ByteSizeLongEv
libkiapi.so.9.0.1:_ZNK5kiapi6common8commands18GetKiCadBinaryPath12GetClassDataEv
libkiapi.so.9.0.1:_ZNK5kiapi6common8commands18GetKiCadBinaryPath13IsInitializedEv
libkiapi.so.9.0.1:_ZNK5kiapi6common8commands18GetKiCadBinaryPath16AccessCachedSizeEv
libkiapi.so.9.0.1:_ZNK5kiapi6common8commands18GetKiCadBinaryPath18_InternalSerializeEPhPN6google8protobuf2io19EpsCopyOutputStreamE
libkiapi.so.9.0.1:_ZNK5kiapi6common8commands18GetVersionResponse11GetMetadataEv
libkiapi.so.9.0.1:_ZNK5kiapi6common8commands18GetVersionResponse12ByteSizeLongEv
libkiapi.so.9.0.1:_ZNK5kiapi6common8commands18GetVersionResponse12GetClassDataEv
libkiapi.so.9.0.1:_ZNK5kiapi6common8commands18GetVersionResponse13IsInitializedEv
libkiapi.so.9.0.1:_ZNK5kiapi6common8commands18GetVersionResponse16AccessCachedSizeEv
libkiapi.so.9.0.1:_ZNK5kiapi6common8commands18GetVersionResponse18_InternalSerializeEPhPN6google8protobuf2io19EpsCopyOutputStreamE
libkiapi.so.9.0.1:_ZNK5kiapi6common8commands18ItemCreationResult11GetMetadataEv
libkiapi.so.9.0.1:_ZNK5kiapi6common8commands18ItemCreationResult12ByteSizeLongEv
libkiapi.so.9.0.1:_ZNK5kiapi6common8commands18ItemCreationResult12GetClassDataEv
libkiapi.so.9.0.1:_ZNK5kiapi6common8commands18ItemCreationResult13IsInitializedEv
libkiapi.so.9.0.1:_ZNK5kiapi6common8commands18ItemCreationResult16AccessCachedSizeEv
libkiapi.so.9.0.1:_ZNK5kiapi6common8commands18ItemCreationResult18_InternalSerializeEPhPN6google8protobuf2io19EpsCopyOutputStreamE
libkiapi.so.9.0.1:_ZNK5kiapi6common8commands18ItemDeletionResult11GetMetadataEv
libkiapi.so.9.0.1:_ZNK5kiapi6common8commands18ItemDeletionResult12ByteSizeLongEv
libkiapi.so.9.0.1:_ZNK5kiapi6common8commands18ItemDeletionResult12GetClassDataEv
libkiapi.so.9.0.1:_ZNK5kiapi6common8commands18ItemDeletionResult13IsInitializedEv
libkiapi.so.9.0.1:_ZNK5kiapi6common8commands18ItemDeletionResult16AccessCachedSizeEv
libkiapi.so.9.0.1:_ZNK5kiapi6common8commands18ItemDeletionResult18_InternalSerializeEPhPN6google8protobuf2io19EpsCopyOutputStreamE
libkiapi.so.9.0.1:_ZNK5kiapi6common8commands18NetClassesResponse11GetMetadataEv
libkiapi.so.9.0.1:_ZNK5kiapi6common8commands18NetClassesResponse12ByteSizeLongEv
libkiapi.so.9.0.1:_ZNK5kiapi6common8commands18NetClassesResponse12GetClassDataEv
libkiapi.so.9.0.1:_ZNK5kiapi6common8commands18NetClassesResponse13IsInitializedEv
libkiapi.so.9.0.1:_ZNK5kiapi6common8commands18NetClassesResponse16AccessCachedSizeEv
libkiapi.so.9.0.1:_ZNK5kiapi6common8commands18NetClassesResponse18_InternalSerializeEPhPN6google8protobuf2io19EpsCopyOutputStreamE
libkiapi.so.9.0.1:_ZNK5kiapi6common8commands18SaveCopyOfDocument11GetMetadataEv
libkiapi.so.9.0.1:_ZNK5kiapi6common8commands18SaveCopyOfDocument12ByteSizeLongEv
libkiapi.so.9.0.1:_ZNK5kiapi6common8commands18SaveCopyOfDocument12GetClassDataEv
libkiapi.so.9.0.1:_ZNK5kiapi6common8commands18SaveCopyOfDocument13IsInitializedEv
libkiapi.so.9.0.1:_ZNK5kiapi6common8commands18SaveCopyOfDocument16AccessCachedSizeEv
libkiapi.so.9.0.1:_ZNK5kiapi6common8commands18SaveCopyOfDocument18_InternalSerializeEPhPN6google8protobuf2io19EpsCopyOutputStreamE
libkiapi.so.9.0.1:_ZNK5kiapi6common8commands19BeginCommitResponse11GetMetadataEv
libkiapi.so.9.0.1:_ZNK5kiapi6common8commands19BeginCommitResponse12ByteSizeLongEv
libkiapi.so.9.0.1:_ZNK5kiapi6common8commands19BeginCommitResponse12GetClassDataEv
libkiapi.so.9.0.1:_ZNK5kiapi6common8commands19BeginCommitResponse13IsInitializedEv
libkiapi.so.9.0.1:_ZNK5kiapi6common8commands19BeginCommitResponse16AccessCachedSizeEv
libkiapi.so.9.0.1:_ZNK5kiapi6common8commands19BeginCommitResponse18_InternalSerializeEPhPN6google8protobuf2io19EpsCopyOutputStreamE
libkiapi.so.9.0.1:_ZNK5kiapi6common8commands19CreateItemsResponse11GetMetadataEv
libkiapi.so.9.0.1:_ZNK5kiapi6common8commands19CreateItemsResponse12ByteSizeLongEv
libkiapi.so.9.0.1:_ZNK5kiapi6common8commands19CreateItemsResponse12GetClassDataEv
libkiapi.so.9.0.1:_ZNK5kiapi6common8commands19CreateItemsResponse13IsInitializedEv
libkiapi.so.9.0.1:_ZNK5kiapi6common8commands19CreateItemsResponse16AccessCachedSizeEv
libkiapi.so.9.0.1:_ZNK5kiapi6common8commands19CreateItemsResponse18_InternalSerializeEPhPN6google8protobuf2io19EpsCopyOutputStreamE
libkiapi.so.9.0.1:_ZNK5kiapi6common8commands19DeleteItemsResponse11GetMetadataEv
libkiapi.so.9.0.1:_ZNK5kiapi6common8commands19DeleteItemsResponse12ByteSizeLongEv
libkiapi.so.9.0.1:_ZNK5kiapi6common8commands19DeleteItemsResponse12GetClassDataEv
libkiapi.so.9.0.1:_ZNK5kiapi6common8commands19DeleteItemsResponse13IsInitializedEv
libkiapi.so.9.0.1:_ZNK5kiapi6common8commands19DeleteItemsResponse16AccessCachedSizeEv
libkiapi.so.9.0.1:_ZNK5kiapi6common8commands19DeleteItemsResponse18_InternalSerializeEPhPN6google8protobuf2io19EpsCopyOutputStreamE
libkiapi.so.9.0.1:_ZNK5kiapi6common8commands19ExpandTextVariables11GetMetadataEv
libkiapi.so.9.0.1:_ZNK5kiapi6common8commands19ExpandTextVariables12ByteSizeLongEv
libkiapi.so.9.0.1:_ZNK5kiapi6common8commands19ExpandTextVariables12GetClassDataEv
libkiapi.so.9.0.1:_ZNK5kiapi6common8commands19ExpandTextVariables13IsInitializedEv
libkiapi.so.9.0.1:_ZNK5kiapi6common8commands19ExpandTextVariables16AccessCachedSizeEv
libkiapi.so.9.0.1:_ZNK5kiapi6common8commands19ExpandTextVariables18_InternalSerializeEPhPN6google8protobuf2io19EpsCopyOutputStreamE
libkiapi.so.9.0.1:_ZNK5kiapi6common8commands19RemoveFromSelection11GetMetadataEv
libkiapi.so.9.0.1:_ZNK5kiapi6common8commands19RemoveFromSelection12ByteSizeLongEv
libkiapi.so.9.0.1:_ZNK5kiapi6common8commands19RemoveFromSelection12GetClassDataEv
libkiapi.so.9.0.1:_ZNK5kiapi6common8commands19RemoveFromSelection13IsInitializedEv
libkiapi.so.9.0.1:_ZNK5kiapi6common8commands19RemoveFromSelection16AccessCachedSizeEv
libkiapi.so.9.0.1:_ZNK5kiapi6common8commands19RemoveFromSelection18_InternalSerializeEPhPN6google8protobuf2io19EpsCopyOutputStreamE
libkiapi.so.9.0.1:_ZNK5kiapi6common8commands19UpdateItemsResponse11GetMetadataEv
libkiapi.so.9.0.1:_ZNK5kiapi6common8commands19UpdateItemsResponse12ByteSizeLongEv
libkiapi.so.9.0.1:_ZNK5kiapi6common8commands19UpdateItemsResponse12GetClassDataEv
libkiapi.so.9.0.1:_ZNK5kiapi6common8commands19UpdateItemsResponse13IsInitializedEv
libkiapi.so.9.0.1:_ZNK5kiapi6common8commands19UpdateItemsResponse16AccessCachedSizeEv
libkiapi.so.9.0.1:_ZNK5kiapi6common8commands19UpdateItemsResponse18_InternalSerializeEPhPN6google8protobuf2io19EpsCopyOutputStreamE
libkiapi.so.9.0.1:_ZNK5kiapi6common8commands20SaveDocumentToString11GetMetadataEv
libkiapi.so.9.0.1:_ZNK5kiapi6common8commands20SaveDocumentToString12ByteSizeLongEv
libkiapi.so.9.0.1:_ZNK5kiapi6common8commands20SaveDocumentToString12GetClassDataEv
libkiapi.so.9.0.1:_ZNK5kiapi6common8commands20SaveDocumentToString13IsInitializedEv
libkiapi.so.9.0.1:_ZNK5kiapi6common8commands20SaveDocumentToString16AccessCachedSizeEv
libkiapi.so.9.0.1:_ZNK5kiapi6common8commands20SaveDocumentToString18_InternalSerializeEPhPN6google8protobuf2io19EpsCopyOutputStreamE
libkiapi.so.9.0.1:_ZNK5kiapi6common8commands21GetPluginSettingsPath11GetMetadataEv
libkiapi.so.9.0.1:_ZNK5kiapi6common8commands21GetPluginSettingsPath12ByteSizeLongEv
libkiapi.so.9.0.1:_ZNK5kiapi6common8commands21GetPluginSettingsPath12GetClassDataEv
libkiapi.so.9.0.1:_ZNK5kiapi6common8commands21GetPluginSettingsPath13IsInitializedEv
libkiapi.so.9.0.1:_ZNK5kiapi6common8commands21GetPluginSettingsPath16AccessCachedSizeEv
libkiapi.so.9.0.1:_ZNK5kiapi6common8commands21GetPluginSettingsPath18_InternalSerializeEPhPN6google8protobuf2io19EpsCopyOutputStreamE
libkiapi.so.9.0.1:_ZNK5kiapi6common8commands21SaveSelectionToString11GetMetadataEv
libkiapi.so.9.0.1:_ZNK5kiapi6common8commands21SavedDocumentResponse11GetMetadataEv
libkiapi.so.9.0.1:_ZNK5kiapi6common8commands21SavedDocumentResponse12ByteSizeLongEv
libkiapi.so.9.0.1:_ZNK5kiapi6common8commands21SavedDocumentResponse12GetClassDataEv
libkiapi.so.9.0.1:_ZNK5kiapi6common8commands21SavedDocumentResponse13IsInitializedEv
libkiapi.so.9.0.1:_ZNK5kiapi6common8commands21SavedDocumentResponse16AccessCachedSizeEv
libkiapi.so.9.0.1:_ZNK5kiapi6common8commands21SavedDocumentResponse18_InternalSerializeEPhPN6google8protobuf2io19EpsCopyOutputStreamE
libkiapi.so.9.0.1:_ZNK5kiapi6common8commands22GetBoundingBoxResponse11GetMetadataEv
libkiapi.so.9.0.1:_ZNK5kiapi6common8commands22GetBoundingBoxResponse12ByteSizeLongEv
libkiapi.so.9.0.1:_ZNK5kiapi6common8commands22GetBoundingBoxResponse12GetClassDataEv
libkiapi.so.9.0.1:_ZNK5kiapi6common8commands22GetBoundingBoxResponse13IsInitializedEv
libkiapi.so.9.0.1:_ZNK5kiapi6common8commands22GetBoundingBoxResponse16AccessCachedSizeEv
libkiapi.so.9.0.1:_ZNK5kiapi6common8commands22GetBoundingBoxResponse18_InternalSerializeEPhPN6google8protobuf2io19EpsCopyOutputStreamE
libkiapi.so.9.0.1:_ZNK5kiapi6common8commands22SavedSelectionResponse11GetMetadataEv
libkiapi.so.9.0.1:_ZNK5kiapi6common8commands22SavedSelectionResponse12ByteSizeLongEv
libkiapi.so.9.0.1:_ZNK5kiapi6common8commands22SavedSelectionResponse12GetClassDataEv
libkiapi.so.9.0.1:_ZNK5kiapi6common8commands22SavedSelectionResponse13IsInitializedEv
libkiapi.so.9.0.1:_ZNK5kiapi6common8commands22SavedSelectionResponse16AccessCachedSizeEv
libkiapi.so.9.0.1:_ZNK5kiapi6common8commands22SavedSelectionResponse18_InternalSerializeEPhPN6google8protobuf2io19EpsCopyOutputStreamE
libkiapi.so.9.0.1:_ZNK5kiapi6common8commands23GetTextAsShapesResponse11GetMetadataEv
libkiapi.so.9.0.1:_ZNK5kiapi6common8commands23GetTextAsShapesResponse12ByteSizeLongEv
libkiapi.so.9.0.1:_ZNK5kiapi6common8commands23GetTextAsShapesResponse12GetClassDataEv
libkiapi.so.9.0.1:_ZNK5kiapi6common8commands23GetTextAsShapesResponse13IsInitializedEv
libkiapi.so.9.0.1:_ZNK5kiapi6common8commands23GetTextAsShapesResponse16AccessCachedSizeEv
libkiapi.so.9.0.1:_ZNK5kiapi6common8commands23GetTextAsShapesResponse18_InternalSerializeEPhPN6google8protobuf2io19EpsCopyOutputStreamE
libkiapi.so.9.0.1:_ZNK5kiapi6common8commands24GetOpenDocumentsResponse11GetMetadataEv
libkiapi.so.9.0.1:_ZNK5kiapi6common8commands24GetOpenDocumentsResponse12ByteSizeLongEv
libkiapi.so.9.0.1:_ZNK5kiapi6common8commands24GetOpenDocumentsResponse12GetClassDataEv
libkiapi.so.9.0.1:_ZNK5kiapi6common8commands24GetOpenDocumentsResponse13IsInitializedEv
libkiapi.so.9.0.1:_ZNK5kiapi6common8commands24GetOpenDocumentsResponse16AccessCachedSizeEv
libkiapi.so.9.0.1:_ZNK5kiapi6common8commands24GetOpenDocumentsResponse18_InternalSerializeEPhPN6google8protobuf2io19EpsCopyOutputStreamE
libkiapi.so.9.0.1:_ZNK5kiapi6common8commands27ExpandTextVariablesResponse11GetMetadataEv
libkiapi.so.9.0.1:_ZNK5kiapi6common8commands27ExpandTextVariablesResponse12ByteSizeLongEv
libkiapi.so.9.0.1:_ZNK5kiapi6common8commands27ExpandTextVariablesResponse12GetClassDataEv
libkiapi.so.9.0.1:_ZNK5kiapi6common8commands27ExpandTextVariablesResponse13IsInitializedEv
libkiapi.so.9.0.1:_ZNK5kiapi6common8commands27ExpandTextVariablesResponse16AccessCachedSizeEv
libkiapi.so.9.0.1:_ZNK5kiapi6common8commands27ExpandTextVariablesResponse18_InternalSerializeEPhPN6google8protobuf2io19EpsCopyOutputStreamE
libkiapi.so.9.0.1:_ZNK5kiapi6common8commands29ParseAndCreateItemsFromString11GetMetadataEv
libkiapi.so.9.0.1:_ZNK5kiapi6common8commands29ParseAndCreateItemsFromString12ByteSizeLongEv
libkiapi.so.9.0.1:_ZNK5kiapi6common8commands29ParseAndCreateItemsFromString12GetClassDataEv
libkiapi.so.9.0.1:_ZNK5kiapi6common8commands29ParseAndCreateItemsFromString13IsInitializedEv
libkiapi.so.9.0.1:_ZNK5kiapi6common8commands29ParseAndCreateItemsFromString16AccessCachedSizeEv
libkiapi.so.9.0.1:_ZNK5kiapi6common8commands29ParseAndCreateItemsFromString18_InternalSerializeEPhPN6google8protobuf2io19EpsCopyOutputStreamE
libkiapi.so.9.0.1:_ZNK5kiapi6common8commands4Ping11GetMetadataEv
libkiapi.so.9.0.1:_ZNK5kiapi6common8commands7HitTest11GetMetadataEv
libkiapi.so.9.0.1:_ZNK5kiapi6common8commands7HitTest12ByteSizeLongEv
libkiapi.so.9.0.1:_ZNK5kiapi6common8commands7HitTest12GetClassDataEv
libkiapi.so.9.0.1:_ZNK5kiapi6common8commands7HitTest13IsInitializedEv
libkiapi.so.9.0.1:_ZNK5kiapi6common8commands7HitTest16AccessCachedSizeEv
libkiapi.so.9.0.1:_ZNK5kiapi6common8commands7HitTest18_InternalSerializeEPhPN6google8protobuf2io19EpsCopyOutputStreamE
libkiapi.so.9.0.1:_ZNK5kiapi6common8commands8GetItems11GetMetadataEv
libkiapi.so.9.0.1:_ZNK5kiapi6common8commands8GetItems12ByteSizeLongEv
libkiapi.so.9.0.1:_ZNK5kiapi6common8commands8GetItems12GetClassDataEv
libkiapi.so.9.0.1:_ZNK5kiapi6common8commands8GetItems13IsInitializedEv
libkiapi.so.9.0.1:_ZNK5kiapi6common8commands8GetItems16AccessCachedSizeEv
libkiapi.so.9.0.1:_ZNK5kiapi6common8commands8GetItems18_InternalSerializeEPhPN6google8protobuf2io19EpsCopyOutputStreamE
libkiapi.so.9.0.1:_ZNK5kiapi6common8commands9EndCommit11GetMetadataEv
libkiapi.so.9.0.1:_ZNK5kiapi6common8commands9EndCommit12ByteSizeLongEv
libkiapi.so.9.0.1:_ZNK5kiapi6common8commands9EndCommit12GetClassDataEv
libkiapi.so.9.0.1:_ZNK5kiapi6common8commands9EndCommit13IsInitializedEv
libkiapi.so.9.0.1:_ZNK5kiapi6common8commands9EndCommit16AccessCachedSizeEv
libkiapi.so.9.0.1:_ZNK5kiapi6common8commands9EndCommit18_InternalSerializeEPhPN6google8protobuf2io19EpsCopyOutputStreamE
libkiapi.so.9.0.1:_ZNK5kiapi6common8commands9RunAction11GetMetadataEv
libkiapi.so.9.0.1:_ZNK5kiapi6common8commands9RunAction12ByteSizeLongEv
libkiapi.so.9.0.1:_ZNK5kiapi6common8commands9RunAction12GetClassDataEv
libkiapi.so.9.0.1:_ZNK5kiapi6common8commands9RunAction13IsInitializedEv
libkiapi.so.9.0.1:_ZNK5kiapi6common8commands9RunAction16AccessCachedSizeEv
libkiapi.so.9.0.1:_ZNK5kiapi6common8commands9RunAction18_InternalSerializeEPhPN6google8protobuf2io19EpsCopyOutputStreamE
libkiapi.so.9.0.1:_ZNK5kiapi9schematic5types10LocalLabel11GetMetadataEv
libkiapi.so.9.0.1:_ZNK5kiapi9schematic5types10LocalLabel12ByteSizeLongEv
libkiapi.so.9.0.1:_ZNK5kiapi9schematic5types10LocalLabel12GetClassDataEv
libkiapi.so.9.0.1:_ZNK5kiapi9schematic5types10LocalLabel13IsInitializedEv
libkiapi.so.9.0.1:_ZNK5kiapi9schematic5types10LocalLabel16AccessCachedSizeEv
libkiapi.so.9.0.1:_ZNK5kiapi9schematic5types10LocalLabel18_InternalSerializeEPhPN6google8protobuf2io19EpsCopyOutputStreamE
libkiapi.so.9.0.1:_ZNK5kiapi9schematic5types11GlobalLabel11GetMetadataEv
libkiapi.so.9.0.1:_ZNK5kiapi9schematic5types11GlobalLabel12ByteSizeLongEv
libkiapi.so.9.0.1:_ZNK5kiapi9schematic5types11GlobalLabel12GetClassDataEv
libkiapi.so.9.0.1:_ZNK5kiapi9schematic5types11GlobalLabel13IsInitializedEv
libkiapi.so.9.0.1:_ZNK5kiapi9schematic5types11GlobalLabel16AccessCachedSizeEv
libkiapi.so.9.0.1:_ZNK5kiapi9schematic5types11GlobalLabel18_InternalSerializeEPhPN6google8protobuf2io19EpsCopyOutputStreamE
libkiapi.so.9.0.1:_ZNK5kiapi9schematic5types14DirectiveLabel11GetMetadataEv
libkiapi.so.9.0.1:_ZNK5kiapi9schematic5types14DirectiveLabel12ByteSizeLongEv
libkiapi.so.9.0.1:_ZNK5kiapi9schematic5types14DirectiveLabel12GetClassDataEv
libkiapi.so.9.0.1:_ZNK5kiapi9schematic5types14DirectiveLabel13IsInitializedEv
libkiapi.so.9.0.1:_ZNK5kiapi9schematic5types14DirectiveLabel16AccessCachedSizeEv
libkiapi.so.9.0.1:_ZNK5kiapi9schematic5types14DirectiveLabel18_InternalSerializeEPhPN6google8protobuf2io19EpsCopyOutputStreamE
libkiapi.so.9.0.1:_ZNK5kiapi9schematic5types17HierarchicalLabel11GetMetadataEv
libkiapi.so.9.0.1:_ZNK5kiapi9schematic5types17HierarchicalLabel12ByteSizeLongEv
libkiapi.so.9.0.1:_ZNK5kiapi9schematic5types17HierarchicalLabel12GetClassDataEv
libkiapi.so.9.0.1:_ZNK5kiapi9schematic5types17HierarchicalLabel13IsInitializedEv
libkiapi.so.9.0.1:_ZNK5kiapi9schematic5types17HierarchicalLabel16AccessCachedSizeEv
libkiapi.so.9.0.1:_ZNK5kiapi9schematic5types17HierarchicalLabel18_InternalSerializeEPhPN6google8protobuf2io19EpsCopyOutputStreamE
libkiapi.so.9.0.1:_ZNK5kiapi9schematic5types4Line11GetMetadataEv
libkiapi.so.9.0.1:_ZNK5kiapi9schematic5types4Line12ByteSizeLongEv
libkiapi.so.9.0.1:_ZNK5kiapi9schematic5types4Line12GetClassDataEv
libkiapi.so.9.0.1:_ZNK5kiapi9schematic5types4Line13IsInitializedEv
libkiapi.so.9.0.1:_ZNK5kiapi9schematic5types4Line16AccessCachedSizeEv
libkiapi.so.9.0.1:_ZNK5kiapi9schematic5types4Line18_InternalSerializeEPhPN6google8protobuf2io19EpsCopyOutputStreamE
libkiapi.so.9.0.1:_ZNK5kiapi9schematic5types4Text11GetMetadataEv
libkiapi.so.9.0.1:_ZNK5kiapi9schematic5types4Text12ByteSizeLongEv
libkiapi.so.9.0.1:_ZNK5kiapi9schematic5types4Text12GetClassDataEv
libkiapi.so.9.0.1:_ZNK5kiapi9schematic5types4Text13IsInitializedEv
libkiapi.so.9.0.1:_ZNK5kiapi9schematic5types4Text16AccessCachedSizeEv
libkiapi.so.9.0.1:_ZNK5kiapi9schematic5types4Text18_InternalSerializeEPhPN6google8protobuf2io19EpsCopyOutputStreamE
libkicad_3dsg.so.2.0.0:_ZN10IFSG_INDEX10GetIndicesERmRPi
libkicad_3dsg.so.2.0.0:_ZN10IFSG_INDEX10SetIndicesEmPi
libkicad_3dsg.so.2.0.0:_ZN10IFSG_INDEX8AddIndexEi
libkicad_3dsg.so.2.0.0:_ZN10IFSG_INDEXC1Ev
libkicad_3dsg.so.2.0.0:_ZN10IFSG_INDEXC2Ev
libkicad_3dsg.so.2.0.0:_ZN10IFSG_SHAPE6AttachEP6SGNODE
libkicad_3dsg.so.2.0.0:_ZN10IFSG_SHAPE7NewNodeEP6SGNODE
libkicad_3dsg.so.2.0.0:_ZN10IFSG_SHAPE7NewNodeER9IFSG_NODE
libkicad_3dsg.so.2.0.0:_ZN10IFSG_SHAPEC1EP6SGNODE
libkicad_3dsg.so.2.0.0:_ZN10IFSG_SHAPEC1ER9IFSG_NODE
libkicad_3dsg.so.2.0.0:_ZN10IFSG_SHAPEC1Eb
libkicad_3dsg.so.2.0.0:_ZN10IFSG_SHAPEC2EP6SGNODE
libkicad_3dsg.so.2.0.0:_ZN10IFSG_SHAPEC2ER9IFSG_NODE
libkicad_3dsg.so.2.0.0:_ZN10IFSG_SHAPEC2Eb
libkicad_3dsg.so.2.0.0:_ZN11IFSG_COLORS12GetColorListERmRP7SGCOLOR
libkicad_3dsg.so.2.0.0:_ZN11IFSG_COLORS12SetColorListEmPK7SGCOLOR
libkicad_3dsg.so.2.0.0:_ZN11IFSG_COLORS6AttachEP6SGNODE
libkicad_3dsg.so.2.0.0:_ZN11IFSG_COLORS7NewNodeEP6SGNODE
libkicad_3dsg.so.2.0.0:_ZN11IFSG_COLORS7NewNodeER9IFSG_NODE
libkicad_3dsg.so.2.0.0:_ZN11IFSG_COLORS8AddColorERK7SGCOLOR
libkicad_3dsg.so.2.0.0:_ZN11IFSG_COLORS8AddColorEddd
libkicad_3dsg.so.2.0.0:_ZN11IFSG_COLORSC1EP6SGNODE
libkicad_3dsg.so.2.0.0:_ZN11IFSG_COLORSC1ER9IFSG_NODE
libkicad_3dsg.so.2.0.0:_ZN11IFSG_COLORSC1Eb
libkicad_3dsg.so.2.0.0:_ZN11IFSG_COLORSC2EP6SGNODE
libkicad_3dsg.so.2.0.0:_ZN11IFSG_COLORSC2ER9IFSG_NODE
libkicad_3dsg.so.2.0.0:_ZN11IFSG_COLORSC2Eb
libkicad_3dsg.so.2.0.0:_ZN11IFSG_COORDS13GetCoordsListERmRP7SGPOINT
libkicad_3dsg.so.2.0.0:_ZN11IFSG_COORDS13SetCoordsListEmPK7SGPOINT
libkicad_3dsg.so.2.0.0:_ZN11IFSG_COORDS6AttachEP6SGNODE
libkicad_3dsg.so.2.0.0:_ZN11IFSG_COORDS7NewNodeEP6SGNODE
libkicad_3dsg.so.2.0.0:_ZN11IFSG_COORDS7NewNodeER9IFSG_NODE
libkicad_3dsg.so.2.0.0:_ZN11IFSG_COORDS8AddCoordERK7SGPOINT
libkicad_3dsg.so.2.0.0:_ZN11IFSG_COORDS8AddCoordEddd
libkicad_3dsg.so.2.0.0:_ZN11IFSG_COORDSC1EP6SGNODE
libkicad_3dsg.so.2.0.0:_ZN11IFSG_COORDSC1ER9IFSG_NODE
libkicad_3dsg.so.2.0.0:_ZN11IFSG_COORDSC1Eb
libkicad_3dsg.so.2.0.0:_ZN11IFSG_COORDSC2EP6SGNODE
libkicad_3dsg.so.2.0.0:_ZN11IFSG_COORDSC2ER9IFSG_NODE
libkicad_3dsg.so.2.0.0:_ZN11IFSG_COORDSC2Eb
libkicad_3dsg.so.2.0.0:_ZN12IFSG_FACESET11CalcNormalsEPP6SGNODE
libkicad_3dsg.so.2.0.0:_ZN12IFSG_FACESET6AttachEP6SGNODE
libkicad_3dsg.so.2.0.0:_ZN12IFSG_FACESET7NewNodeEP6SGNODE
libkicad_3dsg.so.2.0.0:_ZN12IFSG_FACESET7NewNodeER9IFSG_NODE
libkicad_3dsg.so.2.0.0:_ZN12IFSG_FACESETC1EP6SGNODE
libkicad_3dsg.so.2.0.0:_ZN12IFSG_FACESETC1ER9IFSG_NODE
libkicad_3dsg.so.2.0.0:_ZN12IFSG_FACESETC1Eb
libkicad_3dsg.so.2.0.0:_ZN12IFSG_FACESETC2EP6SGNODE
libkicad_3dsg.so.2.0.0:_ZN12IFSG_FACESETC2ER9IFSG_NODE
libkicad_3dsg.so.2.0.0:_ZN12IFSG_FACESETC2Eb
libkicad_3dsg.so.2.0.0:_ZN12IFSG_NORMALS13GetNormalListERmRP8SGVECTOR
libkicad_3dsg.so.2.0.0:_ZN12IFSG_NORMALS13SetNormalListEmPK8SGVECTOR
libkicad_3dsg.so.2.0.0:_ZN12IFSG_NORMALS6AttachEP6SGNODE
libkicad_3dsg.so.2.0.0:_ZN12IFSG_NORMALS7NewNodeEP6SGNODE
libkicad_3dsg.so.2.0.0:_ZN12IFSG_NORMALS7NewNodeER9IFSG_NODE
libkicad_3dsg.so.2.0.0:_ZN12IFSG_NORMALS9AddNormalERK8SGVECTOR
libkicad_3dsg.so.2.0.0:_ZN12IFSG_NORMALS9AddNormalEddd
libkicad_3dsg.so.2.0.0:_ZN12IFSG_NORMALSC1EP6SGNODE
libkicad_3dsg.so.2.0.0:_ZN12IFSG_NORMALSC1ER9IFSG_NODE
libkicad_3dsg.so.2.0.0:_ZN12IFSG_NORMALSC1Eb
libkicad_3dsg.so.2.0.0:_ZN12IFSG_NORMALSC2EP6SGNODE
libkicad_3dsg.so.2.0.0:_ZN12IFSG_NORMALSC2ER9IFSG_NODE
libkicad_3dsg.so.2.0.0:_ZN12IFSG_NORMALSC2Eb
libkicad_3dsg.so.2.0.0:_ZN14IFSG_TRANSFORM11SetRotationERK8SGVECTORd
libkicad_3dsg.so.2.0.0:_ZN14IFSG_TRANSFORM14SetTranslationERK7SGPOINT
libkicad_3dsg.so.2.0.0:_ZN14IFSG_TRANSFORM19SetScaleOrientationERK8SGVECTORd
libkicad_3dsg.so.2.0.0:_ZN14IFSG_TRANSFORM6AttachEP6SGNODE
libkicad_3dsg.so.2.0.0:_ZN14IFSG_TRANSFORM7NewNodeEP6SGNODE
libkicad_3dsg.so.2.0.0:_ZN14IFSG_TRANSFORM7NewNodeER9IFSG_NODE
libkicad_3dsg.so.2.0.0:_ZN14IFSG_TRANSFORM8SetScaleERK7SGPOINT
libkicad_3dsg.so.2.0.0:_ZN14IFSG_TRANSFORM8SetScaleEd
libkicad_3dsg.so.2.0.0:_ZN14IFSG_TRANSFORM9SetCenterERK7SGPOINT
libkicad_3dsg.so.2.0.0:_ZN14IFSG_TRANSFORMC1EP6SGNODE
libkicad_3dsg.so.2.0.0:_ZN14IFSG_TRANSFORMC1Eb
libkicad_3dsg.so.2.0.0:_ZN14IFSG_TRANSFORMC2EP6SGNODE
libkicad_3dsg.so.2.0.0:_ZN14IFSG_TRANSFORMC2Eb
libkicad_3dsg.so.2.0.0:_ZN15IFSG_APPEARANCE10SetAmbientEPK7SGCOLOR
libkicad_3dsg.so.2.0.0:_ZN15IFSG_APPEARANCE10SetAmbientERK7SGCOLOR
libkicad_3dsg.so.2.0.0:_ZN15IFSG_APPEARANCE10SetAmbientEfff
libkicad_3dsg.so.2.0.0:_ZN15IFSG_APPEARANCE10SetDiffuseEPK7SGCOLOR
libkicad_3dsg.so.2.0.0:_ZN15IFSG_APPEARANCE10SetDiffuseERK7SGCOLOR
libkicad_3dsg.so.2.0.0:_ZN15IFSG_APPEARANCE10SetDiffuseEfff
libkicad_3dsg.so.2.0.0:_ZN15IFSG_APPEARANCE11SetEmissiveEPK7SGCOLOR
libkicad_3dsg.so.2.0.0:_ZN15IFSG_APPEARANCE11SetEmissiveERK7SGCOLOR
libkicad_3dsg.so.2.0.0:_ZN15IFSG_APPEARANCE11SetEmissiveEfff
libkicad_3dsg.so.2.0.0:_ZN15IFSG_APPEARANCE11SetSpecularEPK7SGCOLOR
libkicad_3dsg.so.2.0.0:_ZN15IFSG_APPEARANCE11SetSpecularERK7SGCOLOR
libkicad_3dsg.so.2.0.0:_ZN15IFSG_APPEARANCE11SetSpecularEfff
libkicad_3dsg.so.2.0.0:_ZN15IFSG_APPEARANCE12SetShininessEf
libkicad_3dsg.so.2.0.0:_ZN15IFSG_APPEARANCE15SetTransparencyEf
libkicad_3dsg.so.2.0.0:_ZN15IFSG_APPEARANCE6AttachEP6SGNODE
libkicad_3dsg.so.2.0.0:_ZN15IFSG_APPEARANCE7NewNodeEP6SGNODE
libkicad_3dsg.so.2.0.0:_ZN15IFSG_APPEARANCE7NewNodeER9IFSG_NODE
libkicad_3dsg.so.2.0.0:_ZN15IFSG_APPEARANCEC1EP6SGNODE
libkicad_3dsg.so.2.0.0:_ZN15IFSG_APPEARANCEC1ER9IFSG_NODE
libkicad_3dsg.so.2.0.0:_ZN15IFSG_APPEARANCEC1Eb
libkicad_3dsg.so.2.0.0:_ZN15IFSG_APPEARANCEC2EP6SGNODE
libkicad_3dsg.so.2.0.0:_ZN15IFSG_APPEARANCEC2ER9IFSG_NODE
libkicad_3dsg.so.2.0.0:_ZN15IFSG_APPEARANCEC2Eb
libkicad_3dsg.so.2.0.0:_ZN15IFSG_COORDINDEX6AttachEP6SGNODE
libkicad_3dsg.so.2.0.0:_ZN15IFSG_COORDINDEX7NewNodeEP6SGNODE
libkicad_3dsg.so.2.0.0:_ZN15IFSG_COORDINDEX7NewNodeER9IFSG_NODE
libkicad_3dsg.so.2.0.0:_ZN15IFSG_COORDINDEXC1EP6SGNODE
libkicad_3dsg.so.2.0.0:_ZN15IFSG_COORDINDEXC1ER9IFSG_NODE
libkicad_3dsg.so.2.0.0:_ZN15IFSG_COORDINDEXC1Eb
libkicad_3dsg.so.2.0.0:_ZN15IFSG_COORDINDEXC2EP6SGNODE
libkicad_3dsg.so.2.0.0:_ZN15IFSG_COORDINDEXC2ER9IFSG_NODE
libkicad_3dsg.so.2.0.0:_ZN15IFSG_COORDINDEXC2Eb
libkicad_3dsg.so.2.0.0:_ZN3S3D10Free3DMeshER5SMESH
libkicad_3dsg.so.2.0.0:_ZN3S3D10Init3DMeshER5SMESH
libkicad_3dsg.so.2.0.0:_ZN3S3D10New3DModelEv
libkicad_3dsg.so.2.0.0:_ZN3S3D10WriteCacheEPKcbP6SGNODES1_
libkicad_3dsg.so.2.0.0:_ZN3S3D11CalcTriNormERK7SGPOINTS2_S2_
libkicad_3dsg.so.2.0.0:_ZN3S3D11DestroyNodeEP6SGNODE
libkicad_3dsg.so.2.0.0:_ZN3S3D11RenameNodesEP6SGNODE
libkicad_3dsg.so.2.0.0:_ZN3S3D12AddSGNodeRefEP6SGNODES1_
libkicad_3dsg.so.2.0.0:_ZN3S3D13GetLibVersionEPhS0_S0_S0_
libkicad_3dsg.so.2.0.0:_ZN3S3D13GetSGNodeTypeEP6SGNODE
libkicad_3dsg.so.2.0.0:_ZN3S3D14AddSGNodeChildEP6SGNODES1_
libkicad_3dsg.so.2.0.0:_ZN3S3D14Destroy3DModelEPP8S3DMODEL
libkicad_3dsg.so.2.0.0:_ZN3S3D14Init3DMaterialER9SMATERIAL
libkicad_3dsg.so.2.0.0:_ZN3S3D14ResetNodeIndexEP6SGNODE
libkicad_3dsg.so.2.0.0:_ZN3S3D15GetSGNodeParentEP6SGNODE
libkicad_3dsg.so.2.0.0:_ZN3S3D22AssociateSGNodeWrapperEP6SGNODEPS1_
libkicad_3dsg.so.2.0.0:_ZN3S3D8GetModelEP10SCENEGRAPH
libkicad_3dsg.so.2.0.0:_ZN3S3D9ReadCacheEPKcPvPFbS1_S2_E
libkicad_3dsg.so.2.0.0:_ZN3S3D9WriteVRMLEPKcbP6SGNODEbb
libkicad_3dsg.so.2.0.0:_ZN7SGCOLOR8SetColorEPKS_
libkicad_3dsg.so.2.0.0:_ZN7SGCOLOR8SetColorERKS_
libkicad_3dsg.so.2.0.0:_ZN7SGCOLOR8SetColorEfff
libkicad_3dsg.so.2.0.0:_ZN7SGCOLORC1Efff
libkicad_3dsg.so.2.0.0:_ZN7SGCOLORC1Ev
libkicad_3dsg.so.2.0.0:_ZN7SGCOLORC2Efff
libkicad_3dsg.so.2.0.0:_ZN7SGCOLORC2Ev
libkicad_3dsg.so.2.0.0:_ZN7SGPOINT8GetPointEPKS_
libkicad_3dsg.so.2.0.0:_ZN7SGPOINT8GetPointERKS_
libkicad_3dsg.so.2.0.0:_ZN7SGPOINT8GetPointERKdS1_S1_
libkicad_3dsg.so.2.0.0:_ZN7SGPOINT8SetPointERKS_
libkicad_3dsg.so.2.0.0:_ZN7SGPOINT8SetPointEddd
libkicad_3dsg.so.2.0.0:_ZN7SGPOINTC1Eddd
libkicad_3dsg.so.2.0.0:_ZN7SGPOINTC1Ev
libkicad_3dsg.so.2.0.0:_ZN7SGPOINTC2Eddd
libkicad_3dsg.so.2.0.0:_ZN7SGPOINTC2Ev
libkicad_3dsg.so.2.0.0:_ZN8SGVECTOR9SetVectorERKS_
libkicad_3dsg.so.2.0.0:_ZN8SGVECTOR9SetVectorEddd
libkicad_3dsg.so.2.0.0:_ZN8SGVECTOR9normalizeEv
libkicad_3dsg.so.2.0.0:_ZN8SGVECTORC1Eddd
libkicad_3dsg.so.2.0.0:_ZN8SGVECTORC1Ev
libkicad_3dsg.so.2.0.0:_ZN8SGVECTORC2Eddd
libkicad_3dsg.so.2.0.0:_ZN8SGVECTORC2Ev
libkicad_3dsg.so.2.0.0:_ZN8SGVECTORaSERKS_
libkicad_3dsg.so.2.0.0:_ZN9IFSG_NODE10AddRefNodeEP6SGNODE
libkicad_3dsg.so.2.0.0:_ZN9IFSG_NODE10AddRefNodeERS_
libkicad_3dsg.so.2.0.0:_ZN9IFSG_NODE12AddChildNodeEP6SGNODE
libkicad_3dsg.so.2.0.0:_ZN9IFSG_NODE12AddChildNodeERS_
libkicad_3dsg.so.2.0.0:_ZN9IFSG_NODE7DestroyEv
libkicad_3dsg.so.2.0.0:_ZN9IFSG_NODE7GetNameEv
libkicad_3dsg.so.2.0.0:_ZN9IFSG_NODE7SetNameEPKc
libkicad_3dsg.so.2.0.0:_ZN9IFSG_NODE8FindNodeEPKc
libkicad_3dsg.so.2.0.0:_ZN9IFSG_NODE9GetRawPtrEv
libkicad_3dsg.so.2.0.0:_ZN9IFSG_NODE9SetParentEP6SGNODE
libkicad_3dsg.so.2.0.0:_ZN9IFSG_NODEC1Ev
libkicad_3dsg.so.2.0.0:_ZN9IFSG_NODEC2Ev
libkicad_3dsg.so.2.0.0:_ZN9IFSG_NODED0Ev
libkicad_3dsg.so.2.0.0:_ZN9IFSG_NODED1Ev
libkicad_3dsg.so.2.0.0:_ZN9IFSG_NODED2Ev
libkicad_3dsg.so.2.0.0:_ZNK7SGCOLOR10checkRangeEfff
libkicad_3dsg.so.2.0.0:_ZNK7SGCOLOR8GetColorEPS_
libkicad_3dsg.so.2.0.0:_ZNK7SGCOLOR8GetColorERS_
libkicad_3dsg.so.2.0.0:_ZNK7SGCOLOR8GetColorERfS0_S0_
libkicad_3dsg.so.2.0.0:_ZNK8SGVECTOR9GetVectorERdS0_S0_
libkicad_3dsg.so.2.0.0:_ZNK9IFSG_NODE11GetNodeTypeEv
libkicad_3dsg.so.2.0.0:_ZNK9IFSG_NODE15GetNodeTypeNameEN3S3D7SGTYPESE
libkicad_3dsg.so.2.0.0:_ZNK9IFSG_NODE9GetParentEv
libkicommon.so.9.0.1:_Z10EscapeHTMLRK8wxString
libkicommon.so.9.0.1:_Z10Fontconfigv
libkicommon.so.9.0.1:_Z10KiCopyFileRK8wxStringS1_RS_
libkicommon.so.9.0.1:_Z10ToLAYER_IDi
libkicommon.so.9.0.1:_Z11EscapedUTF8B5cxx11RK8wxString
libkicommon.so.9.0.1:_Z11ExecuteFileRK8wxStringS1_P9wxProcessb
libkicommon.so.9.0.1:_Z11GetTextVarsRK8wxString
libkicommon.so.9.0.1:_Z11KiBitmapNew7BITMAPS
libkicommon.so.9.0.1:_Z11KiIconScaleP8wxWindow
libkicommon.so.9.0.1:_Z11LinkifyHTML8wxString
libkicommon.so.9.0.1:_Z11QuoteStringR8wxString
libkicommon.so.9.0.1:_Z11SplitStringRK8wxStringPS_S2_S2_
libkicommon.so.9.0.1:_Z12DisplayErrorP8wxWindowRK8wxStringi
libkicommon.so.9.0.1:_Z12EscapeStringRK8wxString14ESCAPE_CONTEXT
libkicommon.so.9.0.1:_Z12GetBuildDatev
libkicommon.so.9.0.1:_Z12PyStringToWxP7_object
libkicommon.so.9.0.1:_Z12SafeReadFileRK8wxStringS1_
libkicommon.so.9.0.1:_Z12TimestampDirRK8wxStringS1_
libkicommon.so.9.0.1:_Z12UIDouble2StrB5cxx11d
libkicommon.so.9.0.1:_Z12UnescapeHTMLRK8wxString
libkicommon.so.9.0.1:_Z13CopyDirectoryRK8wxStringS1_RS_
libkicommon.so.9.0.1:_Z13FindKicadFileRK8wxString
libkicommon.so.9.0.1:_Z13GetCommitHashv
libkicommon.so.9.0.1:_Z13QuoteFullPathR10wxFileName12wxPathFormat
libkicommon.so.9.0.1:_Z13SetOpenGLInfoPKcS0_S0_
libkicommon.so.9.0.1:_Z13wxStringSplitRK8wxStringR13wxArrayStringw
libkicommon.so.9.0.1:_Z14ExpandTextVarsRK8wxStringPK7PROJECTi
libkicommon.so.9.0.1:_Z14ExpandTextVarsRK8wxStringPKSt8functionIFbPS_EEi
libkicommon.so.9.0.1:_Z14GetBaseVersionv
libkicommon.so.9.0.1:_Z14GetBitmapStorev
libkicommon.so.9.0.1:_Z14GetTrailingIntRK8wxString
libkicommon.so.9.0.1:_Z14KiBitmapBundle7BITMAPSi
libkicommon.so.9.0.1:_Z14KiScaledBitmap7BITMAPSP8wxWindowib
libkicommon.so.9.0.1:_Z14KiScaledBitmapRK8wxBitmapP8wxWindow
libkicommon.so.9.0.1:_Z14LaunchExternalRK8wxString
libkicommon.so.9.0.1:_Z14RemoveHTMLTagsRK8wxString
libkicommon.so.9.0.1:_Z14RmDirRecursiveRK8wxStringPS_
libkicommon.so.9.0.1:_Z14UnescapeStringRK8wxString
libkicommon.so.9.0.1:_Z15AskOverrideLockP8wxWindowRK8wxString
libkicommon.so.9.0.1:_Z15BuildBitmapInfoRSt13unordered_mapI7BITMAPSSt6vectorI11BITMAP_INFOSaIS2_EESt4hashIS0_ESt8equal_toIS0_ESaISt4pairIKS0_S4_EEE
libkicommon.so.9.0.1:_Z15GetBuildVersionv
libkicommon.so.9.0.1:_Z15IncrementStringR8wxStringi
libkicommon.so.9.0.1:_Z16FormatDouble2StrB5cxx11d
libkicommon.so.9.0.1:_Z16IsNightlyVersionv
libkicommon.so.9.0.1:_Z16NoPrintableCharsRK8wxString
libkicommon.so.9.0.1:_Z16NormalizeFileUriRK8wxString
libkicommon.so.9.0.1:_Z16OKOrCancelDialogP8wxWindowRK8wxStringS3_S3_S3_S3_Pb
libkicommon.so.9.0.1:_Z16SeverityToStringRK8SEVERITY
libkicommon.so.9.0.1:_Z16SystemDirsAppendP12SEARCH_STACK
libkicommon.so.9.0.1:_Z17AddDirectoryToZipR17wxZipOutputStreamRK8wxStringRS1_S3_
libkicommon.so.9.0.1:_Z17GlobalPathsAppendP12SEARCH_STACKN5KIWAY6FACE_TE
libkicommon.so.9.0.1:_Z17PyArrayStringToWxP7_object
libkicommon.so.9.0.1:_Z17ReadDelimitedTextP8wxStringPKc
libkicommon.so.9.0.1:_Z17ReadDelimitedTextPcPKci
libkicommon.so.9.0.1:_Z17WildCompareStringRK8wxStringS1_b
libkicommon.so.9.0.1:_Z17formatWildcardExtRK8wxString
libkicommon.so.9.0.1:_Z18DisplayInfoMessageP8wxWindowRK8wxStringS3_
libkicommon.so.9.0.1:_Z18GetKiCadThreadPoolv
libkicommon.so.9.0.1:_Z18GetSemanticVersionv
libkicommon.so.9.0.1:_Z18GetVersionInfoDataRK8wxStringbb
libkicommon.so.9.0.1:_Z18PrintableCharCountRK8wxString
libkicommon.so.9.0.1:_Z18SelectSingleOptionP8wxWindowRK8wxStringS3_RK13wxArrayString
libkicommon.so.9.0.1:_Z18SeverityFromStringRK8wxString
libkicommon.so.9.0.1:_Z18StripTrailingZerosR8wxStringj
libkicommon.so.9.0.1:_Z18UpdatePythonEnvVarRK8wxStringS1_
libkicommon.so.9.0.1:_Z18ValueStringCompareRK8wxStringS1_
libkicommon.so.9.0.1:_Z18wxConfigLoadParamsP12wxConfigBaseRKSt6vectorIP9PARAM_CFGSaIS3_EERK8wxString
libkicommon.so.9.0.1:_Z18wxConfigLoadSetupsP12wxConfigBaseRKSt6vectorIP9PARAM_CFGSaIS3_EE
libkicommon.so.9.0.1:_Z18wxConfigSaveParamsP12wxConfigBaseRKSt6vectorIP9PARAM_CFGSaIS3_EERK8wxString
libkicommon.so.9.0.1:_Z18wxConfigSaveSetupsP12wxConfigBaseRKSt6vectorIP9PARAM_CFGSaIS3_EE
libkicommon.so.9.0.1:_Z19AlphabeticFromIndexmRK8wxStringb
libkicommon.so.9.0.1:_Z19ConfirmRevertDialogP8wxWindowRK8wxString
libkicommon.so.9.0.1:_Z19DisplayErrorMessageP8wxWindowRK8wxStringS3_
libkicommon.so.9.0.1:_Z19EnsureFileExtensionRK8wxStringS1_
libkicommon.so.9.0.1:_Z19IndexFromAlphabeticRK8wxStringS1_
libkicommon.so.9.0.1:_Z19IsFullFileNameValidRK8wxString
libkicommon.so.9.0.1:_Z19ResolveUriByEnvVarsRK8wxStringPK7PROJECT
libkicommon.so.9.0.1:_Z20CopyFilesOrDirectoryRK8wxStringS1_RS_RiRKSt6vectorIS_SaIS_EE
libkicommon.so.9.0.1:_Z20GetMajorMinorVersionv
libkicommon.so.9.0.1:_Z20HandleUnsavedChangesP8wxWindowRK8wxStringRKSt8functionIFbvEE
libkicommon.so.9.0.1:_Z20UnsavedChangesDialogP8wxWindowRK8wxString
libkicommon.so.9.0.1:_Z20UnsavedChangesDialogP8wxWindowRK8wxStringPb
libkicommon.so.9.0.1:_Z21ConfigBaseWriteDoubleP12wxConfigBaseRK8wxStringd
libkicommon.so.9.0.1:_Z21compareFileExtensionsRKNSt7__cxx1112basic_stringIcSt11char_traitsIcESaIcEEERKSt6vectorIS4_SaIS4_EEb
libkicommon.so.9.0.1:_Z22AddFileExtListToFilterRKSt6vectorINSt7__cxx1112basic_stringIcSt11char_traitsIcESaIcEEESaIS5_EE
libkicommon.so.9.0.1:_Z22BoardLayerFromLegacyIdi
libkicommon.so.9.0.1:_Z22ClearScaledBitmapCachev
libkicommon.so.9.0.1:_Z22KiDisabledBitmapBundle7BITMAPS
libkicommon.so.9.0.1:_Z22SearchHelpFileFullPathRK8wxString
libkicommon.so.9.0.1:_Z23GetMajorMinorPatchTuplev
libkicommon.so.9.0.1:_Z24PyErrStringWithTracebackv
libkicommon.so.9.0.1:_Z25EnsureFileDirectoryExistsP10wxFileNameRK8wxStringP8REPORTER
libkicommon.so.9.0.1:_Z25ExpandEnvVarSubstitutionsRK8wxStringPK7PROJECT
libkicommon.so.9.0.1:_Z25GetISO8601CurrentDateTimev
libkicommon.so.9.0.1:_Z25GetIllegalFileNameWxCharsv
libkicommon.so.9.0.1:_Z25GetMajorMinorPatchVersionv
libkicommon.so.9.0.1:_Z25GetPlatformGetBitnessNamev
libkicommon.so.9.0.1:_Z27ConvertSmartQuotesAndDashesP8wxString
libkicommon.so.9.0.1:_Z27ConvertToNewOverbarNotationRK8wxString
libkicommon.so.9.0.1:_Z27ReplaceIllegalFileNameCharsPNSt7__cxx1112basic_stringIcSt11char_traitsIcESaIcEEEi
libkicommon.so.9.0.1:_Z27ReplaceIllegalFileNameCharsR8wxStringi
libkicommon.so.9.0.1:_Z36WarnUserIfOperatingSystemUnsupportedv
libkicommon.so.9.0.1:_Z3Pgmv
libkicommon.so.9.0.1:_Z4IsOKP8wxWindowRK8wxString
libkicommon.so.9.0.1:_Z4dumpRK10wxKeyEvent
libkicommon.so.9.0.1:_Z4dumpRK13wxArrayString
libkicommon.so.9.0.1:_Z5IsURL8wxString
libkicommon.so.9.0.1:_Z6SetPgmP8PGM_BASE
libkicommon.so.9.0.1:_Z7GetLineP8_IO_FILEPcPii
libkicommon.so.9.0.1:_Z7NilUuidv
libkicommon.so.9.0.1:_Z7OpenPDFRK8wxString
libkicommon.so.9.0.1:_Z7to_jsonRN8nlohmann16json_abi_v3_11_310basic_jsonISt3mapSt6vectorNSt7__cxx1112basic_stringIcSt11char_traitsIcESaIcEEEblmdSaNS0_14adl_serializerES3_IhSaIhEEvEERK10BOM_PRESET
libkicommon.so.9.0.1:_Z7to_jsonRN8nlohmann16json_abi_v3_11_310basic_jsonISt3mapSt6vectorNSt7__cxx1112basic_stringIcSt11char_traitsIcESaIcEEEblmdSaNS0_14adl_serializerES3_IhSaIhEEvEERK10JOBSET_JOB
libkicommon.so.9.0.1:_Z7to_jsonRN8nlohmann16json_abi_v3_11_310basic_jsonISt3mapSt6vectorNSt7__cxx1112basic_stringIcSt11char_traitsIcESaIcEEEblmdSaNS0_14adl_serializerES3_IhSaIhEEvEERK13wxAuiPaneInfo
libkicommon.so.9.0.1:_Z7to_jsonRN8nlohmann16json_abi_v3_11_310basic_jsonISt3mapSt6vectorNSt7__cxx1112basic_stringIcSt11char_traitsIcESaIcEEEblmdSaNS0_14adl_serializerES3_IhSaIhEEvEERK14BOM_FMT_PRESET
libkicommon.so.9.0.1:_Z7to_jsonRN8nlohmann16json_abi_v3_11_310basic_jsonISt3mapSt6vectorNSt7__cxx1112basic_stringIcSt11char_traitsIcESaIcEEEblmdSaNS0_14adl_serializerES3_IhSaIhEEvEERK18JOBSET_DESTINATION
libkicommon.so.9.0.1:_Z7to_jsonRN8nlohmann16json_abi_v3_11_310basic_jsonISt3mapSt6vectorNSt7__cxx1112basic_stringIcSt11char_traitsIcESaIcEEEblmdSaNS0_14adl_serializerES3_IhSaIhEEvEERK3JOB
libkicommon.so.9.0.1:_Z7to_jsonRN8nlohmann16json_abi_v3_11_310basic_jsonISt3mapSt6vectorNSt7__cxx1112basic_stringIcSt11char_traitsIcESaIcEEEblmdSaNS0_14adl_serializerES3_IhSaIhEEvEERK4GRID
libkicommon.so.9.0.1:_Z7to_jsonRN8nlohmann16json_abi_v3_11_310basic_jsonISt3mapSt6vectorNSt7__cxx1112basic_stringIcSt11char_traitsIcESaIcEEEblmdSaNS0_14adl_serializerES3_IhSaIhEEvEERK4KIID
libkicommon.so.9.0.1:_Z7to_jsonRN8nlohmann16json_abi_v3_11_310basic_jsonISt3mapSt6vectorNSt7__cxx1112basic_stringIcSt11char_traitsIcESaIcEEEblmdSaNS0_14adl_serializerES3_IhSaIhEEvEERK6wxRect
libkicommon.so.9.0.1:_Z7to_jsonRN8nlohmann16json_abi_v3_11_310basic_jsonISt3mapSt6vectorNSt7__cxx1112basic_stringIcSt11char_traitsIcESaIcEEEblmdSaNS0_14adl_serializerES3_IhSaIhEEvEERK6wxSize
libkicommon.so.9.0.1:_Z7to_jsonRN8nlohmann16json_abi_v3_11_310basic_jsonISt3mapSt6vectorNSt7__cxx1112basic_stringIcSt11char_traitsIcESaIcEEEblmdSaNS0_14adl_serializerES3_IhSaIhEEvEERK7wxPoint
libkicommon.so.9.0.1:_Z7to_jsonRN8nlohmann16json_abi_v3_11_310basic_jsonISt3mapSt6vectorNSt7__cxx1112basic_stringIcSt11char_traitsIcESaIcEEEblmdSaNS0_14adl_serializerES3_IhSaIhEEvEERK8wxString
libkicommon.so.9.0.1:_Z7to_jsonRN8nlohmann16json_abi_v3_11_310basic_jsonISt3mapSt6vectorNSt7__cxx1112basic_stringIcSt11char_traitsIcESaIcEEEblmdSaNS0_14adl_serializerES3_IhSaIhEEvEERK9BOM_FIELD
libkicommon.so.9.0.1:_Z8KiBitmap7BITMAPSi
libkicommon.so.9.0.1:_Z8StrPurgePc
libkicommon.so.9.0.1:_Z9FlipLayer12PCB_LAYER_IDi
libkicommon.so.9.0.1:_Z9From_UTF8PKc
libkicommon.so.9.0.1:_Z9From_UTF8RKNSt7__cxx1112basic_stringIcSt11char_traitsIcESaIcEEE
libkicommon.so.9.0.1:_Z9IsTextVarRK8wxString
libkicommon.so.9.0.1:_Z9LayerNamei
libkicommon.so.9.0.1:_Z9PgmOrNullv
libkicommon.so.9.0.1:_Z9StrNumCmpRK8wxStringS1_b
libkicommon.so.9.0.1:_Z9StrPrintfB5cxx11PKcz
libkicommon.so.9.0.1:_Z9StrPrintfPNSt7__cxx1112basic_stringIcSt11char_traitsIcESaIcEEEPKcz
libkicommon.so.9.0.1:_Z9TitleCapsRK8wxString
libkicommon.so.9.0.1:_Z9colorRefsv
libkicommon.so.9.0.1:_Z9from_jsonRKN8nlohmann16json_abi_v3_11_310basic_jsonISt3mapSt6vectorNSt7__cxx1112basic_stringIcSt11char_traitsIcESaIcEEEblmdSaNS0_14adl_serializerES3_IhSaIhEEvEER10BOM_PRESET
libkicommon.so.9.0.1:_Z9from_jsonRKN8nlohmann16json_abi_v3_11_310basic_jsonISt3mapSt6vectorNSt7__cxx1112basic_stringIcSt11char_traitsIcESaIcEEEblmdSaNS0_14adl_serializerES3_IhSaIhEEvEER10JOBSET_JOB
libkicommon.so.9.0.1:_Z9from_jsonRKN8nlohmann16json_abi_v3_11_310basic_jsonISt3mapSt6vectorNSt7__cxx1112basic_stringIcSt11char_traitsIcESaIcEEEblmdSaNS0_14adl_serializerES3_IhSaIhEEvEER13wxAuiPaneInfo
libkicommon.so.9.0.1:_Z9from_jsonRKN8nlohmann16json_abi_v3_11_310basic_jsonISt3mapSt6vectorNSt7__cxx1112basic_stringIcSt11char_traitsIcESaIcEEEblmdSaNS0_14adl_serializerES3_IhSaIhEEvEER14BOM_FMT_PRESET
libkicommon.so.9.0.1:_Z9from_jsonRKN8nlohmann16json_abi_v3_11_310basic_jsonISt3mapSt6vectorNSt7__cxx1112basic_stringIcSt11char_traitsIcESaIcEEEblmdSaNS0_14adl_serializerES3_IhSaIhEEvEER18JOBSET_DESTINATION
libkicommon.so.9.0.1:_Z9from_jsonRKN8nlohmann16json_abi_v3_11_310basic_jsonISt3mapSt6vectorNSt7__cxx1112basic_stringIcSt11char_traitsIcESaIcEEEblmdSaNS0_14adl_serializerES3_IhSaIhEEvEER3JOB
libkicommon.so.9.0.1:_Z9from_jsonRKN8nlohmann16json_abi_v3_11_310basic_jsonISt3mapSt6vectorNSt7__cxx1112basic_stringIcSt11char_traitsIcESaIcEEEblmdSaNS0_14adl_serializerES3_IhSaIhEEvEER4GRID
libkicommon.so.9.0.1:_Z9from_jsonRKN8nlohmann16json_abi_v3_11_310basic_jsonISt3mapSt6vectorNSt7__cxx1112basic_stringIcSt11char_traitsIcESaIcEEEblmdSaNS0_14adl_serializerES3_IhSaIhEEvEER4KIID
libkicommon.so.9.0.1:_Z9from_jsonRKN8nlohmann16json_abi_v3_11_310basic_jsonISt3mapSt6vectorNSt7__cxx1112basic_stringIcSt11char_traitsIcESaIcEEEblmdSaNS0_14adl_serializerES3_IhSaIhEEvEER6wxRect
libkicommon.so.9.0.1:_Z9from_jsonRKN8nlohmann16json_abi_v3_11_310basic_jsonISt3mapSt6vectorNSt7__cxx1112basic_stringIcSt11char_traitsIcESaIcEEEblmdSaNS0_14adl_serializerES3_IhSaIhEEvEER6wxSize
libkicommon.so.9.0.1:_Z9from_jsonRKN8nlohmann16json_abi_v3_11_310basic_jsonISt3mapSt6vectorNSt7__cxx1112basic_stringIcSt11char_traitsIcESaIcEEEblmdSaNS0_14adl_serializerES3_IhSaIhEEvEER7wxPoint
libkicommon.so.9.0.1:_Z9from_jsonRKN8nlohmann16json_abi_v3_11_310basic_jsonISt3mapSt6vectorNSt7__cxx1112basic_stringIcSt11char_traitsIcESaIcEEEblmdSaNS0_14adl_serializerES3_IhSaIhEEvEER8wxString
libkicommon.so.9.0.1:_Z9from_jsonRKN8nlohmann16json_abi_v3_11_310basic_jsonISt3mapSt6vectorNSt7__cxx1112basic_stringIcSt11char_traitsIcESaIcEEEblmdSaNS0_14adl_serializerES3_IhSaIhEEvEER9BOM_FIELD
libkicommon.so.9.0.1:_Z9new_cloneRK13LIB_TABLE_ROW
libkicommon.so.9.0.1:_ZN10API_PLUGIN17IsValidIdentifierERK8wxString
libkicommon.so.9.0.1:_ZN10API_PLUGIN20createActionFromJsonERKN8nlohmann16json_abi_v3_11_310basic_jsonISt3mapSt6vectorNSt7__cxx1112basic_stringIcSt11char_traitsIcESaIcEEEblmdSaNS1_14adl_serializerES4_IhSaIhEEvEE
libkicommon.so.9.0.1:_ZN10API_PLUGINC1ERK10wxFileNameRK21JSON_SCHEMA_VALIDATOR
libkicommon.so.9.0.1:_ZN10API_PLUGINC2ERK10wxFileNameRK21JSON_SCHEMA_VALIDATOR
libkicommon.so.9.0.1:_ZN10API_PLUGIND1Ev
libkicommon.so.9.0.1:_ZN10API_PLUGIND2Ev
libkicommon.so.9.0.1:_ZN10ARRAY_AXIS11SetAxisTypeENS_14NUMBERING_TYPEE
libkicommon.so.9.0.1:_ZN10ARRAY_AXIS7SetStepEi
libkicommon.so.9.0.1:_ZN10ARRAY_AXIS9SetOffsetERK8wxString
libkicommon.so.9.0.1:_ZN10ARRAY_AXIS9SetOffsetEi
libkicommon.so.9.0.1:_ZN10ARRAY_AXISC1Ev
libkicommon.so.9.0.1:_ZN10ARRAY_AXISC2Ev
libkicommon.so.9.0.1:_ZN10BOM_PRESET10AttributesEv
libkicommon.so.9.0.1:_ZN10BOM_PRESET14BuiltInPresetsEv
libkicommon.so.9.0.1:_ZN10BOM_PRESET14DefaultEditingEv
libkicommon.so.9.0.1:_ZN10BOM_PRESET14GroupedByValueEv
libkicommon.so.9.0.1:_ZN10BOM_PRESET23GroupedByValueFootprintEv
libkicommon.so.9.0.1:_ZN10JOBSET_JOB14SetDescriptionERK8wxString
libkicommon.so.9.0.1:_ZN10KICAD_CURL14IsShuttingDownEv
libkicommon.so.9.0.1:_ZN10KICAD_CURL4InitEv
libkicommon.so.9.0.1:_ZN10KICAD_CURL5MutexEv
libkicommon.so.9.0.1:_ZN10KICAD_CURL7CleanupEv
libkicommon.so.9.0.1:_ZN10PARAM_LISTI10BOM_PRESETE10SetDefaultEv
libkicommon.so.9.0.1:_ZN10PARAM_LISTI10BOM_PRESETEC1ERKNSt7__cxx1112basic_stringIcSt11char_traitsIcESaIcEEEPSt6vectorIS0_SaIS0_EESC_b
libkicommon.so.9.0.1:_ZN10PARAM_LISTI10BOM_PRESETEC1ERKNSt7__cxx1112basic_stringIcSt11char_traitsIcESaIcEEEPSt6vectorIS0_SaIS0_EESt16initializer_listIS0_Eb
libkicommon.so.9.0.1:_ZN10PARAM_LISTI10BOM_PRESETEC2ERKNSt7__cxx1112basic_stringIcSt11char_traitsIcESaIcEEEPSt6vectorIS0_SaIS0_EESC_b
libkicommon.so.9.0.1:_ZN10PARAM_LISTI10BOM_PRESETEC2ERKNSt7__cxx1112basic_stringIcSt11char_traitsIcESaIcEEEPSt6vectorIS0_SaIS0_EESt16initializer_listIS0_Eb
libkicommon.so.9.0.1:_ZN10PARAM_LISTI10JOBSET_JOBE10SetDefaultEv
libkicommon.so.9.0.1:_ZN10PARAM_LISTI10JOBSET_JOBEC1ERKNSt7__cxx1112basic_stringIcSt11char_traitsIcESaIcEEEPSt6vectorIS0_SaIS0_EESC_b
libkicommon.so.9.0.1:_ZN10PARAM_LISTI10JOBSET_JOBEC1ERKNSt7__cxx1112basic_stringIcSt11char_traitsIcESaIcEEEPSt6vectorIS0_SaIS0_EESt16initializer_listIS0_Eb
libkicommon.so.9.0.1:_ZN10PARAM_LISTI10JOBSET_JOBEC2ERKNSt7__cxx1112basic_stringIcSt11char_traitsIcESaIcEEEPSt6vectorIS0_SaIS0_EESC_b
libkicommon.so.9.0.1:_ZN10PARAM_LISTI10JOBSET_JOBEC2ERKNSt7__cxx1112basic_stringIcSt11char_traitsIcESaIcEEEPSt6vectorIS0_SaIS0_EESt16initializer_listIS0_Eb
libkicommon.so.9.0.1:_ZN10PARAM_LISTI14BOM_FMT_PRESETE10SetDefaultEv
libkicommon.so.9.0.1:_ZN10PARAM_LISTI14BOM_FMT_PRESETEC1ERKNSt7__cxx1112basic_stringIcSt11char_traitsIcESaIcEEEPSt6vectorIS0_SaIS0_EESC_b
libkicommon.so.9.0.1:_ZN10PARAM_LISTI14BOM_FMT_PRESETEC1ERKNSt7__cxx1112basic_stringIcSt11char_traitsIcESaIcEEEPSt6vectorIS0_SaIS0_EESt16initializer_listIS0_Eb
libkicommon.so.9.0.1:_ZN10PARAM_LISTI14BOM_FMT_PRESETEC2ERKNSt7__cxx1112basic_stringIcSt11char_traitsIcESaIcEEEPSt6vectorIS0_SaIS0_EESC_b
libkicommon.so.9.0.1:_ZN10PARAM_LISTI14BOM_FMT_PRESETEC2ERKNSt7__cxx1112basic_stringIcSt11char_traitsIcESaIcEEEPSt6vectorIS0_SaIS0_EESt16initializer_listIS0_Eb
libkicommon.so.9.0.1:_ZN10PARAM_LISTI18JOBSET_DESTINATIONE10SetDefaultEv
libkicommon.so.9.0.1:_ZN10PARAM_LISTI18JOBSET_DESTINATIONEC1ERKNSt7__cxx1112basic_stringIcSt11char_traitsIcESaIcEEEPSt6vectorIS0_SaIS0_EESC_b
libkicommon.so.9.0.1:_ZN10PARAM_LISTI18JOBSET_DESTINATIONEC1ERKNSt7__cxx1112basic_stringIcSt11char_traitsIcESaIcEEEPSt6vectorIS0_SaIS0_EESt16initializer_listIS0_Eb
libkicommon.so.9.0.1:_ZN10PARAM_LISTI18JOBSET_DESTINATIONEC2ERKNSt7__cxx1112basic_stringIcSt11char_traitsIcESaIcEEEPSt6vectorIS0_SaIS0_EESC_b
libkicommon.so.9.0.1:_ZN10PARAM_LISTI18JOBSET_DESTINATIONEC2ERKNSt7__cxx1112basic_stringIcSt11char_traitsIcESaIcEEEPSt6vectorIS0_SaIS0_EESt16initializer_listIS0_Eb
libkicommon.so.9.0.1:_ZN10PARAM_LISTI4GRIDE10SetDefaultEv
libkicommon.so.9.0.1:_ZN10PARAM_LISTI4GRIDEC1ERKNSt7__cxx1112basic_stringIcSt11char_traitsIcESaIcEEEPSt6vectorIS0_SaIS0_EESC_b
libkicommon.so.9.0.1:_ZN10PARAM_LISTI4GRIDEC1ERKNSt7__cxx1112basic_stringIcSt11char_traitsIcESaIcEEEPSt6vectorIS0_SaIS0_EESt16initializer_listIS0_Eb
libkicommon.so.9.0.1:_ZN10PARAM_LISTI4GRIDEC2ERKNSt7__cxx1112basic_stringIcSt11char_traitsIcESaIcEEEPSt6vectorIS0_SaIS0_EESC_b
libkicommon.so.9.0.1:_ZN10PARAM_LISTI4GRIDEC2ERKNSt7__cxx1112basic_stringIcSt11char_traitsIcESaIcEEEPSt6vectorIS0_SaIS0_EESt16initializer_listIS0_Eb
libkicommon.so.9.0.1:_ZN10PARAM_LISTI8wxStringE10SetDefaultEv
libkicommon.so.9.0.1:_ZN10PARAM_LISTI8wxStringEC1ERKNSt7__cxx1112basic_stringIcSt11char_traitsIcESaIcEEEPSt6vectorIS0_SaIS0_EESC_b
libkicommon.so.9.0.1:_ZN10PARAM_LISTI8wxStringEC1ERKNSt7__cxx1112basic_stringIcSt11char_traitsIcESaIcEEEPSt6vectorIS0_SaIS0_EESt16initializer_listIS0_Eb
libkicommon.so.9.0.1:_ZN10PARAM_LISTI8wxStringEC2ERKNSt7__cxx1112basic_stringIcSt11char_traitsIcESaIcEEEPSt6vectorIS0_SaIS0_EESC_b
libkicommon.so.9.0.1:_ZN10PARAM_LISTI8wxStringEC2ERKNSt7__cxx1112basic_stringIcSt11char_traitsIcESaIcEEEPSt6vectorIS0_SaIS0_EESt16initializer_listIS0_Eb
libkicommon.so.9.0.1:_ZN10PARAM_LISTIN5KIGFX7COLOR4DEE10SetDefaultEv
libkicommon.so.9.0.1:_ZN10PARAM_LISTIN5KIGFX7COLOR4DEEC1ERKNSt7__cxx1112basic_stringIcSt11char_traitsIcESaIcEEEPSt6vectorIS1_SaIS1_EESD_b
libkicommon.so.9.0.1:_ZN10PARAM_LISTIN5KIGFX7COLOR4DEEC1ERKNSt7__cxx1112basic_stringIcSt11char_traitsIcESaIcEEEPSt6vectorIS1_SaIS1_EESt16initializer_listIS1_Eb
libkicommon.so.9.0.1:_ZN10PARAM_LISTIN5KIGFX7COLOR4DEEC2ERKNSt7__cxx1112basic_stringIcSt11char_traitsIcESaIcEEEPSt6vectorIS1_SaIS1_EESD_b
libkicommon.so.9.0.1:_ZN10PARAM_LISTIN5KIGFX7COLOR4DEEC2ERKNSt7__cxx1112basic_stringIcSt11char_traitsIcESaIcEEEPSt6vectorIS1_SaIS1_EESt16initializer_listIS1_Eb
libkicommon.so.9.0.1:_ZN10PARAM_LISTIbE10SetDefaultEv
libkicommon.so.9.0.1:_ZN10PARAM_LISTIbEC1ERKNSt7__cxx1112basic_stringIcSt11char_traitsIcESaIcEEEPSt6vectorIbSaIbEESB_b
libkicommon.so.9.0.1:_ZN10PARAM_LISTIbEC1ERKNSt7__cxx1112basic_stringIcSt11char_traitsIcESaIcEEEPSt6vectorIbSaIbEESt16initializer_listIbEb
libkicommon.so.9.0.1:_ZN10PARAM_LISTIbEC2ERKNSt7__cxx1112basic_stringIcSt11char_traitsIcESaIcEEEPSt6vectorIbSaIbEESB_b
libkicommon.so.9.0.1:_ZN10PARAM_LISTIbEC2ERKNSt7__cxx1112basic_stringIcSt11char_traitsIcESaIcEEEPSt6vectorIbSaIbEESt16initializer_listIbEb
libkicommon.so.9.0.1:_ZN10PARAM_LISTIdE10SetDefaultEv
libkicommon.so.9.0.1:_ZN10PARAM_LISTIdEC1ERKNSt7__cxx1112basic_stringIcSt11char_traitsIcESaIcEEEPSt6vectorIdSaIdEESB_b
libkicommon.so.9.0.1:_ZN10PARAM_LISTIdEC1ERKNSt7__cxx1112basic_stringIcSt11char_traitsIcESaIcEEEPSt6vectorIdSaIdEESt16initializer_listIdEb
libkicommon.so.9.0.1:_ZN10PARAM_LISTIdEC2ERKNSt7__cxx1112basic_stringIcSt11char_traitsIcESaIcEEEPSt6vectorIdSaIdEESB_b
libkicommon.so.9.0.1:_ZN10PARAM_LISTIdEC2ERKNSt7__cxx1112basic_stringIcSt11char_traitsIcESaIcEEEPSt6vectorIdSaIdEESt16initializer_listIdEb
libkicommon.so.9.0.1:_ZN10PARAM_LISTIiE10SetDefaultEv
libkicommon.so.9.0.1:_ZN10PARAM_LISTIiEC1ERKNSt7__cxx1112basic_stringIcSt11char_traitsIcESaIcEEEPSt6vectorIiSaIiEESB_b
libkicommon.so.9.0.1:_ZN10PARAM_LISTIiEC1ERKNSt7__cxx1112basic_stringIcSt11char_traitsIcESaIcEEEPSt6vectorIiSaIiEESt16initializer_listIiEb
libkicommon.so.9.0.1:_ZN10PARAM_LISTIiEC2ERKNSt7__cxx1112basic_stringIcSt11char_traitsIcESaIcEEEPSt6vectorIiSaIiEESB_b
libkicommon.so.9.0.1:_ZN10PARAM_LISTIiEC2ERKNSt7__cxx1112basic_stringIcSt11char_traitsIcESaIcEEEPSt6vectorIiSaIiEESt16initializer_listIiEb
libkicommon.so.9.0.1:_ZN10fontconfig10FONTCONFIG11SetReporterEP8REPORTER
libkicommon.so.9.0.1:_ZN10fontconfig10FONTCONFIG11getFcStringB5cxx11ERNS_14FONTCONFIG_PATEPKci
libkicommon.so.9.0.1:_ZN10fontconfig10FONTCONFIG15isLanguageMatchERK8wxStringS3_
libkicommon.so.9.0.1:_ZN10fontconfig10FONTCONFIG19getAllFamilyStringsERNS_14FONTCONFIG_PATERSt13unordered_mapINSt7__cxx1112basic_stringIcSt11char_traitsIcESaIcEEES9_St4hashIS9_ESt8equal_toIS9_ESaISt4pairIKS9_S9_EEE
libkicommon.so.9.0.1:_ZN10fontconfig10FONTCONFIG21getFamilyStringByLangB5cxx11ERNS_14FONTCONFIG_PATERK8wxString
libkicommon.so.9.0.1:_ZN10fontconfig10FONTCONFIG7VersionEv
libkicommon.so.9.0.1:_ZN10fontconfig10FONTCONFIG8FindFontERK8wxStringRS1_RibbPKSt6vectorIS1_SaIS1_EE
libkicommon.so.9.0.1:_ZN10fontconfig10FONTCONFIG9ListFontsERSt6vectorINSt7__cxx1112basic_stringIcSt11char_traitsIcESaIcEEESaIS7_EERKS7_PKS1_I8wxStringSaISD_EEb
libkicommon.so.9.0.1:_ZN10fontconfig10FONTCONFIGC1Ev
libkicommon.so.9.0.1:_ZN10fontconfig10FONTCONFIGC2Ev
libkicommon.so.9.0.1:_ZN11API_HANDLER6HandleERN5kiapi6common10ApiRequestE
libkicommon.so.9.0.1:_ZN11DIALOG_SHIM10OnCharHookER10wxKeyEvent
libkicommon.so.9.0.1:_ZN11DIALOG_SHIM11ClearModifyEv
libkicommon.so.9.0.1:_ZN11DIALOG_SHIM11SetPositionERK7wxPoint
libkicommon.so.9.0.1:_ZN11DIALOG_SHIM11setSizeInDUEii
libkicommon.so.9.0.1:_ZN11DIALOG_SHIM13EndQuasiModalEi
libkicommon.so.9.0.1:_ZN11DIALOG_SHIM13OnCloseWindowER12wxCloseEvent
libkicommon.so.9.0.1:_ZN11DIALOG_SHIM14ShowQuasiModalEv
libkicommon.so.9.0.1:_ZN11DIALOG_SHIM15onChildSetFocusER12wxFocusEvent
libkicommon.so.9.0.1:_ZN11DIALOG_SHIM20SelectAllInTextCtrlsER12wxWindowList
libkicommon.so.9.0.1:_ZN11DIALOG_SHIM20SetupStandardButtonsESt3mapIi8wxStringSt4lessIiESaISt4pairIKiS1_EEE
libkicommon.so.9.0.1:_ZN11DIALOG_SHIM20finishDialogSettingsEv
libkicommon.so.9.0.1:_ZN11DIALOG_SHIM24PrepareForModalSubDialogEv
libkicommon.so.9.0.1:_ZN11DIALOG_SHIM26CleanupAfterModalSubDialogEv
libkicommon.so.9.0.1:_ZN11DIALOG_SHIM4ShowEb
libkicommon.so.9.0.1:_ZN11DIALOG_SHIM6EnableEb
libkicommon.so.9.0.1:_ZN11DIALOG_SHIM7OnPaintER12wxPaintEvent
libkicommon.so.9.0.1:_ZN11DIALOG_SHIM8OnButtonER14wxCommandEvent
libkicommon.so.9.0.1:_ZN11DIALOG_SHIM8OnModifyEv
libkicommon.so.9.0.1:_ZN11DIALOG_SHIM9ShowModalEv
libkicommon.so.9.0.1:_ZN11DIALOG_SHIM9resetSizeEv
libkicommon.so.9.0.1:_ZN11DIALOG_SHIMC1EP8wxWindowiRK8wxStringRK7wxPointRK6wxSizelS4_
libkicommon.so.9.0.1:_ZN11DIALOG_SHIMC2EP8wxWindowiRK8wxStringRK7wxPointRK6wxSizelS4_
libkicommon.so.9.0.1:_ZN11DIALOG_SHIMD0Ev
libkicommon.so.9.0.1:_ZN11DIALOG_SHIMD1Ev
libkicommon.so.9.0.1:_ZN11DIALOG_SHIMD2Ev
libkicommon.so.9.0.1:_ZN11DPI_SCALING17GetMaxScaleFactorEv
libkicommon.so.9.0.1:_ZN11DPI_SCALING17GetMinScaleFactorEv
libkicommon.so.9.0.1:_ZN11DPI_SCALING21GetDefaultScaleFactorEv
libkicommon.so.9.0.1:_ZN11HTML_WINDOW11onMenuEventER11wxMenuEvent
libkicommon.so.9.0.1:_ZN11HTML_WINDOW12AppendToPageERK8wxString
libkicommon.so.9.0.1:_ZN11HTML_WINDOW12ThemeChangedEv
libkicommon.so.9.0.1:_ZN11HTML_WINDOW12onRightClickER12wxMouseEvent
libkicommon.so.9.0.1:_ZN11HTML_WINDOW14onThemeChangedER23wxSysColourChangedEvent
libkicommon.so.9.0.1:_ZN11HTML_WINDOW7SetPageERK8wxString
libkicommon.so.9.0.1:_ZN11HTML_WINDOWC1EP8wxWindowiRK7wxPointRK6wxSizelRK8wxString
libkicommon.so.9.0.1:_ZN11HTML_WINDOWC2EP8wxWindowiRK7wxPointRK6wxSizelRK8wxString
libkicommon.so.9.0.1:_ZN11HTML_WINDOWD0Ev
libkicommon.so.9.0.1:_ZN11HTML_WINDOWD1Ev
libkicommon.so.9.0.1:_ZN11HTML_WINDOWD2Ev
libkicommon.so.9.0.1:_ZN11JOB_PCB_DRCC1Ev
libkicommon.so.9.0.1:_ZN11JOB_PCB_DRCC2Ev
libkicommon.so.9.0.1:_ZN11JOB_SCH_ERCC1Ev
libkicommon.so.9.0.1:_ZN11JOB_SCH_ERCC2Ev
libkicommon.so.9.0.1:_ZN11KISTATUSBAR20SetEllipsedTextFieldERK8wxStringi
libkicommon.so.9.0.1:_ZN11KISTATUSBAR20SetNotificationCountEi
libkicommon.so.9.0.1:_ZN11KISTATUSBAR21SetBackgroundProgressEi
libkicommon.so.9.0.1:_ZN11KISTATUSBAR23SetBackgroundStatusTextERK8wxString
libkicommon.so.9.0.1:_ZN11KISTATUSBAR24SetBackgroundProgressMaxEi
libkicommon.so.9.0.1:_ZN11KISTATUSBAR24onNotificationsIconClickER14wxCommandEvent
libkicommon.so.9.0.1:_ZN11KISTATUSBAR25HideBackgroundProgressBarEv
libkicommon.so.9.0.1:_ZN11KISTATUSBAR25ShowBackgroundProgressBarEb
libkicommon.so.9.0.1:_ZN11KISTATUSBAR25onBackgroundProgressClickER12wxMouseEvent
libkicommon.so.9.0.1:_ZN11KISTATUSBAR6onSizeER11wxSizeEvent
libkicommon.so.9.0.1:_ZN11KISTATUSBARC1EiP8wxWindowi
libkicommon.so.9.0.1:_ZN11KISTATUSBARC2EiP8wxWindowi
libkicommon.so.9.0.1:_ZN11KISTATUSBARD0Ev
libkicommon.so.9.0.1:_ZN11KISTATUSBARD1Ev
libkicommon.so.9.0.1:_ZN11KISTATUSBARD2Ev
libkicommon.so.9.0.1:_ZN11LINE_READER14expandCapacityEj
libkicommon.so.9.0.1:_ZN11LINE_READERC1Ej
libkicommon.so.9.0.1:_ZN11LINE_READERC2Ej
libkicommon.so.9.0.1:_ZN11LINE_READERD0Ev
libkicommon.so.9.0.1:_ZN11LINE_READERD1Ev
libkicommon.so.9.0.1:_ZN11LINE_READERD2Ev
libkicommon.so.9.0.1:_ZN11PARSE_ERROR4initERK8wxStringPKcS4_iS2_S4_ii
libkicommon.so.9.0.1:_ZN11TITLE_BLOCK14GetCurrentDateEv
libkicommon.so.9.0.1:_ZN11TITLE_BLOCK21GetContextualTextVarsEP13wxArrayString
libkicommon.so.9.0.1:_ZN11WX_FILENAME11SetFullNameERK8wxString
libkicommon.so.9.0.1:_ZN11WX_FILENAME12GetTimestampEv
libkicommon.so.9.0.1:_ZN11WX_FILENAME23ResolvePossibleSymlinksER10wxFileName
libkicommon.so.9.0.1:_ZN11WX_FILENAME7SetPathERK8wxString
libkicommon.so.9.0.1:_ZN11WX_FILENAME7resolveEv
libkicommon.so.9.0.1:_ZN11WX_FILENAMEC1ERK8wxStringS2_
libkicommon.so.9.0.1:_ZN11WX_FILENAMEC2ERK8wxStringS2_
libkicommon.so.9.0.1:_ZN12ADVANCED_CFG12loadSettingsER12wxConfigBase
libkicommon.so.9.0.1:_ZN12ADVANCED_CFG18loadFromConfigFileEv
libkicommon.so.9.0.1:_ZN12ADVANCED_CFG6GetCfgEv
libkicommon.so.9.0.1:_ZN12ADVANCED_CFGC1Ev
libkicommon.so.9.0.1:_ZN12ADVANCED_CFGC2Ev
libkicommon.so.9.0.1:_ZN12BITMAP_STORE10bitmapNameE7BITMAPSi
libkicommon.so.9.0.1:_ZN12BITMAP_STORE12ThemeChangedEv
libkicommon.so.9.0.1:_ZN12BITMAP_STORE15GetBitmapBundleE7BITMAPSi
libkicommon.so.9.0.1:_ZN12BITMAP_STORE15GetBitmapScaledE7BITMAPSii
libkicommon.so.9.0.1:_ZN12BITMAP_STORE17computeBitmapNameE7BITMAPSi
libkicommon.so.9.0.1:_ZN12BITMAP_STORE20buildBitmapInfoCacheEv
libkicommon.so.9.0.1:_ZN12BITMAP_STORE23GetDisabledBitmapBundleE7BITMAPS
libkicommon.so.9.0.1:_ZN12BITMAP_STORE8getImageE7BITMAPSi
libkicommon.so.9.0.1:_ZN12BITMAP_STORE9GetBitmapE7BITMAPSi
libkicommon.so.9.0.1:_ZN12BITMAP_STOREC1Ev
libkicommon.so.9.0.1:_ZN12BITMAP_STOREC2Ev
libkicommon.so.9.0.1:_ZN12CLI_REPORTER11GetInstanceEv
libkicommon.so.9.0.1:_ZN12CLI_REPORTER6ReportERK8wxString8SEVERITY
libkicommon.so.9.0.1:_ZN12JOB_REGISTRY11getRegistryEv
libkicommon.so.9.0.1:_ZN12JOB_REGISTRY13GetKifaceTypeERK8wxString
libkicommon.so.9.0.1:_ZN12JOB_REGISTRY3AddERK8wxString18JOB_REGISTRY_ENTRY
libkicommon.so.9.0.1:_ZN12KICAD_FORMAT10FormatBoolEP15OUTPUTFORMATTERRK8wxStringb
libkicommon.so.9.0.1:_ZN12KICAD_FORMAT10FormatUuidEP15OUTPUTFORMATTERRK4KIID
libkicommon.so.9.0.1:_ZN12KICAD_FORMAT16FormatStreamDataER15OUTPUTFORMATTERRK14wxStreamBuffer
libkicommon.so.9.0.1:_ZN12KICAD_FORMAT8PrettifyERNSt7__cxx1112basic_stringIcSt11char_traitsIcESaIcEEEb
libkicommon.so.9.0.1:_ZN12KIWAY_HOLDER8SetKiwayEP8wxWindowP5KIWAY
libkicommon.so.9.0.1:_ZN12NET_SETTINGS11SetNetclassERK8wxStringRSt10shared_ptrI8NETCLASSE
libkicommon.so.9.0.1:_ZN12NET_SETTINGS13ParseBusGroupERK8wxStringPS0_PSt6vectorIS0_SaIS0_EE
libkicommon.so.9.0.1:_ZN12NET_SETTINGS13SetNetclassesERKSt3mapI8wxStringSt10shared_ptrI8NETCLASSESt4lessIS1_ESaISt4pairIKS1_S4_EEE
libkicommon.so.9.0.1:_ZN12NET_SETTINGS14ClearAllCachesEv
libkicommon.so.9.0.1:_ZN12NET_SETTINGS14ParseBusVectorERK8wxStringPS0_PSt6vectorIS0_SaIS0_EE
libkicommon.so.9.0.1:_ZN12NET_SETTINGS15ClearNetclassesEv
libkicommon.so.9.0.1:_ZN12NET_SETTINGS16ClearCacheForNetERK8wxString
libkicommon.so.9.0.1:_ZN12NET_SETTINGS17migrateSchema0to1Ev
libkicommon.so.9.0.1:_ZN12NET_SETTINGS17migrateSchema1to2Ev
libkicommon.so.9.0.1:_ZN12NET_SETTINGS17migrateSchema2to3Ev
libkicommon.so.9.0.1:_ZN12NET_SETTINGS17migrateSchema3to4Ev
libkicommon.so.9.0.1:_ZN12NET_SETTINGS18GetDefaultNetclassEv
libkicommon.so.9.0.1:_ZN12NET_SETTINGS18SetDefaultNetclassESt10shared_ptrI8NETCLASSE
libkicommon.so.9.0.1:_ZN12NET_SETTINGS20GetEffectiveNetClassERK8wxString
libkicommon.so.9.0.1:_ZN12NET_SETTINGS21SetNetColorAssignmentERK8wxStringRKN5KIGFX7COLOR4DE
libkicommon.so.9.0.1:_ZN12NET_SETTINGS24ClearNetColorAssignmentsEv
libkicommon.so.9.0.1:_ZN12NET_SETTINGS26SetNetclassLabelAssignmentERK8wxStringRKSt3setIS0_St4lessIS0_ESaIS0_EE
libkicommon.so.9.0.1:_ZN12NET_SETTINGS28ClearNetclassLabelAssignmentERK8wxString
libkicommon.so.9.0.1:_ZN12NET_SETTINGS28RecomputeEffectiveNetclassesEv
libkicommon.so.9.0.1:_ZN12NET_SETTINGS28SetNetclassPatternAssignmentERK8wxStringS2_
libkicommon.so.9.0.1:_ZN12NET_SETTINGS29AppendNetclassLabelAssignmentERK8wxStringRKSt3setIS0_St4lessIS0_ESaIS0_EE
libkicommon.so.9.0.1:_ZN12NET_SETTINGS29ClearNetclassLabelAssignmentsEv
libkicommon.so.9.0.1:_ZN12NET_SETTINGS29GetNetclassPatternAssignmentsEv
libkicommon.so.9.0.1:_ZN12NET_SETTINGS29SetNetclassPatternAssignmentsEOSt6vectorISt4pairISt10unique_ptrI20EDA_COMBINED_MATCHERSt14default_deleteIS3_EE8wxStringESaIS8_EE
libkicommon.so.9.0.1:_ZN12NET_SETTINGS31ClearNetclassPatternAssignmentsEv
libkicommon.so.9.0.1:_ZN12NET_SETTINGSC1EP13JSON_SETTINGSRKNSt7__cxx1112basic_stringIcSt11char_traitsIcESaIcEEE
libkicommon.so.9.0.1:_ZN12NET_SETTINGSC2EP13JSON_SETTINGSRKNSt7__cxx1112basic_stringIcSt11char_traitsIcESaIcEEE
libkicommon.so.9.0.1:_ZN12NET_SETTINGSD0Ev
libkicommon.so.9.0.1:_ZN12NET_SETTINGSD1Ev
libkicommon.so.9.0.1:_ZN12NET_SETTINGSD2Ev
libkicommon.so.9.0.1:_ZN12NUMBER_BADGE11SetTextSizeEi
libkicommon.so.9.0.1:_ZN12NUMBER_BADGE11computeSizeEv
libkicommon.so.9.0.1:_ZN12NUMBER_BADGE12UpdateNumberEi8SEVERITY
libkicommon.so.9.0.1:_ZN12NUMBER_BADGE16SetMaximumNumberEi
libkicommon.so.9.0.1:_ZN12NUMBER_BADGE7onPaintER12wxPaintEvent
libkicommon.so.9.0.1:_ZN12NUMBER_BADGEC1EP8wxWindowiRK7wxPointRK6wxSizei
libkicommon.so.9.0.1:_ZN12NUMBER_BADGEC2EP8wxWindowiRK7wxPointRK6wxSizei
libkicommon.so.9.0.1:_ZN12PARAM_LAMBDAIN8nlohmann16json_abi_v3_11_310basic_jsonISt3mapSt6vectorNSt7__cxx1112basic_stringIcSt11char_traitsIcESaIcEEEblmdSaNS1_14adl_serializerES4_IhSaIhEEvEEE10SetDefaultEv
libkicommon.so.9.0.1:_ZN12PARAM_LAMBDAIN8nlohmann16json_abi_v3_11_310basic_jsonISt3mapSt6vectorNSt7__cxx1112basic_stringIcSt11char_traitsIcESaIcEEEblmdSaNS1_14adl_serializerES4_IhSaIhEEvEEEC1ERKSA_St8functionIFSE_vEESI_IFvSE_EESE_b
libkicommon.so.9.0.1:_ZN12PARAM_LAMBDAIN8nlohmann16json_abi_v3_11_310basic_jsonISt3mapSt6vectorNSt7__cxx1112basic_stringIcSt11char_traitsIcESaIcEEEblmdSaNS1_14adl_serializerES4_IhSaIhEEvEEEC2ERKSA_St8functionIFSE_vEESI_IFvSE_EESE_b
libkicommon.so.9.0.1:_ZN12PARAM_LAMBDAINSt7__cxx1112basic_stringIcSt11char_traitsIcESaIcEEEE10SetDefaultEv
libkicommon.so.9.0.1:_ZN12PARAM_LAMBDAINSt7__cxx1112basic_stringIcSt11char_traitsIcESaIcEEEEC1ERKS5_St8functionIFS5_vEES9_IFvS5_EES5_b
libkicommon.so.9.0.1:_ZN12PARAM_LAMBDAINSt7__cxx1112basic_stringIcSt11char_traitsIcESaIcEEEEC2ERKS5_St8functionIFS5_vEES9_IFvS5_EES5_b
libkicommon.so.9.0.1:_ZN12PARAM_LAMBDAIbE10SetDefaultEv
libkicommon.so.9.0.1:_ZN12PARAM_LAMBDAIbEC1ERKNSt7__cxx1112basic_stringIcSt11char_traitsIcESaIcEEESt8functionIFbvEES9_IFvbEEbb
libkicommon.so.9.0.1:_ZN12PARAM_LAMBDAIbEC2ERKNSt7__cxx1112basic_stringIcSt11char_traitsIcESaIcEEESt8functionIFbvEES9_IFvbEEbb
libkicommon.so.9.0.1:_ZN12PARAM_LAMBDAIiE10SetDefaultEv
libkicommon.so.9.0.1:_ZN12PARAM_LAMBDAIiEC1ERKNSt7__cxx1112basic_stringIcSt11char_traitsIcESaIcEEESt8functionIFivEES9_IFviEEib
libkicommon.so.9.0.1:_ZN12PARAM_LAMBDAIiEC2ERKNSt7__cxx1112basic_stringIcSt11char_traitsIcESaIcEEESt8functionIFivEES9_IFviEEib
libkicommon.so.9.0.1:_ZN12PROJECT_FILE10SaveToFileERK8wxStringb
libkicommon.so.9.0.1:_ZN12PROJECT_FILE17MigrateFromLegacyEP12wxConfigBase
libkicommon.so.9.0.1:_ZN12PROJECT_FILE17migrateSchema1To2Ev
libkicommon.so.9.0.1:_ZN12PROJECT_FILE17migrateSchema2To3Ev
libkicommon.so.9.0.1:_ZN12PROJECT_FILE6SaveAsERK8wxStringS2_
libkicommon.so.9.0.1:_ZN12PROJECT_FILEC1ERK8wxString
libkicommon.so.9.0.1:_ZN12PROJECT_FILEC2ERK8wxString
libkicommon.so.9.0.1:_ZN12SEARCH_STACK11RemovePathsERK8wxString
libkicommon.so.9.0.1:_ZN12SEARCH_STACK15LastVisitedPathERK8wxString
libkicommon.so.9.0.1:_ZN12SEARCH_STACK36FilenameWithRelativePathInSearchListERK8wxStringS2_
libkicommon.so.9.0.1:_ZN12SEARCH_STACK5SplitEP13wxArrayStringRK8wxString
libkicommon.so.9.0.1:_ZN12SEARCH_STACK8AddPathsERK8wxStringi
libkicommon.so.9.0.1:_ZN12SERIALIZABLE11DeserializeERKN6google8protobuf3AnyE
libkicommon.so.9.0.1:_ZN13ASSET_ARCHIVE14GetFilePointerERK8wxStringPPKh
libkicommon.so.9.0.1:_ZN13ASSET_ARCHIVE15GetFileContentsERK8wxStringPKhm
libkicommon.so.9.0.1:_ZN13ASSET_ARCHIVE4LoadEv
libkicommon.so.9.0.1:_ZN13ASSET_ARCHIVEC1ERK8wxStringb
libkicommon.so.9.0.1:_ZN13ASSET_ARCHIVEC2ERK8wxStringb
libkicommon.so.9.0.1:_ZN13BITMAP_BUTTON10OnSetFocusER7wxEvent
libkicommon.so.9.0.1:_ZN13BITMAP_BUTTON10SetPaddingEi
libkicommon.so.9.0.1:_ZN13BITMAP_BUTTON11OnKillFocusER7wxEvent
libkicommon.so.9.0.1:_ZN13BITMAP_BUTTON11setupEventsEv
libkicommon.so.9.0.1:_ZN13BITMAP_BUTTON12OnDPIChangedER17wxDPIChangedEvent
libkicommon.so.9.0.1:_ZN13BITMAP_BUTTON12OnMouseEnterER7wxEvent
libkicommon.so.9.0.1:_ZN13BITMAP_BUTTON12OnMouseLeaveER7wxEvent
libkicommon.so.9.0.1:_ZN13BITMAP_BUTTON14OnLeftButtonUpER12wxMouseEvent
libkicommon.so.9.0.1:_ZN13BITMAP_BUTTON14SetIsSeparatorEv
libkicommon.so.9.0.1:_ZN13BITMAP_BUTTON16OnLeftButtonDownER12wxMouseEvent
libkicommon.so.9.0.1:_ZN13BITMAP_BUTTON16SetIsCheckButtonEv
libkicommon.so.9.0.1:_ZN13BITMAP_BUTTON16SetIsRadioButtonEv
libkicommon.so.9.0.1:_ZN13BITMAP_BUTTON17SetDisabledBitmapERK14wxBitmapBundle
libkicommon.so.9.0.1:_ZN13BITMAP_BUTTON18invalidateBestSizeEv
libkicommon.so.9.0.1:_ZN13BITMAP_BUTTON19AcceptDragInAsClickEb
libkicommon.so.9.0.1:_ZN13BITMAP_BUTTON5CheckEb
libkicommon.so.9.0.1:_ZN13BITMAP_BUTTON6EnableEb
libkicommon.so.9.0.1:_ZN13BITMAP_BUTTON7OnPaintER12wxPaintEvent
libkicommon.so.9.0.1:_ZN13BITMAP_BUTTON9SetBitmapERK14wxBitmapBundle
libkicommon.so.9.0.1:_ZN13BITMAP_BUTTONC1EP8wxWindowiRK7wxPointRK6wxSizei
libkicommon.so.9.0.1:_ZN13BITMAP_BUTTONC1EP8wxWindowiRK8wxBitmapRK7wxPointRK6wxSizei
libkicommon.so.9.0.1:_ZN13BITMAP_BUTTONC2EP8wxWindowiRK7wxPointRK6wxSizei
libkicommon.so.9.0.1:_ZN13BITMAP_BUTTONC2EP8wxWindowiRK8wxBitmapRK7wxPointRK6wxSizei
libkicommon.so.9.0.1:_ZN13BITMAP_BUTTOND0Ev
libkicommon.so.9.0.1:_ZN13BITMAP_BUTTOND1Ev
libkicommon.so.9.0.1:_ZN13BITMAP_BUTTOND2Ev
libkicommon.so.9.0.1:_ZN13DIALOG_RC_JOB14OnFormatChoiceER14wxCommandEvent
libkicommon.so.9.0.1:_ZN13DIALOG_RC_JOB17getSelectedFormatEv
libkicommon.so.9.0.1:_ZN13DIALOG_RC_JOB17setSelectedFormatEN6JOB_RC13OUTPUT_FORMATE
libkicommon.so.9.0.1:_ZN13DIALOG_RC_JOB20TransferDataToWindowEv
libkicommon.so.9.0.1:_ZN13DIALOG_RC_JOB22TransferDataFromWindowEv
libkicommon.so.9.0.1:_ZN13DIALOG_RC_JOBC1EP8wxWindowP6JOB_RCRK8wxString
libkicommon.so.9.0.1:_ZN13DIALOG_RC_JOBC2EP8wxWindowP6JOB_RCRK8wxString
libkicommon.so.9.0.1:_ZN13JSON_SETTINGS10SaveToFileERK8wxStringb
libkicommon.so.9.0.1:_ZN13JSON_SETTINGS10fromLegacyIbEEbP12wxConfigBaseRKNSt7__cxx1112basic_stringIcSt11char_traitsIcESaIcEEESA_
libkicommon.so.9.0.1:_ZN13JSON_SETTINGS10fromLegacyIdEEbP12wxConfigBaseRKNSt7__cxx1112basic_stringIcSt11char_traitsIcESaIcEEESA_
libkicommon.so.9.0.1:_ZN13JSON_SETTINGS10fromLegacyIiEEbP12wxConfigBaseRKNSt7__cxx1112basic_stringIcSt11char_traitsIcESaIcEEESA_
libkicommon.so.9.0.1:_ZN13JSON_SETTINGS12LoadFromFileERK8wxString
libkicommon.so.9.0.1:_ZN13JSON_SETTINGS12SetIfPresentERKN8nlohmann16json_abi_v3_11_310basic_jsonISt3mapSt6vectorNSt7__cxx1112basic_stringIcSt11char_traitsIcESaIcEEEblmdSaNS1_14adl_serializerES4_IhSaIhEEvEERKSA_R8wxString
libkicommon.so.9.0.1:_ZN13JSON_SETTINGS12SetIfPresentERKN8nlohmann16json_abi_v3_11_310basic_jsonISt3mapSt6vectorNSt7__cxx1112basic_stringIcSt11char_traitsIcESaIcEEEblmdSaNS1_14adl_serializerES4_IhSaIhEEvEERKSA_Rb
libkicommon.so.9.0.1:_ZN13JSON_SETTINGS12SetIfPresentERKN8nlohmann16json_abi_v3_11_310basic_jsonISt3mapSt6vectorNSt7__cxx1112basic_stringIcSt11char_traitsIcESaIcEEEblmdSaNS1_14adl_serializerES4_IhSaIhEEvEERKSA_Ri
libkicommon.so.9.0.1:_ZN13JSON_SETTINGS12SetIfPresentERKN8nlohmann16json_abi_v3_11_310basic_jsonISt3mapSt6vectorNSt7__cxx1112basic_stringIcSt11char_traitsIcESaIcEEEblmdSaNS1_14adl_serializerES4_IhSaIhEEvEERKSA_Rj
libkicommon.so.9.0.1:_ZN13JSON_SETTINGS14FormatAsStringB5cxx11Ev
libkicommon.so.9.0.1:_ZN13JSON_SETTINGS14fetchOrDefaultINSt7__cxx1112basic_stringIcSt11char_traitsIcESaIcEEEEET_RKN8nlohmann16json_abi_v3_11_310basic_jsonISt3mapSt6vectorS6_blmdSaNS9_14adl_serializerESC_IhSaIhEEvEERKS6_S7_
libkicommon.so.9.0.1:_ZN13JSON_SETTINGS14fetchOrDefaultIbEET_RKN8nlohmann16json_abi_v3_11_310basic_jsonISt3mapSt6vectorNSt7__cxx1112basic_stringIcSt11char_traitsIcESaIcEEEblmdSaNS3_14adl_serializerES6_IhSaIhEEvEERKSC_S1_
libkicommon.so.9.0.1:_ZN13JSON_SETTINGS15LoadFromRawFileERK8wxString
libkicommon.so.9.0.1:_ZN13JSON_SETTINGS15ResetToDefaultsEv
libkicommon.so.9.0.1:_ZN13JSON_SETTINGS15fromLegacyColorEP12wxConfigBaseRKNSt7__cxx1112basic_stringIcSt11char_traitsIcESaIcEEES9_
libkicommon.so.9.0.1:_ZN13JSON_SETTINGS16fromLegacyStringEP12wxConfigBaseRKNSt7__cxx1112basic_stringIcSt11char_traitsIcESaIcEEES9_
libkicommon.so.9.0.1:_ZN13JSON_SETTINGS17AddNestedSettingsEP15NESTED_SETTINGS
libkicommon.so.9.0.1:_ZN13JSON_SETTINGS17MigrateFromLegacyEP12wxConfigBase
libkicommon.so.9.0.1:_ZN13JSON_SETTINGS17registerMigrationEiiSt8functionIFbvEE
libkicommon.so.9.0.1:_ZN13JSON_SETTINGS21ReleaseNestedSettingsEP15NESTED_SETTINGS
libkicommon.so.9.0.1:_ZN13JSON_SETTINGS2AtERKNSt7__cxx1112basic_stringIcSt11char_traitsIcESaIcEEE
libkicommon.so.9.0.1:_ZN13JSON_SETTINGS3SetI10BOM_PRESETEEvRKNSt7__cxx1112basic_stringIcSt11char_traitsIcESaIcEEET_
libkicommon.so.9.0.1:_ZN13JSON_SETTINGS3SetI13wxAuiPaneInfoEEvRKNSt7__cxx1112basic_stringIcSt11char_traitsIcESaIcEEET_
libkicommon.so.9.0.1:_ZN13JSON_SETTINGS3SetI14BOM_FMT_PRESETEEvRKNSt7__cxx1112basic_stringIcSt11char_traitsIcESaIcEEET_
libkicommon.so.9.0.1:_ZN13JSON_SETTINGS3SetI4GRIDEEvRKNSt7__cxx1112basic_stringIcSt11char_traitsIcESaIcEEET_
libkicommon.so.9.0.1:_ZN13JSON_SETTINGS3SetI6wxRectEEvRKNSt7__cxx1112basic_stringIcSt11char_traitsIcESaIcEEET_
libkicommon.so.9.0.1:_ZN13JSON_SETTINGS3SetI6wxSizeEEvRKNSt7__cxx1112basic_stringIcSt11char_traitsIcESaIcEEET_
libkicommon.so.9.0.1:_ZN13JSON_SETTINGS3SetI7wxPointEEvRKNSt7__cxx1112basic_stringIcSt11char_traitsIcESaIcEEET_
libkicommon.so.9.0.1:_ZN13JSON_SETTINGS3SetI8wxStringEEvRKNSt7__cxx1112basic_stringIcSt11char_traitsIcESaIcEEET_
libkicommon.so.9.0.1:_ZN13JSON_SETTINGS3SetI9BOM_FIELDEEvRKNSt7__cxx1112basic_stringIcSt11char_traitsIcESaIcEEET_
libkicommon.so.9.0.1:_ZN13JSON_SETTINGS3SetIN5KIGFX7COLOR4DEEEvRKNSt7__cxx1112basic_stringIcSt11char_traitsIcESaIcEEET_
libkicommon.so.9.0.1:_ZN13JSON_SETTINGS3SetIN8nlohmann16json_abi_v3_11_310basic_jsonISt3mapSt6vectorNSt7__cxx1112basic_stringIcSt11char_traitsIcESaIcEEEblmdSaNS2_14adl_serializerES5_IhSaIhEEvEEEEvRKSB_T_
libkicommon.so.9.0.1:_ZN13JSON_SETTINGS3SetINSt7__cxx1112basic_stringIcSt11char_traitsIcESaIcEEEEEvRKS6_T_
libkicommon.so.9.0.1:_ZN13JSON_SETTINGS3SetIPKcEEvRKNSt7__cxx1112basic_stringIcSt11char_traitsIcESaIcEEET_
libkicommon.so.9.0.1:_ZN13JSON_SETTINGS3SetIbEEvRKNSt7__cxx1112basic_stringIcSt11char_traitsIcESaIcEEET_
libkicommon.so.9.0.1:_ZN13JSON_SETTINGS3SetIdEEvRKNSt7__cxx1112basic_stringIcSt11char_traitsIcESaIcEEET_
libkicommon.so.9.0.1:_ZN13JSON_SETTINGS3SetIfEEvRKNSt7__cxx1112basic_stringIcSt11char_traitsIcESaIcEEET_
libkicommon.so.9.0.1:_ZN13JSON_SETTINGS3SetIiEEvRKNSt7__cxx1112basic_stringIcSt11char_traitsIcESaIcEEET_
libkicommon.so.9.0.1:_ZN13JSON_SETTINGS3SetIjEEvRKNSt7__cxx1112basic_stringIcSt11char_traitsIcESaIcEEET_
libkicommon.so.9.0.1:_ZN13JSON_SETTINGS3SetIyEEvRKNSt7__cxx1112basic_stringIcSt11char_traitsIcESaIcEEET_
libkicommon.so.9.0.1:_ZN13JSON_SETTINGS4LoadEv
libkicommon.so.9.0.1:_ZN13JSON_SETTINGS5StoreEv
libkicommon.so.9.0.1:_ZN13JSON_SETTINGS7MigrateEv
libkicommon.so.9.0.1:_ZN13JSON_SETTINGS9InternalsEv
libkicommon.so.9.0.1:_ZN13JSON_SETTINGSC1ERK8wxString12SETTINGS_LOCibbb
libkicommon.so.9.0.1:_ZN13JSON_SETTINGSC2ERK8wxString12SETTINGS_LOCibbb
libkicommon.so.9.0.1:_ZN13JSON_SETTINGSD0Ev
libkicommon.so.9.0.1:_ZN13JSON_SETTINGSD1Ev
libkicommon.so.9.0.1:_ZN13JSON_SETTINGSD2Ev
libkicommon.so.9.0.1:_ZN13KIWAY_EXPRESSC1E7FRAME_T6MAIL_TRNSt7__cxx1112basic_stringIcSt11char_traitsIcESaIcEEEP8wxWindow
libkicommon.so.9.0.1:_ZN13KIWAY_EXPRESSC1ERKS_
libkicommon.so.9.0.1:_ZN13KIWAY_EXPRESSC2E7FRAME_T6MAIL_TRNSt7__cxx1112basic_stringIcSt11char_traitsIcESaIcEEEP8wxWindow
libkicommon.so.9.0.1:_ZN13KIWAY_EXPRESSC2ERKS_
libkicommon.so.9.0.1:_ZN13LIB_TABLE_ROW10SetFullURIERK8wxString
libkicommon.so.9.0.1:_ZN13LIB_TABLE_ROW10SetOptionsERK8wxString
libkicommon.so.9.0.1:_ZN13LIB_TABLE_ROW13setPropertiesEPSt3mapINSt7__cxx1112basic_stringIcSt11char_traitsIcESaIcEEE4UTF8St4lessIS6_ESaISt4pairIKS6_S7_EEE
libkicommon.so.9.0.1:_ZN13NETLIST_LEXER9TokenNameEN4NL_T1TE
libkicommon.so.9.0.1:_ZN13NULL_REPORTER11GetInstanceEv
libkicommon.so.9.0.1:_ZN13NULL_REPORTER6ReportERK8wxString8SEVERITY
libkicommon.so.9.0.1:_ZN13PARAM_CFG_INTC1ERK8wxStringPiiiiPKwS2_
libkicommon.so.9.0.1:_ZN13PARAM_CFG_INTC1EbRK8wxStringPiiiiPKwS2_
libkicommon.so.9.0.1:_ZN13PARAM_CFG_INTC2ERK8wxStringPiiiiPKwS2_
libkicommon.so.9.0.1:_ZN13PARAM_CFG_INTC2EbRK8wxStringPiiiiPKwS2_
libkicommon.so.9.0.1:_ZN13TRACE_MANAGER14IsTraceEnabledERK8wxString
libkicommon.so.9.0.1:_ZN13TRACE_MANAGER4initEv
libkicommon.so.9.0.1:_ZN13TRACE_MANAGER6traceVERK8wxStringS2_P13__va_list_tag
libkicommon.so.9.0.1:_ZN13TRACE_MANAGER8InstanceEv
libkicommon.so.9.0.1:_ZN14BOM_FMT_PRESET10SemicolonsEv
libkicommon.so.9.0.1:_ZN14BOM_FMT_PRESET14BuiltInPresetsEv
libkicommon.so.9.0.1:_ZN14BOM_FMT_PRESET3CSVEv
libkicommon.so.9.0.1:_ZN14BOM_FMT_PRESET3TSVEv
libkicommon.so.9.0.1:_ZN14COLOR_SETTINGS13initFromOtherERKS_
libkicommon.so.9.0.1:_ZN14COLOR_SETTINGS15GetDefaultColorEi
libkicommon.so.9.0.1:_ZN14COLOR_SETTINGS17MigrateFromLegacyEP12wxConfigBase
libkicommon.so.9.0.1:_ZN14COLOR_SETTINGS17migrateSchema0to1Ev
libkicommon.so.9.0.1:_ZN14COLOR_SETTINGS26CreateBuiltinColorSettingsEv
libkicommon.so.9.0.1:_ZN14COLOR_SETTINGS8SetColorEiRKN5KIGFX7COLOR4DE
libkicommon.so.9.0.1:_ZN14COLOR_SETTINGSC1ERK8wxStringb
libkicommon.so.9.0.1:_ZN14COLOR_SETTINGSC1ERKS_
libkicommon.so.9.0.1:_ZN14COLOR_SETTINGSC2ERK8wxStringb
libkicommon.so.9.0.1:_ZN14COLOR_SETTINGSC2ERKS_
libkicommon.so.9.0.1:_ZN14COLOR_SETTINGSaSERKS_
libkicommon.so.9.0.1:_ZN14EDA_UNIT_UTILS11FormatAngleB5cxx11ERK9EDA_ANGLE
libkicommon.so.9.0.1:_ZN14EDA_UNIT_UTILS12IsMetricUnitE9EDA_UNITS
libkicommon.so.9.0.1:_ZN14EDA_UNIT_UTILS14IsImperialUnitE9EDA_UNITS
libkicommon.so.9.0.1:_ZN14EDA_UNIT_UTILS19FormatInternalUnitsB5cxx11ERK12EDA_IU_SCALERK7VECTOR2IiE
libkicommon.so.9.0.1:_ZN14EDA_UNIT_UTILS19FormatInternalUnitsB5cxx11ERK12EDA_IU_SCALEi
libkicommon.so.9.0.1:_ZN14EDA_UNIT_UTILS20FetchUnitsFromStringERK8wxStringR9EDA_UNITS
libkicommon.so.9.0.1:_ZN14EDA_UNIT_UTILS2UI10ToUserUnitERK12EDA_IU_SCALE9EDA_UNITSd
libkicommon.so.9.0.1:_ZN14EDA_UNIT_UTILS2UI12FromUserUnitERK12EDA_IU_SCALE9EDA_UNITSd
libkicommon.so.9.0.1:_ZN14EDA_UNIT_UTILS2UI15StringFromValueERK12EDA_IU_SCALE9EDA_UNITSdb13EDA_DATA_TYPE
libkicommon.so.9.0.1:_ZN14EDA_UNIT_UTILS2UI15ValueFromStringERK12EDA_IU_SCALE9EDA_UNITSRK8wxString13EDA_DATA_TYPE
libkicommon.so.9.0.1:_ZN14EDA_UNIT_UTILS2UI15ValueFromStringERK8wxString
libkicommon.so.9.0.1:_ZN14EDA_UNIT_UTILS2UI20MessageTextFromValueE9EDA_ANGLEb
libkicommon.so.9.0.1:_ZN14EDA_UNIT_UTILS2UI20MessageTextFromValueERK12EDA_IU_SCALE9EDA_UNITSdb13EDA_DATA_TYPE
libkicommon.so.9.0.1:_ZN14EDA_UNIT_UTILS2UI20MessageTextFromValueERK12EDA_IU_SCALE9EDA_UNITSib13EDA_DATA_TYPE
libkicommon.so.9.0.1:_ZN14EDA_UNIT_UTILS2UI20MessageTextFromValueERK12EDA_IU_SCALE9EDA_UNITSxb13EDA_DATA_TYPE
libkicommon.so.9.0.1:_ZN14EDA_UNIT_UTILS2UI21DoubleValueFromStringERK12EDA_IU_SCALE9EDA_UNITSRK8wxString13EDA_DATA_TYPE
libkicommon.so.9.0.1:_ZN14EDA_UNIT_UTILS2UI21DoubleValueFromStringERK8wxString
libkicommon.so.9.0.1:_ZN14EDA_UNIT_UTILS2UI24MessageTextFromMinOptMaxERK12EDA_IU_SCALE9EDA_UNITSRK9MINOPTMAXIiE
libkicommon.so.9.0.1:_ZN14EDA_UNIT_UTILS7GetTextE9EDA_UNITS13EDA_DATA_TYPE
libkicommon.so.9.0.1:_ZN14EDA_UNIT_UTILS7Mils2mmEd
libkicommon.so.9.0.1:_ZN14EDA_UNIT_UTILS7Mm2milsEd
libkicommon.so.9.0.1:_ZN14EDA_UNIT_UTILS8GetLabelE9EDA_UNITS13EDA_DATA_TYPE
libkicommon.so.9.0.1:_ZN14JOB_DISPATCHER11SetReporterEP8REPORTER
libkicommon.so.9.0.1:_ZN14JOB_DISPATCHER15HandleJobConfigEP3JOBP8wxWindow
libkicommon.so.9.0.1:_ZN14JOB_DISPATCHER19SetProgressReporterEP17PROGRESS_REPORTER
libkicommon.so.9.0.1:_ZN14JOB_DISPATCHER6RunJobEP3JOBP8REPORTER
libkicommon.so.9.0.1:_ZN14JOB_DISPATCHER8RegisterERKNSt7__cxx1112basic_stringIcSt11char_traitsIcESaIcEEESt8functionIFiP3JOBEES8_IFbSA_P8wxWindowEE
libkicommon.so.9.0.1:_ZN14JOB_DISPATCHERC1EP5KIWAY
libkicommon.so.9.0.1:_ZN14JOB_DISPATCHERC2EP5KIWAY
libkicommon.so.9.0.1:_ZN14JOB_FP_UPGRADEC1Ev
libkicommon.so.9.0.1:_ZN14JOB_FP_UPGRADEC2Ev
libkicommon.so.9.0.1:_ZN14JOB_PARAM_BASEC1ERKNSt7__cxx1112basic_stringIcSt11char_traitsIcESaIcEEE
libkicommon.so.9.0.1:_ZN14JOB_PARAM_BASEC2ERKNSt7__cxx1112basic_stringIcSt11char_traitsIcESaIcEEE
libkicommon.so.9.0.1:_ZN14JOB_PCB_RENDER16GetFormatNameMapEv
libkicommon.so.9.0.1:_ZN14JOB_PCB_RENDERC1Ev
libkicommon.so.9.0.1:_ZN14JOB_PCB_RENDERC2Ev
libkicommon.so.9.0.1:_ZN14KICAD_SETTINGS17MigrateFromLegacyEP12wxConfigBase
libkicommon.so.9.0.1:_ZN14KICAD_SETTINGSC1Ev
libkicommon.so.9.0.1:_ZN14KICAD_SETTINGSC2Ev
libkicommon.so.9.0.1:_ZN14PARAM_CFG_BOOLC1ERK8wxStringPbiPKwS2_
libkicommon.so.9.0.1:_ZN14PARAM_CFG_BOOLC1EbRK8wxStringPbiPKwS2_
libkicommon.so.9.0.1:_ZN14PARAM_CFG_BOOLC2ERK8wxStringPbiPKwS2_
libkicommon.so.9.0.1:_ZN14PARAM_CFG_BOOLC2EbRK8wxStringPbiPKwS2_
libkicommon.so.9.0.1:_ZN14PARAM_VIEWPORT15jsonToViewportsERKN8nlohmann16json_abi_v3_11_310basic_jsonISt3mapSt6vectorNSt7__cxx1112basic_stringIcSt11char_traitsIcESaIcEEEblmdSaNS1_14adl_serializerES4_IhSaIhEEvEE
libkicommon.so.9.0.1:_ZN14PARAM_VIEWPORT15viewportsToJsonB5cxx11Ev
libkicommon.so.9.0.1:_ZN14PARAM_VIEWPORTC1ERKNSt7__cxx1112basic_stringIcSt11char_traitsIcESaIcEEEPSt6vectorI8VIEWPORTSaIS9_EE
libkicommon.so.9.0.1:_ZN14PARAM_VIEWPORTC2ERKNSt7__cxx1112basic_stringIcSt11char_traitsIcESaIcEEEPSt6vectorI8VIEWPORTSaIS9_EE
libkicommon.so.9.0.1:_ZN14PYTHON_MANAGER16GetVirtualPythonERK8wxString
libkicommon.so.9.0.1:_ZN14PYTHON_MANAGER20GetPythonEnvironmentERK8wxString
libkicommon.so.9.0.1:_ZN14PYTHON_MANAGER21FindPythonInterpreterEv
libkicommon.so.9.0.1:_ZN14PYTHON_MANAGER7ExecuteERKSt6vectorI8wxStringSaIS1_EERKSt8functionIFviRKS1_S8_EEPK12wxExecuteEnvb
libkicommon.so.9.0.1:_ZN14PYTHON_MANAGERC1ERK8wxString
libkicommon.so.9.0.1:_ZN14PYTHON_MANAGERC2ERK8wxString
libkicommon.so.9.0.1:_ZN14WXLOG_REPORTER11GetInstanceEv
libkicommon.so.9.0.1:_ZN14WXLOG_REPORTER6ReportERK8wxString8SEVERITY
libkicommon.so.9.0.1:_ZN15COMMON_SETTINGS17MigrateFromLegacyEP12wxConfigBase
libkicommon.so.9.0.1:_ZN15COMMON_SETTINGS17migrateSchema0to1Ev
libkicommon.so.9.0.1:_ZN15COMMON_SETTINGS17migrateSchema1to2Ev
libkicommon.so.9.0.1:_ZN15COMMON_SETTINGS17migrateSchema2to3Ev
libkicommon.so.9.0.1:_ZN15COMMON_SETTINGS20getLegacy3DHollerithERKNSt7__cxx1112basic_stringIcSt11char_traitsIcESaIcEEERmR8wxString
libkicommon.so.9.0.1:_ZN15COMMON_SETTINGS21InitializeEnvironmentEv
libkicommon.so.9.0.1:_ZN15COMMON_SETTINGS23readLegacy3DResolverCfgERK8wxStringRSt6vectorINS_21LEGACY_3D_SEARCH_PATHESaIS4_EE
libkicommon.so.9.0.1:_ZN15COMMON_SETTINGSC1Ev
libkicommon.so.9.0.1:_ZN15COMMON_SETTINGSC2Ev
libkicommon.so.9.0.1:_ZN15DESIGN_BLOCK_IO13CreateLibraryERK8wxStringPKSt3mapINSt7__cxx1112basic_stringIcSt11char_traitsIcESaIcEEE4UTF8St4lessIS9_ESaISt4pairIKS9_SA_EEE
libkicommon.so.9.0.1:_ZN15DESIGN_BLOCK_IO13DeleteLibraryERK8wxStringPKSt3mapINSt7__cxx1112basic_stringIcSt11char_traitsIcESaIcEEE4UTF8St4lessIS9_ESaISt4pairIKS9_SA_EEE
libkicommon.so.9.0.1:_ZN15DESIGN_BLOCK_IO15DesignBlockLoadERK8wxStringS2_bPKSt3mapINSt7__cxx1112basic_stringIcSt11char_traitsIcESaIcEEE4UTF8St4lessIS9_ESaISt4pairIKS9_SA_EEE
libkicommon.so.9.0.1:_ZN15DESIGN_BLOCK_IO15DesignBlockSaveERK8wxStringPK12DESIGN_BLOCKPKSt3mapINSt7__cxx1112basic_stringIcSt11char_traitsIcESaIcEEE4UTF8St4lessISC_ESaISt4pairIKSC_SD_EEE
libkicommon.so.9.0.1:_ZN15DESIGN_BLOCK_IO17DesignBlockDeleteERK8wxStringS2_PKSt3mapINSt7__cxx1112basic_stringIcSt11char_traitsIcESaIcEEE4UTF8St4lessIS9_ESaISt4pairIKS9_SA_EEE
libkicommon.so.9.0.1:_ZN15DESIGN_BLOCK_IO17IsLibraryWritableERK8wxString
libkicommon.so.9.0.1:_ZN15DESIGN_BLOCK_IO20DesignBlockEnumerateER13wxArrayStringRK8wxStringbPKSt3mapINSt7__cxx1112basic_stringIcSt11char_traitsIcESaIcEEE4UTF8St4lessISB_ESaISt4pairIKSB_SC_EEE
libkicommon.so.9.0.1:_ZN15DRC_RULES_LEXER9TokenNameEN9DRCRULE_T1TE
libkicommon.so.9.0.1:_ZN15JOB_SYM_UPGRADEC1Ev
libkicommon.so.9.0.1:_ZN15JOB_SYM_UPGRADEC2Ev
libkicommon.so.9.0.1:_ZN15KICAD_CURL_EASY12GetErrorTextB5cxx11Ei
libkicommon.so.9.0.1:_ZN15KICAD_CURL_EASY12SetUserAgentERKNSt7__cxx1112basic_stringIcSt11char_traitsIcESaIcEEE
libkicommon.so.9.0.1:_ZN15KICAD_CURL_EASY13SetPostFieldsERKNSt7__cxx1112basic_stringIcSt11char_traitsIcESaIcEEE
libkicommon.so.9.0.1:_ZN15KICAD_CURL_EASY13SetPostFieldsERKSt6vectorISt4pairINSt7__cxx1112basic_stringIcSt11char_traitsIcESaIcEEES7_ESaIS8_EE
libkicommon.so.9.0.1:_ZN15KICAD_CURL_EASY15SetOutputStreamEPKSo
libkicommon.so.9.0.1:_ZN15KICAD_CURL_EASY18SetFollowRedirectsEb
libkicommon.so.9.0.1:_ZN15KICAD_CURL_EASY19SetTransferCallbackERKSt8functionIFimmmmEEm
libkicommon.so.9.0.1:_ZN15KICAD_CURL_EASY21GetResponseStatusCodeEv
libkicommon.so.9.0.1:_ZN15KICAD_CURL_EASY6EscapeERKNSt7__cxx1112basic_stringIcSt11char_traitsIcESaIcEEE
libkicommon.so.9.0.1:_ZN15KICAD_CURL_EASY6SetURLERKNSt7__cxx1112basic_stringIcSt11char_traitsIcESaIcEEE
libkicommon.so.9.0.1:_ZN15KICAD_CURL_EASY7PerformEv
libkicommon.so.9.0.1:_ZN15KICAD_CURL_EASY9SetHeaderERKNSt7__cxx1112basic_stringIcSt11char_traitsIcESaIcEEES7_
libkicommon.so.9.0.1:_ZN15KICAD_CURL_EASYC1Ev
libkicommon.so.9.0.1:_ZN15KICAD_CURL_EASYC2Ev
libkicommon.so.9.0.1:_ZN15KICAD_CURL_EASYD1Ev
libkicommon.so.9.0.1:_ZN15KICAD_CURL_EASYD2Ev
libkicommon.so.9.0.1:_ZN15LIB_TABLE_LEXER9TokenNameEN11LIB_TABLE_T1TE
libkicommon.so.9.0.1:_ZN15NESTED_SETTINGS10SaveToFileERK8wxStringb
libkicommon.so.9.0.1:_ZN15NESTED_SETTINGS12LoadFromFileERK8wxString
libkicommon.so.9.0.1:_ZN15NESTED_SETTINGS9SetParentEP13JSON_SETTINGSb
libkicommon.so.9.0.1:_ZN15NESTED_SETTINGSC1ERKNSt7__cxx1112basic_stringIcSt11char_traitsIcESaIcEEEiP13JSON_SETTINGSS7_b
libkicommon.so.9.0.1:_ZN15NESTED_SETTINGSC2ERKNSt7__cxx1112basic_stringIcSt11char_traitsIcESaIcEEEiP13JSON_SETTINGSS7_b
libkicommon.so.9.0.1:_ZN15NESTED_SETTINGSD0Ev
libkicommon.so.9.0.1:_ZN15NESTED_SETTINGSD1Ev
libkicommon.so.9.0.1:_ZN15NESTED_SETTINGSD2Ev
libkicommon.so.9.0.1:_ZN15OUTPUTFORMATTER12GetQuoteCharEPKcS1_
libkicommon.so.9.0.1:_ZN15OUTPUTFORMATTER5PrintEPKcz
libkicommon.so.9.0.1:_ZN15OUTPUTFORMATTER5PrintEiPKcz
libkicommon.so.9.0.1:_ZN15OUTPUTFORMATTER6sprintEPKcz
libkicommon.so.9.0.1:_ZN15OUTPUTFORMATTER6vprintEPKcP13__va_list_tag
libkicommon.so.9.0.1:_ZN15STDOUT_REPORTER11GetInstanceEv
libkicommon.so.9.0.1:_ZN15STDOUT_REPORTER6ReportERK8wxString8SEVERITY
libkicommon.so.9.0.1:_ZN16FILE_LINE_READER10FileLengthEv
libkicommon.so.9.0.1:_ZN16FILE_LINE_READER6CurPosEv
libkicommon.so.9.0.1:_ZN16FILE_LINE_READER8ReadLineEv
libkicommon.so.9.0.1:_ZN16FILE_LINE_READERC1EP8_IO_FILERK8wxStringbjj
libkicommon.so.9.0.1:_ZN16FILE_LINE_READERC1ERK8wxStringjj
libkicommon.so.9.0.1:_ZN16FILE_LINE_READERC2EP8_IO_FILERK8wxStringbjj
libkicommon.so.9.0.1:_ZN16FILE_LINE_READERC2ERK8wxStringjj
libkicommon.so.9.0.1:_ZN16FILE_LINE_READERD0Ev
libkicommon.so.9.0.1:_ZN16FILE_LINE_READERD1Ev
libkicommon.so.9.0.1:_ZN16FILE_LINE_READERD2Ev
libkicommon.so.9.0.1:_ZN16KICAD_API_SERVER12onApiRequestEPNSt7__cxx1112basic_stringIcSt11char_traitsIcESaIcEEE
libkicommon.so.9.0.1:_ZN16KICAD_API_SERVER14handleApiEventER14wxCommandEvent
libkicommon.so.9.0.1:_ZN16KICAD_API_SERVER15RegisterHandlerEP11API_HANDLER
libkicommon.so.9.0.1:_ZN16KICAD_API_SERVER17DeregisterHandlerEP11API_HANDLER
libkicommon.so.9.0.1:_ZN16KICAD_API_SERVER3logERKNSt7__cxx1112basic_stringIcSt11char_traitsIcESaIcEEE
libkicommon.so.9.0.1:_ZN16KICAD_API_SERVER4StopEv
libkicommon.so.9.0.1:_ZN16KICAD_API_SERVER5StartEv
libkicommon.so.9.0.1:_ZN16KICAD_API_SERVERC1Ev
libkicommon.so.9.0.1:_ZN16KICAD_API_SERVERC2Ev
libkicommon.so.9.0.1:_ZN16KICAD_API_SERVERD0Ev
libkicommon.so.9.0.1:_ZN16KICAD_API_SERVERD1Ev
libkicommon.so.9.0.1:_ZN16KICAD_API_SERVERD2Ev
libkicommon.so.9.0.1:_ZN16PARAM_CFG_DOUBLEC1ERK8wxStringPddddPKw
libkicommon.so.9.0.1:_ZN16PARAM_CFG_DOUBLEC1EbRK8wxStringPddddPKw
libkicommon.so.9.0.1:_ZN16PARAM_CFG_DOUBLEC2ERK8wxStringPddddPKw
libkicommon.so.9.0.1:_ZN16PARAM_CFG_DOUBLEC2EbRK8wxStringPddddPKw
libkicommon.so.9.0.1:_ZN16PARAM_VIEWPORT3D15jsonToViewportsERKN8nlohmann16json_abi_v3_11_310basic_jsonISt3mapSt6vectorNSt7__cxx1112basic_stringIcSt11char_traitsIcESaIcEEEblmdSaNS1_14adl_serializerES4_IhSaIhEEvEE
libkicommon.so.9.0.1:_ZN16PARAM_VIEWPORT3D15viewportsToJsonB5cxx11Ev
libkicommon.so.9.0.1:_ZN16PARAM_VIEWPORT3DC1ERKNSt7__cxx1112basic_stringIcSt11char_traitsIcESaIcEEEPSt6vectorI10VIEWPORT3DSaIS9_EE
libkicommon.so.9.0.1:_ZN16PARAM_VIEWPORT3DC2ERKNSt7__cxx1112basic_stringIcSt11char_traitsIcESaIcEEEPSt6vectorI10VIEWPORT3DSaIS9_EE
libkicommon.so.9.0.1:_ZN16PROJECT_ARCHIVER23AreZipArchivesIdenticalERK8wxStringS2_R8REPORTER
libkicommon.so.9.0.1:_ZN16PROJECT_ARCHIVER7ArchiveERK8wxStringS2_R8REPORTERbb
libkicommon.so.9.0.1:_ZN16PROJECT_ARCHIVER9UnarchiveERK8wxStringS2_R8REPORTER
libkicommon.so.9.0.1:_ZN16PROJECT_ARCHIVERC1Ev
libkicommon.so.9.0.1:_ZN16PROJECT_ARCHIVERC2Ev
libkicommon.so.9.0.1:_ZN16SETTINGS_MANAGER11LoadProjectERK8wxStringb
libkicommon.so.9.0.1:_ZN16SETTINGS_MANAGER11SaveProjectERK8wxStringP7PROJECT
libkicommon.so.9.0.1:_ZN16SETTINGS_MANAGER13SaveProjectAsERK8wxStringP7PROJECT
libkicommon.so.9.0.1:_ZN16SETTINGS_MANAGER13UnloadProjectEP7PROJECTb
libkicommon.so.9.0.1:_ZN16SETTINGS_MANAGER14extractVersionERKNSt7__cxx1112basic_stringIcSt11char_traitsIcESaIcEEEPiS8_
libkicommon.so.9.0.1:_ZN16SETTINGS_MANAGER15FlushAndReleaseEP13JSON_SETTINGSb
libkicommon.so.9.0.1:_ZN16SETTINGS_MANAGER15MigrateIfNeededEv
libkicommon.so.9.0.1:_ZN16SETTINGS_MANAGER15SaveProjectCopyERK8wxStringP7PROJECT
libkicommon.so.9.0.1:_ZN16SETTINGS_MANAGER15compareVersionsERKNSt7__cxx1112basic_stringIcSt11char_traitsIcESaIcEEES7_
libkicommon.so.9.0.1:_ZN16SETTINGS_MANAGER15loadProjectFileER7PROJECT
libkicommon.so.9.0.1:_ZN16SETTINGS_MANAGER16GetColorSettingsERK8wxString
libkicommon.so.9.0.1:_ZN16SETTINGS_MANAGER16registerSettingsEP13JSON_SETTINGSb
libkicommon.so.9.0.1:_ZN16SETTINGS_MANAGER17SaveColorSettingsEP14COLOR_SETTINGSRKNSt7__cxx1112basic_stringIcSt11char_traitsIcESaIcEEE
libkicommon.so.9.0.1:_ZN16SETTINGS_MANAGER17unloadProjectFileEP7PROJECTb
libkicommon.so.9.0.1:_ZN16SETTINGS_MANAGER18GetSettingsVersionB5cxx11Ev
libkicommon.so.9.0.1:_ZN16SETTINGS_MANAGER19AddNewColorSettingsERK8wxString
libkicommon.so.9.0.1:_ZN16SETTINGS_MANAGER19GetUserSettingsPathEv
libkicommon.so.9.0.1:_ZN16SETTINGS_MANAGER19IsSettingsPathValidERK8wxString
libkicommon.so.9.0.1:_ZN16SETTINGS_MANAGER19ReloadColorSettingsEv
libkicommon.so.9.0.1:_ZN16SETTINGS_MANAGER20GetColorSettingsPathEv
libkicommon.so.9.0.1:_ZN16SETTINGS_MANAGER20loadAllColorSettingsEv
libkicommon.so.9.0.1:_ZN16SETTINGS_MANAGER21registerColorSettingsERK8wxStringb
libkicommon.so.9.0.1:_ZN16SETTINGS_MANAGER22GetPathForSettingsFileEP13JSON_SETTINGS
libkicommon.so.9.0.1:_ZN16SETTINGS_MANAGER23GetPreviousVersionPathsEPSt6vectorI8wxStringSaIS1_EE
libkicommon.so.9.0.1:_ZN16SETTINGS_MANAGER23loadColorSettingsByNameERK8wxString
libkicommon.so.9.0.1:_ZN16SETTINGS_MANAGER24GetMigratedColorSettingsEv
libkicommon.so.9.0.1:_ZN16SETTINGS_MANAGER28registerBuiltinColorSettingsEv
libkicommon.so.9.0.1:_ZN16SETTINGS_MANAGER4LoadEP13JSON_SETTINGS
libkicommon.so.9.0.1:_ZN16SETTINGS_MANAGER4LoadEv
libkicommon.so.9.0.1:_ZN16SETTINGS_MANAGER4SaveEP13JSON_SETTINGS
libkicommon.so.9.0.1:_ZN16SETTINGS_MANAGER4SaveEv
libkicommon.so.9.0.1:_ZN16SETTINGS_MANAGERC1Eb
libkicommon.so.9.0.1:_ZN16SETTINGS_MANAGERC2Eb
libkicommon.so.9.0.1:_ZN16SETTINGS_MANAGERD1Ev
libkicommon.so.9.0.1:_ZN16SETTINGS_MANAGERD2Ev
libkicommon.so.9.0.1:_ZN16STRING_FORMATTER12StripUselessEv
libkicommon.so.9.0.1:_ZN16STRING_FORMATTER5writeEPKci
libkicommon.so.9.0.1:_ZN17APP_SETTINGS_BASE17MigrateFromLegacyEP12wxConfigBase
libkicommon.so.9.0.1:_ZN17APP_SETTINGS_BASE18addParamsForWindowEP15WINDOW_SETTINGSRKNSt7__cxx1112basic_stringIcSt11char_traitsIcESaIcEEE
libkicommon.so.9.0.1:_ZN17APP_SETTINGS_BASE18migrateFindReplaceEP12wxConfigBase
libkicommon.so.9.0.1:_ZN17APP_SETTINGS_BASE19migrateLibTreeWidthEv
libkicommon.so.9.0.1:_ZN17APP_SETTINGS_BASE19migrateWindowConfigEP12wxConfigBaseRKNSt7__cxx1112basic_stringIcSt11char_traitsIcESaIcEEES9_
libkicommon.so.9.0.1:_ZN17APP_SETTINGS_BASEC1ERKNSt7__cxx1112basic_stringIcSt11char_traitsIcESaIcEEEi
libkicommon.so.9.0.1:_ZN17APP_SETTINGS_BASEC2ERKNSt7__cxx1112basic_stringIcSt11char_traitsIcESaIcEEEi
libkicommon.so.9.0.1:_ZN17DESIGN_BLOCK_INFO14GetSearchTermsEv
libkicommon.so.9.0.1:_ZN17DESIGN_BLOCK_LIST18GetDesignBlockInfoERK8wxString
libkicommon.so.9.0.1:_ZN17DESIGN_BLOCK_LIST18GetDesignBlockInfoERK8wxStringS2_
libkicommon.so.9.0.1:_ZN17JOB_EXPORT_PCB_3D13SetStepFormatEN20EXPORTER_STEP_PARAMS6FORMATE
libkicommon.so.9.0.1:_ZN17JOB_EXPORT_PCB_3DC1Ev
libkicommon.so.9.0.1:_ZN17JOB_EXPORT_PCB_3DC2Ev
libkicommon.so.9.0.1:_ZN17JOB_FP_EXPORT_SVGC1Ev
libkicommon.so.9.0.1:_ZN17JOB_FP_EXPORT_SVGC2Ev
libkicommon.so.9.0.1:_ZN17NUMERIC_EVALUATOR10parseErrorEPKc
libkicommon.so.9.0.1:_ZN17NUMERIC_EVALUATOR13LocaleChangedEv
libkicommon.so.9.0.1:_ZN17NUMERIC_EVALUATOR14parseSetResultEd
libkicommon.so.9.0.1:_ZN17NUMERIC_EVALUATOR15SetDefaultUnitsE9EDA_UNITS
libkicommon.so.9.0.1:_ZN17NUMERIC_EVALUATOR5ClearEv
libkicommon.so.9.0.1:_ZN17NUMERIC_EVALUATOR6GetVarERK8wxString
libkicommon.so.9.0.1:_ZN17NUMERIC_EVALUATOR6SetVarERK8wxStringd
libkicommon.so.9.0.1:_ZN17NUMERIC_EVALUATOR7ProcessERK8wxString
libkicommon.so.9.0.1:_ZN17NUMERIC_EVALUATOR7parseOkEv
libkicommon.so.9.0.1:_ZN17NUMERIC_EVALUATOR8getTokenEv
libkicommon.so.9.0.1:_ZN17NUMERIC_EVALUATOR9newStringERK8wxString
libkicommon.so.9.0.1:_ZN17NUMERIC_EVALUATORC1E9EDA_UNITS
libkicommon.so.9.0.1:_ZN17NUMERIC_EVALUATORC2E9EDA_UNITS
libkicommon.so.9.0.1:_ZN17NUMERIC_EVALUATORD1Ev
libkicommon.so.9.0.1:_ZN17NUMERIC_EVALUATORD2Ev
libkicommon.so.9.0.1:_ZN17PARAM_LAYER_PAIRS16jsonToLayerPairsERKN8nlohmann16json_abi_v3_11_310basic_jsonISt3mapSt6vectorNSt7__cxx1112basic_stringIcSt11char_traitsIcESaIcEEEblmdSaNS1_14adl_serializerES4_IhSaIhEEvEE
libkicommon.so.9.0.1:_ZN17PARAM_LAYER_PAIRS16layerPairsToJsonB5cxx11Ev
libkicommon.so.9.0.1:_ZN17PARAM_LAYER_PAIRSC1ERKNSt7__cxx1112basic_stringIcSt11char_traitsIcESaIcEEERSt6vectorI15LAYER_PAIR_INFOSaIS9_EE
libkicommon.so.9.0.1:_ZN17PARAM_LAYER_PAIRSC2ERKNSt7__cxx1112basic_stringIcSt11char_traitsIcESaIcEEERSt6vectorI15LAYER_PAIR_INFOSaIS9_EE
libkicommon.so.9.0.1:_ZN17STD_BITMAP_BUTTON11OnKillFocusER12wxFocusEvent
libkicommon.so.9.0.1:_ZN17STD_BITMAP_BUTTON12OnMouseEnterER12wxMouseEvent
libkicommon.so.9.0.1:_ZN17STD_BITMAP_BUTTON12OnMouseLeaveER12wxMouseEvent
libkicommon.so.9.0.1:_ZN17STD_BITMAP_BUTTON14OnLeftButtonUpER12wxMouseEvent
libkicommon.so.9.0.1:_ZN17STD_BITMAP_BUTTON14onThemeChangedER23wxSysColourChangedEvent
libkicommon.so.9.0.1:_ZN17STD_BITMAP_BUTTON16OnLeftButtonDownER12wxMouseEvent
libkicommon.so.9.0.1:_ZN17STD_BITMAP_BUTTON6EnableEb
libkicommon.so.9.0.1:_ZN17STD_BITMAP_BUTTON7OnPaintER12wxPaintEvent
libkicommon.so.9.0.1:_ZN17STD_BITMAP_BUTTON9SetBitmapERK14wxBitmapBundle
libkicommon.so.9.0.1:_ZN17STD_BITMAP_BUTTONC1EP8wxWindowiRK8wxBitmapRK7wxPointRK6wxSizei
libkicommon.so.9.0.1:_ZN17STD_BITMAP_BUTTONC2EP8wxWindowiRK8wxBitmapRK7wxPointRK6wxSizei
libkicommon.so.9.0.1:_ZN17STD_BITMAP_BUTTOND0Ev
libkicommon.so.9.0.1:_ZN17STD_BITMAP_BUTTOND1Ev
libkicommon.so.9.0.1:_ZN17STD_BITMAP_BUTTOND2Ev
libkicommon.so.9.0.1:_ZN18API_PLUGIN_MANAGER12InvokeActionERK8wxString
libkicommon.so.9.0.1:_ZN18API_PLUGIN_MANAGER13ReloadPluginsEv
libkicommon.so.9.0.1:_ZN18API_PLUGIN_MANAGER14processNextJobER14wxCommandEvent
libkicommon.so.9.0.1:_ZN18API_PLUGIN_MANAGER18GetActionsForScopeE19PLUGIN_ACTION_SCOPE
libkicommon.so.9.0.1:_ZN18API_PLUGIN_MANAGER25RecreatePluginEnvironmentERK8wxString
libkicommon.so.9.0.1:_ZN18API_PLUGIN_MANAGER25processPluginDependenciesEv
libkicommon.so.9.0.1:_ZN18API_PLUGIN_MANAGER9GetActionERK8wxString
libkicommon.so.9.0.1:_ZN18API_PLUGIN_MANAGERC1EP12wxEvtHandler
libkicommon.so.9.0.1:_ZN18API_PLUGIN_MANAGERC2EP12wxEvtHandler
libkicommon.so.9.0.1:_ZN18DIALOG_RC_JOB_BASEC1EP8wxWindowiRK8wxStringRK7wxPointRK6wxSizel
libkicommon.so.9.0.1:_ZN18DIALOG_RC_JOB_BASEC2EP8wxWindowiRK8wxStringRK7wxPointRK6wxSizel
libkicommon.so.9.0.1:_ZN18DIALOG_RC_JOB_BASED0Ev
libkicommon.so.9.0.1:_ZN18DIALOG_RC_JOB_BASED1Ev
libkicommon.so.9.0.1:_ZN18DIALOG_RC_JOB_BASED2Ev
libkicommon.so.9.0.1:_ZN18DPI_SCALING_COMMON12SetDpiConfigEbd
libkicommon.so.9.0.1:_ZN18DPI_SCALING_COMMONC1EP15COMMON_SETTINGSPK8wxWindow
libkicommon.so.9.0.1:_ZN18DPI_SCALING_COMMONC2EP15COMMON_SETTINGSPK8wxWindow
libkicommon.so.9.0.1:_ZN18GL_CONTEXT_MANAGER10DestroyCtxEP11wxGLContext
libkicommon.so.9.0.1:_ZN18GL_CONTEXT_MANAGER7LockCtxEP11wxGLContextP10wxGLCanvas
libkicommon.so.9.0.1:_ZN18GL_CONTEXT_MANAGER9CreateCtxEP10wxGLCanvasPK11wxGLContext
libkicommon.so.9.0.1:_ZN18GL_CONTEXT_MANAGER9DeleteAllEv
libkicommon.so.9.0.1:_ZN18GL_CONTEXT_MANAGER9UnlockCtxEP11wxGLContext
libkicommon.so.9.0.1:_ZN18JOBSET_DESTINATION14SetDescriptionERK8wxString
libkicommon.so.9.0.1:_ZN18JOBSET_DESTINATION17InitOutputHandlerEv
libkicommon.so.9.0.1:_ZN18JOBSET_DESTINATIONC1ERK8wxString20JOBSET_DESTINATION_T
libkicommon.so.9.0.1:_ZN18JOBSET_DESTINATIONC1Ev
libkicommon.so.9.0.1:_ZN18JOBSET_DESTINATIONC2ERK8wxString20JOBSET_DESTINATION_T
libkicommon.so.9.0.1:_ZN18JOBSET_DESTINATIONC2Ev
libkicommon.so.9.0.1:_ZN18JOBSET_DESTINATIOND1Ev
libkicommon.so.9.0.1:_ZN18JOBSET_DESTINATIOND2Ev
libkicommon.so.9.0.1:_ZN18JOB_EXPORT_PCB_DXFC1Ev
libkicommon.so.9.0.1:_ZN18JOB_EXPORT_PCB_DXFC2Ev
libkicommon.so.9.0.1:_ZN18JOB_EXPORT_PCB_ODB20SetDefaultOutputPathERK8wxString
libkicommon.so.9.0.1:_ZN18JOB_EXPORT_PCB_ODBC1Ev
libkicommon.so.9.0.1:_ZN18JOB_EXPORT_PCB_ODBC2Ev
libkicommon.so.9.0.1:_ZN18JOB_EXPORT_PCB_PDFC1Ev
libkicommon.so.9.0.1:_ZN18JOB_EXPORT_PCB_PDFC2Ev
libkicommon.so.9.0.1:_ZN18JOB_EXPORT_PCB_POS20SetDefaultOutputPathERK8wxString
libkicommon.so.9.0.1:_ZN18JOB_EXPORT_PCB_POSC1Ev
libkicommon.so.9.0.1:_ZN18JOB_EXPORT_PCB_POSC2Ev
libkicommon.so.9.0.1:_ZN18JOB_EXPORT_PCB_SVGC1Ev
libkicommon.so.9.0.1:_ZN18JOB_EXPORT_PCB_SVGC2Ev
libkicommon.so.9.0.1:_ZN18JOB_EXPORT_SCH_BOMC1Ev
libkicommon.so.9.0.1:_ZN18JOB_EXPORT_SCH_BOMC2Ev
libkicommon.so.9.0.1:_ZN18JOB_SYM_EXPORT_SVGC1Ev
libkicommon.so.9.0.1:_ZN18JOB_SYM_EXPORT_SVGC2Ev
libkicommon.so.9.0.1:_ZN18PARAM_CFG_FILENAMEC1ERK8wxStringPS0_PKw
libkicommon.so.9.0.1:_ZN18PARAM_CFG_FILENAMEC2ERK8wxStringPS0_PKw
libkicommon.so.9.0.1:_ZN18PARAM_CFG_WXSTRINGC1ERK8wxStringPS0_PKw
libkicommon.so.9.0.1:_ZN18PARAM_CFG_WXSTRINGC1EbRK8wxStringPS0_S2_PKw
libkicommon.so.9.0.1:_ZN18PARAM_CFG_WXSTRINGC2ERK8wxStringPS0_PKw
libkicommon.so.9.0.1:_ZN18PARAM_CFG_WXSTRINGC2EbRK8wxStringPS0_S2_PKw
libkicommon.so.9.0.1:_ZN18PARAM_LAYER_PRESET13jsonToPresetsERKN8nlohmann16json_abi_v3_11_310basic_jsonISt3mapSt6vectorNSt7__cxx1112basic_stringIcSt11char_traitsIcESaIcEEEblmdSaNS1_14adl_serializerES4_IhSaIhEEvEE
libkicommon.so.9.0.1:_ZN18PARAM_LAYER_PRESET13presetsToJsonB5cxx11Ev
libkicommon.so.9.0.1:_ZN18PARAM_LAYER_PRESET17MigrateToV9LayersERN8nlohmann16json_abi_v3_11_310basic_jsonISt3mapSt6vectorNSt7__cxx1112basic_stringIcSt11char_traitsIcESaIcEEEblmdSaNS1_14adl_serializerES4_IhSaIhEEvEE
libkicommon.so.9.0.1:_ZN18PARAM_LAYER_PRESET26MigrateToNamedRenderLayersERN8nlohmann16json_abi_v3_11_310basic_jsonISt3mapSt6vectorNSt7__cxx1112basic_stringIcSt11char_traitsIcESaIcEEEblmdSaNS1_14adl_serializerES4_IhSaIhEEvEE
libkicommon.so.9.0.1:_ZN18PARAM_LAYER_PRESETC1ERKNSt7__cxx1112basic_stringIcSt11char_traitsIcESaIcEEEPSt6vectorI12LAYER_PRESETSaIS9_EE
libkicommon.so.9.0.1:_ZN18PARAM_LAYER_PRESETC2ERKNSt7__cxx1112basic_stringIcSt11char_traitsIcESaIcEEEPSt6vectorI12LAYER_PRESETSaIS9_EE
libkicommon.so.9.0.1:_ZN18STATUSBAR_REPORTER6ReportERK8wxString8SEVERITY
libkicommon.so.9.0.1:_ZN18STRING_LINE_READER8ReadLineEv
libkicommon.so.9.0.1:_ZN18STRING_LINE_READERC1ERKNSt7__cxx1112basic_stringIcSt11char_traitsIcESaIcEEERK8wxString
libkicommon.so.9.0.1:_ZN18STRING_LINE_READERC1ERKS_
libkicommon.so.9.0.1:_ZN18STRING_LINE_READERC2ERKNSt7__cxx1112basic_stringIcSt11char_traitsIcESaIcEEERK8wxString
libkicommon.so.9.0.1:_ZN18STRING_LINE_READERC2ERKS_
libkicommon.so.9.0.1:_ZN18WX_STRING_REPORTER5ClearEv
libkicommon.so.9.0.1:_ZN18WX_STRING_REPORTER6ReportERK8wxString8SEVERITY
libkicommon.so.9.0.1:_ZN19DESIGN_BLOCK_IO_MGR10FindPluginENS_19DESIGN_BLOCK_FILE_TE
libkicommon.so.9.0.1:_ZN19DESIGN_BLOCK_IO_MGR11EnumFromStrERK8wxString
libkicommon.so.9.0.1:_ZN19DESIGN_BLOCK_IO_MGR14ConvertLibraryEPSt3mapINSt7__cxx1112basic_stringIcSt11char_traitsIcESaIcEEE4UTF8St4lessIS6_ESaISt4pairIKS6_S7_EEERK8wxStringSI_
libkicommon.so.9.0.1:_ZN19DESIGN_BLOCK_IO_MGR26GuessPluginTypeFromLibPathERK8wxStringi
libkicommon.so.9.0.1:_ZN19DESIGN_BLOCK_IO_MGR8ShowTypeENS_19DESIGN_BLOCK_FILE_TE
libkicommon.so.9.0.1:_ZN19DRAWING_SHEET_LEXER9TokenNameEN14DRAWINGSHEET_T1TE
libkicommon.so.9.0.1:_ZN19FUTURE_FORMAT_ERROR4initERK8wxStringS2_
libkicommon.so.9.0.1:_ZN19FUTURE_FORMAT_ERRORC1ERK11PARSE_ERRORRK8wxStringS5_
libkicommon.so.9.0.1:_ZN19FUTURE_FORMAT_ERRORC1ERK8wxStringS2_
libkicommon.so.9.0.1:_ZN19FUTURE_FORMAT_ERRORC2ERK11PARSE_ERRORRK8wxStringS5_
libkicommon.so.9.0.1:_ZN19FUTURE_FORMAT_ERRORC2ERK8wxStringS2_
libkicommon.so.9.0.1:_ZN19JOBS_OUTPUT_ARCHIVE13HandleOutputsERK8wxStringP7PROJECTRKSt6vectorI10JOB_OUTPUTSaIS6_EE
libkicommon.so.9.0.1:_ZN19JOBS_OUTPUT_ARCHIVE14OutputPrecheckEv
libkicommon.so.9.0.1:_ZN19JOBS_OUTPUT_ARCHIVE8FromJsonERKN8nlohmann16json_abi_v3_11_310basic_jsonISt3mapSt6vectorNSt7__cxx1112basic_stringIcSt11char_traitsIcESaIcEEEblmdSaNS1_14adl_serializerES4_IhSaIhEEvEE
libkicommon.so.9.0.1:_ZN19JOBS_OUTPUT_ARCHIVEC1Ev
libkicommon.so.9.0.1:_ZN19JOBS_OUTPUT_ARCHIVEC2Ev
libkicommon.so.9.0.1:_ZN19JOB_EXPORT_PCB_PLOTC1ENS_11PLOT_FORMATERKNSt7__cxx1112basic_stringIcSt11char_traitsIcESaIcEEEb
libkicommon.so.9.0.1:_ZN19JOB_EXPORT_PCB_PLOTC2ENS_11PLOT_FORMATERKNSt7__cxx1112basic_stringIcSt11char_traitsIcESaIcEEEb
libkicommon.so.9.0.1:_ZN19JOB_EXPORT_SCH_PLOTC1Eb
libkicommon.so.9.0.1:_ZN19JOB_EXPORT_SCH_PLOTC2Eb
libkicommon.so.9.0.1:_ZN19JOB_SPECIAL_EXECUTEC1Ev
libkicommon.so.9.0.1:_ZN19JOB_SPECIAL_EXECUTEC2Ev
libkicommon.so.9.0.1:_ZN19STROKE_PARAMS_LEXER9TokenNameEN14STROKEPARAMS_T1TE
libkicommon.so.9.0.1:_ZN20EDA_COMBINED_MATCHER10AddMatcherERK8wxStringSt10unique_ptrI17EDA_PATTERN_MATCHSt14default_deleteIS4_EE
libkicommon.so.9.0.1:_ZN20EDA_COMBINED_MATCHER10ScoreTermsERSt6vectorI11SEARCH_TERMSaIS1_EE
libkicommon.so.9.0.1:_ZN20EDA_COMBINED_MATCHER10StartsWithERK8wxString
libkicommon.so.9.0.1:_ZN20EDA_COMBINED_MATCHER4FindERK8wxString
libkicommon.so.9.0.1:_ZN20EDA_COMBINED_MATCHER4FindERK8wxStringRiS3_
libkicommon.so.9.0.1:_ZN20EDA_COMBINED_MATCHERC1ERK8wxString24COMBINED_MATCHER_CONTEXT
libkicommon.so.9.0.1:_ZN20EDA_COMBINED_MATCHERC2ERK8wxString24COMBINED_MATCHER_CONTEXT
libkicommon.so.9.0.1:_ZN20EMBEDDED_FILES_LEXER9TokenNameEN16EMBEDDED_FILES_T1TE
libkicommon.so.9.0.1:_ZN20FILE_OUTPUTFORMATTER5writeEPKci
libkicommon.so.9.0.1:_ZN20FILE_OUTPUTFORMATTERC1ERK8wxStringPKwc
libkicommon.so.9.0.1:_ZN20FILE_OUTPUTFORMATTERC2ERK8wxStringPKwc
libkicommon.so.9.0.1:_ZN20FILE_OUTPUTFORMATTERD0Ev
libkicommon.so.9.0.1:_ZN20FILE_OUTPUTFORMATTERD1Ev
libkicommon.so.9.0.1:_ZN20FILE_OUTPUTFORMATTERD2Ev
libkicommon.so.9.0.1:_ZN20JOB_EXPORT_PCB_DRILLC1Ev
libkicommon.so.9.0.1:_ZN20JOB_EXPORT_PCB_DRILLC2Ev
libkicommon.so.9.0.1:_ZN20WX_HTML_REPORT_PANEL11GetFileNameEv
libkicommon.so.9.0.1:_ZN20WX_HTML_REPORT_PANEL11SetFileNameERK8wxString
libkicommon.so.9.0.1:_ZN20WX_HTML_REPORT_PANEL11onMenuEventER11wxMenuEvent
libkicommon.so.9.0.1:_ZN20WX_HTML_REPORT_PANEL12generateHtmlERKNS_11REPORT_LINEE
libkicommon.so.9.0.1:_ZN20WX_HTML_REPORT_PANEL12onRightClickER12wxMouseEvent
libkicommon.so.9.0.1:_ZN20WX_HTML_REPORT_PANEL12updateBadgesEv
libkicommon.so.9.0.1:_ZN20WX_HTML_REPORT_PANEL13SetLazyUpdateEb
libkicommon.so.9.0.1:_ZN20WX_HTML_REPORT_PANEL14onThemeChangedER23wxSysColourChangedEvent
libkicommon.so.9.0.1:_ZN20WX_HTML_REPORT_PANEL14scrollToBottomEv
libkicommon.so.9.0.1:_ZN20WX_HTML_REPORT_PANEL14syncCheckboxesEv
libkicommon.so.9.0.1:_ZN20WX_HTML_REPORT_PANEL15SetShowSeverityE8SEVERITYb
libkicommon.so.9.0.1:_ZN20WX_HTML_REPORT_PANEL15onBtnSaveToFileER14wxCommandEvent
libkicommon.so.9.0.1:_ZN20WX_HTML_REPORT_PANEL17generatePlainTextERKNS_11REPORT_LINEE
libkicommon.so.9.0.1:_ZN20WX_HTML_REPORT_PANEL17onCheckBoxShowAllER14wxCommandEvent
libkicommon.so.9.0.1:_ZN20WX_HTML_REPORT_PANEL18MsgPanelSetMinSizeERK6wxSize
libkicommon.so.9.0.1:_ZN20WX_HTML_REPORT_PANEL19onCheckBoxShowInfosER14wxCommandEvent
libkicommon.so.9.0.1:_ZN20WX_HTML_REPORT_PANEL20SetVisibleSeveritiesEi
libkicommon.so.9.0.1:_ZN20WX_HTML_REPORT_PANEL20onCheckBoxShowErrorsER14wxCommandEvent
libkicommon.so.9.0.1:_ZN20WX_HTML_REPORT_PANEL21onCheckBoxShowActionsER14wxCommandEvent
libkicommon.so.9.0.1:_ZN20WX_HTML_REPORT_PANEL22onCheckBoxShowWarningsER14wxCommandEvent
libkicommon.so.9.0.1:_ZN20WX_HTML_REPORT_PANEL5ClearEv
libkicommon.so.9.0.1:_ZN20WX_HTML_REPORT_PANEL5CountEi
libkicommon.so.9.0.1:_ZN20WX_HTML_REPORT_PANEL5FlushEb
libkicommon.so.9.0.1:_ZN20WX_HTML_REPORT_PANEL6ReportERK8wxString8SEVERITYN8REPORTER8LOCATIONE
libkicommon.so.9.0.1:_ZN20WX_HTML_REPORT_PANEL8ReporterEv
libkicommon.so.9.0.1:_ZN20WX_HTML_REPORT_PANEL8SetLabelERK8wxString
libkicommon.so.9.0.1:_ZN20WX_HTML_REPORT_PANELC1EP8wxWindowiRK7wxPointRK6wxSizel
libkicommon.so.9.0.1:_ZN20WX_HTML_REPORT_PANELC2EP8wxWindowiRK7wxPointRK6wxSizel
libkicommon.so.9.0.1:_ZN20WX_HTML_REPORT_PANELD0Ev
libkicommon.so.9.0.1:_ZN20WX_HTML_REPORT_PANELD1Ev
libkicommon.so.9.0.1:_ZN20WX_HTML_REPORT_PANELD2Ev
libkicommon.so.9.0.1:_ZN21CLI_PROGRESS_REPORTER11GetInstanceEv
libkicommon.so.9.0.1:_ZN21CLI_PROGRESS_REPORTER12AdvancePhaseERK8wxString
libkicommon.so.9.0.1:_ZN21CLI_PROGRESS_REPORTER6ReportERK8wxString
libkicommon.so.9.0.1:_ZN21CLI_PROGRESS_REPORTER9printLineERK8wxString
libkicommon.so.9.0.1:_ZN21DATABASE_LIB_SETTINGSC1ERKNSt7__cxx1112basic_stringIcSt11char_traitsIcESaIcEEE
libkicommon.so.9.0.1:_ZN21DATABASE_LIB_SETTINGSC2ERKNSt7__cxx1112basic_stringIcSt11char_traitsIcESaIcEEE
libkicommon.so.9.0.1:_ZN21JOB_EXPORT_PCB_GENCADC1Ev
libkicommon.so.9.0.1:_ZN21JOB_EXPORT_PCB_GENCADC2Ev
libkicommon.so.9.0.1:_ZN21JOB_EXPORT_PCB_GERBERC1ERKNSt7__cxx1112basic_stringIcSt11char_traitsIcESaIcEEE
libkicommon.so.9.0.1:_ZN21JOB_EXPORT_PCB_GERBERC1Ev
libkicommon.so.9.0.1:_ZN21JOB_EXPORT_PCB_GERBERC2ERKNSt7__cxx1112basic_stringIcSt11char_traitsIcESaIcEEE
libkicommon.so.9.0.1:_ZN21JOB_EXPORT_PCB_GERBERC2Ev
libkicommon.so.9.0.1:_ZN21JOB_SPECIAL_COPYFILESC1Ev
libkicommon.so.9.0.1:_ZN21JOB_SPECIAL_COPYFILESC2Ev
libkicommon.so.9.0.1:_ZN21JSON_SCHEMA_VALIDATORC1ERK10wxFileName
libkicommon.so.9.0.1:_ZN21JSON_SCHEMA_VALIDATORC2ERK10wxFileName
libkicommon.so.9.0.1:_ZN21NOTIFICATIONS_MANAGER14CreateOrUpdateERK8wxStringS2_S2_S2_
libkicommon.so.9.0.1:_ZN21NOTIFICATIONS_MANAGER17RegisterStatusBarEP11KISTATUSBAR
libkicommon.so.9.0.1:_ZN21NOTIFICATIONS_MANAGER18onListWindowClosedER12wxCloseEvent
libkicommon.so.9.0.1:_ZN21NOTIFICATIONS_MANAGER19UnregisterStatusBarEP11KISTATUSBAR
libkicommon.so.9.0.1:_ZN21NOTIFICATIONS_MANAGER4LoadEv
libkicommon.so.9.0.1:_ZN21NOTIFICATIONS_MANAGER4SaveEv
libkicommon.so.9.0.1:_ZN21NOTIFICATIONS_MANAGER6RemoveERK8wxString
libkicommon.so.9.0.1:_ZN21NOTIFICATIONS_MANAGER8ShowListEP8wxWindow7wxPoint
libkicommon.so.9.0.1:_ZN21NOTIFICATIONS_MANAGERC1Ev
libkicommon.so.9.0.1:_ZN21NOTIFICATIONS_MANAGERC2Ev
libkicommon.so.9.0.1:_ZN21WX_TEXT_CTRL_REPORTER6ReportERK8wxString8SEVERITY
libkicommon.so.9.0.1:_ZN22DATABASE_FIELD_MAPPINGC1ENSt7__cxx1112basic_stringIcSt11char_traitsIcESaIcEEES5_bbbb
libkicommon.so.9.0.1:_ZN22DATABASE_FIELD_MAPPINGC2ENSt7__cxx1112basic_stringIcSt11char_traitsIcESaIcEEES5_bbbb
libkicommon.so.9.0.1:_ZN22DESIGN_BLOCK_INFO_IMPL4loadEv
libkicommon.so.9.0.1:_ZN22DESIGN_BLOCK_LIB_TABLE13GetGlobalListEv
libkicommon.so.9.0.1:_ZN22DESIGN_BLOCK_LIB_TABLE15DesignBlockLoadERK8wxStringS2_b
libkicommon.so.9.0.1:_ZN22DESIGN_BLOCK_LIB_TABLE15DesignBlockSaveERK8wxStringPK12DESIGN_BLOCKb
libkicommon.so.9.0.1:_ZN22DESIGN_BLOCK_LIB_TABLE15LoadGlobalTableERS_
libkicommon.so.9.0.1:_ZN22DESIGN_BLOCK_LIB_TABLE17DesignBlockDeleteERK8wxStringS2_
libkicommon.so.9.0.1:_ZN22DESIGN_BLOCK_LIB_TABLE17DesignBlockExistsERK8wxStringS2_
libkicommon.so.9.0.1:_ZN22DESIGN_BLOCK_LIB_TABLE17GenerateTimestampEPK8wxString
libkicommon.so.9.0.1:_ZN22DESIGN_BLOCK_LIB_TABLE17GetGlobalLibTableEv
libkicommon.so.9.0.1:_ZN22DESIGN_BLOCK_LIB_TABLE20DesignBlockEnumerateER13wxArrayStringRK8wxStringb
libkicommon.so.9.0.1:_ZN22DESIGN_BLOCK_LIB_TABLE20DesignBlockLibCreateERK8wxString
libkicommon.so.9.0.1:_ZN22DESIGN_BLOCK_LIB_TABLE20DesignBlockLibDeleteERK8wxString
libkicommon.so.9.0.1:_ZN22DESIGN_BLOCK_LIB_TABLE22GetGlobalTableFileNameEv
libkicommon.so.9.0.1:_ZN22DESIGN_BLOCK_LIB_TABLE24GetEnumeratedDesignBlockERK8wxStringS2_
libkicommon.so.9.0.1:_ZN22DESIGN_BLOCK_LIB_TABLE24IsDesignBlockLibWritableERK8wxString
libkicommon.so.9.0.1:_ZN22DESIGN_BLOCK_LIB_TABLE25GlobalPathEnvVariableNameEv
libkicommon.so.9.0.1:_ZN22DESIGN_BLOCK_LIB_TABLE35DesignBlockLoadWithOptionalNicknameERK6LIB_IDb
libkicommon.so.9.0.1:_ZN22DESIGN_BLOCK_LIB_TABLE5ParseEP15LIB_TABLE_LEXER
libkicommon.so.9.0.1:_ZN22DESIGN_BLOCK_LIB_TABLE7FindRowERK8wxStringb
libkicommon.so.9.0.1:_ZN22DESIGN_BLOCK_LIB_TABLEC1EPS_
libkicommon.so.9.0.1:_ZN22DESIGN_BLOCK_LIB_TABLEC2EPS_
libkicommon.so.9.0.1:_ZN22DESIGN_BLOCK_LIST_IMPL11CatchErrorsERKSt8functionIFvvEE
libkicommon.so.9.0.1:_ZN22DESIGN_BLOCK_LIST_IMPL16loadDesignBlocksEv
libkicommon.so.9.0.1:_ZN22DESIGN_BLOCK_LIST_IMPL20ReadDesignBlockFilesEP22DESIGN_BLOCK_LIB_TABLEPK8wxStringP17PROGRESS_REPORTER
libkicommon.so.9.0.1:_ZN22DESIGN_BLOCK_LIST_IMPLC1Ev
libkicommon.so.9.0.1:_ZN22DESIGN_BLOCK_LIST_IMPLC2Ev
libkicommon.so.9.0.1:_ZN22JOB_EXPORT_PCB_GERBERSC1Ev
libkicommon.so.9.0.1:_ZN22JOB_EXPORT_PCB_GERBERSC2Ev
libkicommon.so.9.0.1:_ZN22JOB_EXPORT_PCB_IPC258120SetDefaultOutputPathERK8wxString
libkicommon.so.9.0.1:_ZN22JOB_EXPORT_PCB_IPC2581C1Ev
libkicommon.so.9.0.1:_ZN22JOB_EXPORT_PCB_IPC2581C2Ev
libkicommon.so.9.0.1:_ZN22JOB_EXPORT_PCB_IPCD35620SetDefaultOutputPathERK8wxString
libkicommon.so.9.0.1:_ZN22JOB_EXPORT_PCB_IPCD356C1Ev
libkicommon.so.9.0.1:_ZN22JOB_EXPORT_PCB_IPCD356C2Ev
libkicommon.so.9.0.1:_ZN22JOB_EXPORT_SCH_NETLIST16GetFormatNameMapEv
libkicommon.so.9.0.1:_ZN22JOB_EXPORT_SCH_NETLISTC1Ev
libkicommon.so.9.0.1:_ZN22JOB_EXPORT_SCH_NETLISTC2Ev
libkicommon.so.9.0.1:_ZN22JOB_EXPORT_SCH_PLOT_PSC1Ev
libkicommon.so.9.0.1:_ZN22JOB_EXPORT_SCH_PLOT_PSC2Ev
libkicommon.so.9.0.1:_ZN22PARAM_CFG_LIBNAME_LISTC1EPKwP13wxArrayStringS1_
libkicommon.so.9.0.1:_ZN22PARAM_CFG_LIBNAME_LISTC2EPKwP13wxArrayStringS1_
libkicommon.so.9.0.1:_ZN22PARAM_CFG_WXSTRING_SETC1ERK8wxStringPSt3setIS0_St4lessIS0_ESaIS0_EEPKw
libkicommon.so.9.0.1:_ZN22PARAM_CFG_WXSTRING_SETC1EbRK8wxStringPSt3setIS0_St4lessIS0_ESaIS0_EEPKw
libkicommon.so.9.0.1:_ZN22PARAM_CFG_WXSTRING_SETC2ERK8wxStringPSt3setIS0_St4lessIS0_ESaIS0_EEPKw
libkicommon.so.9.0.1:_ZN22PARAM_CFG_WXSTRING_SETC2EbRK8wxStringPSt3setIS0_St4lessIS0_ESaIS0_EEPKw
libkicommon.so.9.0.1:_ZN22PROGRESS_REPORTER_BASE10BeginPhaseEi
libkicommon.so.9.0.1:_ZN22PROGRESS_REPORTER_BASE12AdvancePhaseERK8wxString
libkicommon.so.9.0.1:_ZN22PROGRESS_REPORTER_BASE12AdvancePhaseEv
libkicommon.so.9.0.1:_ZN22PROGRESS_REPORTER_BASE12SetNumPhasesEi
libkicommon.so.9.0.1:_ZN22PROGRESS_REPORTER_BASE14KeepRefreshingEb
libkicommon.so.9.0.1:_ZN22PROGRESS_REPORTER_BASE14SetMaxProgressEi
libkicommon.so.9.0.1:_ZN22PROGRESS_REPORTER_BASE15AdvanceProgressEv
libkicommon.so.9.0.1:_ZN22PROGRESS_REPORTER_BASE18SetCurrentProgressEd
libkicommon.so.9.0.1:_ZN22PROGRESS_REPORTER_BASE6ReportERK8wxString
libkicommon.so.9.0.1:_ZN22PROGRESS_REPORTER_BASE9AddPhasesEi
libkicommon.so.9.0.1:_ZN22PROGRESS_REPORTER_BASEC1Ei
libkicommon.so.9.0.1:_ZN22PROGRESS_REPORTER_BASEC2Ei
libkicommon.so.9.0.1:_ZN22PROJECT_LOCAL_SETTINGS10SaveToFileERK8wxStringb
libkicommon.so.9.0.1:_ZN22PROJECT_LOCAL_SETTINGS12GetFileStateERK8wxString
libkicommon.so.9.0.1:_ZN22PROJECT_LOCAL_SETTINGS13SaveFileStateERK8wxStringPK15WINDOW_SETTINGSb
libkicommon.so.9.0.1:_ZN22PROJECT_LOCAL_SETTINGS14ClearFileStateEv
libkicommon.so.9.0.1:_ZN22PROJECT_LOCAL_SETTINGS17MigrateFromLegacyEP12wxConfigBase
libkicommon.so.9.0.1:_ZN22PROJECT_LOCAL_SETTINGS6SaveAsERK8wxStringS2_
libkicommon.so.9.0.1:_ZN22PROJECT_LOCAL_SETTINGSC1EP7PROJECTRK8wxString
libkicommon.so.9.0.1:_ZN22PROJECT_LOCAL_SETTINGSC2EP7PROJECTRK8wxString
libkicommon.so.9.0.1:_ZN22WX_HTML_PANEL_REPORTER10ReportHeadERK8wxString8SEVERITY
libkicommon.so.9.0.1:_ZN22WX_HTML_PANEL_REPORTER10ReportTailERK8wxString8SEVERITY
libkicommon.so.9.0.1:_ZN22WX_HTML_PANEL_REPORTER6ReportERK8wxString8SEVERITY
libkicommon.so.9.0.1:_ZN23BACKGROUND_JOBS_MONITOR10jobUpdatedESt10shared_ptrI14BACKGROUND_JOBE
libkicommon.so.9.0.1:_ZN23BACKGROUND_JOBS_MONITOR17RegisterStatusBarEP11KISTATUSBAR
libkicommon.so.9.0.1:_ZN23BACKGROUND_JOBS_MONITOR18onListWindowClosedER12wxCloseEvent
libkicommon.so.9.0.1:_ZN23BACKGROUND_JOBS_MONITOR19UnregisterStatusBarEP11KISTATUSBAR
libkicommon.so.9.0.1:_ZN23BACKGROUND_JOBS_MONITOR6CreateERK8wxString
libkicommon.so.9.0.1:_ZN23BACKGROUND_JOBS_MONITOR6RemoveESt10shared_ptrI14BACKGROUND_JOBE
libkicommon.so.9.0.1:_ZN23BACKGROUND_JOBS_MONITOR8ShowListEP8wxWindow7wxPoint
libkicommon.so.9.0.1:_ZN23BACKGROUND_JOBS_MONITORC1Ev
libkicommon.so.9.0.1:_ZN23BACKGROUND_JOBS_MONITORC2Ev
libkicommon.so.9.0.1:_ZN23BACKGROUND_JOB_REPORTER12AdvancePhaseEv
libkicommon.so.9.0.1:_ZN23BACKGROUND_JOB_REPORTER12SetNumPhasesEi
libkicommon.so.9.0.1:_ZN23BACKGROUND_JOB_REPORTER6ReportERK8wxString
libkicommon.so.9.0.1:_ZN23BACKGROUND_JOB_REPORTER8updateUIEv
libkicommon.so.9.0.1:_ZN23BACKGROUND_JOB_REPORTERC1EP23BACKGROUND_JOBS_MONITORSt10shared_ptrI14BACKGROUND_JOBE
libkicommon.so.9.0.1:_ZN23BACKGROUND_JOB_REPORTERC2EP23BACKGROUND_JOBS_MONITORSt10shared_ptrI14BACKGROUND_JOBE
libkicommon.so.9.0.1:_ZN23DIALOG_MIGRATE_SETTINGS12OnChoosePathER14wxCommandEvent
libkicommon.so.9.0.1:_ZN23DIALOG_MIGRATE_SETTINGS12validatePathEv
libkicommon.so.9.0.1:_ZN23DIALOG_MIGRATE_SETTINGS13OnPathChangedER14wxCommandEvent
libkicommon.so.9.0.1:_ZN23DIALOG_MIGRATE_SETTINGS13showPathErrorEb
libkicommon.so.9.0.1:_ZN23DIALOG_MIGRATE_SETTINGS15OnPathDefocusedER12wxFocusEvent
libkicommon.so.9.0.1:_ZN23DIALOG_MIGRATE_SETTINGS17OnDefaultSelectedER14wxCommandEvent
libkicommon.so.9.0.1:_ZN23DIALOG_MIGRATE_SETTINGS17OnPrevVerSelectedER14wxCommandEvent
libkicommon.so.9.0.1:_ZN23DIALOG_MIGRATE_SETTINGS20TransferDataToWindowEv
libkicommon.so.9.0.1:_ZN23DIALOG_MIGRATE_SETTINGS22TransferDataFromWindowEv
libkicommon.so.9.0.1:_ZN23DIALOG_MIGRATE_SETTINGSC1EP16SETTINGS_MANAGER
libkicommon.so.9.0.1:_ZN23DIALOG_MIGRATE_SETTINGSC2EP16SETTINGS_MANAGER
libkicommon.so.9.0.1:_ZN23DIALOG_MIGRATE_SETTINGSD0Ev
libkicommon.so.9.0.1:_ZN23DIALOG_MIGRATE_SETTINGSD1Ev
libkicommon.so.9.0.1:_ZN23DIALOG_MIGRATE_SETTINGSD2Ev
libkicommon.so.9.0.1:_ZN23EDA_PATTERN_MATCH_REGEX10SetPatternERK8wxString
libkicommon.so.9.0.1:_ZN23INPUTSTREAM_LINE_READER8ReadLineEv
libkicommon.so.9.0.1:_ZN23INPUTSTREAM_LINE_READERC1EP13wxInputStreamRK8wxString
libkicommon.so.9.0.1:_ZN23INPUTSTREAM_LINE_READERC2EP13wxInputStreamRK8wxString
libkicommon.so.9.0.1:_ZN23JOB_EXPORT_SCH_PLOT_DXFC1Ev
libkicommon.so.9.0.1:_ZN23JOB_EXPORT_SCH_PLOT_DXFC2Ev
libkicommon.so.9.0.1:_ZN23JOB_EXPORT_SCH_PLOT_PDFC1Eb
libkicommon.so.9.0.1:_ZN23JOB_EXPORT_SCH_PLOT_PDFC2Eb
libkicommon.so.9.0.1:_ZN23JOB_EXPORT_SCH_PLOT_SVGC1Ev
libkicommon.so.9.0.1:_ZN23JOB_EXPORT_SCH_PLOT_SVGC2Ev
libkicommon.so.9.0.1:_ZN23JSON_SETTINGS_INTERNALS17PointerFromStringENSt7__cxx1112basic_stringIcSt11char_traitsIcESaIcEEE
libkicommon.so.9.0.1:_ZN24EDA_PATTERN_MATCH_SUBSTR10SetPatternERK8wxString
libkicommon.so.9.0.1:_ZN24JOB_EXPORT_SCH_PLOT_HPGLC1Ev
libkicommon.so.9.0.1:_ZN24JOB_EXPORT_SCH_PLOT_HPGLC2Ev
libkicommon.so.9.0.1:_ZN24JOB_EXPORT_SCH_PYTHONBOMC1Ev
libkicommon.so.9.0.1:_ZN24JOB_EXPORT_SCH_PYTHONBOMC2Ev
libkicommon.so.9.0.1:_ZN24PARAM_CFG_INT_WITH_SCALEC1ERK8wxStringPiiiiPKwdS2_
libkicommon.so.9.0.1:_ZN24PARAM_CFG_INT_WITH_SCALEC1EbRK8wxStringPiiiiPKwdS2_
libkicommon.so.9.0.1:_ZN24PARAM_CFG_INT_WITH_SCALEC2ERK8wxStringPiiiiPKwdS2_
libkicommon.so.9.0.1:_ZN24PARAM_CFG_INT_WITH_SCALEC2EbRK8wxStringPiiiiPKwdS2_
libkicommon.so.9.0.1:_ZN25TEMPLATE_FIELDNAMES_LEXER9TokenNameEN8TFIELD_T1TE
libkicommon.so.9.0.1:_ZN25WX_HTML_REPORT_PANEL_BASEC1EP8wxWindowiRK7wxPointRK6wxSizelRK8wxString
libkicommon.so.9.0.1:_ZN25WX_HTML_REPORT_PANEL_BASEC2EP8wxWindowiRK7wxPointRK6wxSizelRK8wxString
libkicommon.so.9.0.1:_ZN25WX_HTML_REPORT_PANEL_BASED0Ev
libkicommon.so.9.0.1:_ZN25WX_HTML_REPORT_PANEL_BASED1Ev
libkicommon.so.9.0.1:_ZN25WX_HTML_REPORT_PANEL_BASED2Ev
libkicommon.so.9.0.1:_ZN26DESIGN_BLOCK_LIB_TABLE_ROW7SetTypeERK8wxString
libkicommon.so.9.0.1:_ZN26EDA_PATTERN_MATCH_WILDCARD10SetPatternERK8wxString
libkicommon.so.9.0.1:_ZN28DIALOG_MIGRATE_SETTINGS_BASEC1EP8wxWindowiRK8wxStringRK7wxPointRK6wxSizel
libkicommon.so.9.0.1:_ZN28DIALOG_MIGRATE_SETTINGS_BASEC2EP8wxWindowiRK8wxStringRK7wxPointRK6wxSizel
libkicommon.so.9.0.1:_ZN28DIALOG_MIGRATE_SETTINGS_BASED0Ev
libkicommon.so.9.0.1:_ZN28DIALOG_MIGRATE_SETTINGS_BASED1Ev
libkicommon.so.9.0.1:_ZN28DIALOG_MIGRATE_SETTINGS_BASED2Ev
libkicommon.so.9.0.1:_ZN28EDA_PATTERN_MATCH_RELATIONAL10SetPatternERK8wxString
libkicommon.so.9.0.1:_ZN31PRETTIFIED_FILE_OUTPUTFORMATTER5writeEPKci
libkicommon.so.9.0.1:_ZN31PRETTIFIED_FILE_OUTPUTFORMATTER6FinishEv
libkicommon.so.9.0.1:_ZN31PRETTIFIED_FILE_OUTPUTFORMATTERC1ERK8wxStringPKwc
libkicommon.so.9.0.1:_ZN31PRETTIFIED_FILE_OUTPUTFORMATTERC2ERK8wxStringPKwc
libkicommon.so.9.0.1:_ZN31PRETTIFIED_FILE_OUTPUTFORMATTERD0Ev
libkicommon.so.9.0.1:_ZN31PRETTIFIED_FILE_OUTPUTFORMATTERD1Ev
libkicommon.so.9.0.1:_ZN31PRETTIFIED_FILE_OUTPUTFORMATTERD2Ev
libkicommon.so.9.0.1:_ZN32EDA_PATTERN_MATCH_REGEX_ANCHORED10SetPatternERK8wxString
libkicommon.so.9.0.1:_ZN35EDA_PATTERN_MATCH_WILDCARD_ANCHORED10SetPatternERK8wxString
libkicommon.so.9.0.1:_ZN3JOB22SetTempOutputDirectoryERK8wxString
libkicommon.so.9.0.1:_ZN3JOB23SetConfiguredOutputPathERK8wxString
libkicommon.so.9.0.1:_ZN3JOB8FromJsonERKN8nlohmann16json_abi_v3_11_310basic_jsonISt3mapSt6vectorNSt7__cxx1112basic_stringIcSt11char_traitsIcESaIcEEEblmdSaNS1_14adl_serializerES4_IhSaIhEEvEE
libkicommon.so.9.0.1:_ZN3JOBC1ERKNSt7__cxx1112basic_stringIcSt11char_traitsIcESaIcEEEb
libkicommon.so.9.0.1:_ZN3JOBC2ERKNSt7__cxx1112basic_stringIcSt11char_traitsIcESaIcEEEb
libkicommon.so.9.0.1:_ZN3JOBD0Ev
libkicommon.so.9.0.1:_ZN3JOBD1Ev
libkicommon.so.9.0.1:_ZN3JOBD2Ev
libkicommon.so.9.0.1:_ZN4KIID13SeedGeneratorEj
libkicommon.so.9.0.1:_ZN4KIID14CreateNilUuidsEb
libkicommon.so.9.0.1:_ZN4KIID22ConvertTimestampToUuidEv
libkicommon.so.9.0.1:_ZN4KIID5CloneERKS_
libkicommon.so.9.0.1:_ZN4KIID9IncrementEv
libkicommon.so.9.0.1:_ZN4KIID9SniffTestERK8wxString
libkicommon.so.9.0.1:_ZN4KIIDC1EPKc
libkicommon.so.9.0.1:_ZN4KIIDC1ERK8wxString
libkicommon.so.9.0.1:_ZN4KIIDC1ERKNSt7__cxx1112basic_stringIcSt11char_traitsIcESaIcEEE
libkicommon.so.9.0.1:_ZN4KIIDC1Ei
libkicommon.so.9.0.1:_ZN4KIIDC1Ej
libkicommon.so.9.0.1:_ZN4KIIDC1Ev
libkicommon.so.9.0.1:_ZN4KIIDC2EPKc
libkicommon.so.9.0.1:_ZN4KIIDC2ERK8wxString
libkicommon.so.9.0.1:_ZN4KIIDC2ERKNSt7__cxx1112basic_stringIcSt11char_traitsIcESaIcEEE
libkicommon.so.9.0.1:_ZN4KIIDC2Ei
libkicommon.so.9.0.1:_ZN4KIIDC2Ej
libkicommon.so.9.0.1:_ZN4KIIDC2Ev
libkicommon.so.9.0.1:_ZN4KIUI11AddMenuItemEP6wxMenuS1_iRK8wxStringRK14wxBitmapBundle
libkicommon.so.9.0.1:_ZN4KIUI11AddMenuItemEP6wxMenuS1_iRK8wxStringS4_RK14wxBitmapBundle
libkicommon.so.9.0.1:_ZN4KIUI11AddMenuItemEP6wxMenuiRK8wxStringRK14wxBitmapBundle10wxItemKind
libkicommon.so.9.0.1:_ZN4KIUI11AddMenuItemEP6wxMenuiRK8wxStringS4_RK14wxBitmapBundle10wxItemKind
libkicommon.so.9.0.1:_ZN4KIUI11GetInfoFontEP8wxWindow
libkicommon.so.9.0.1:_ZN4KIUI11GetTextSizeERK8wxStringP8wxWindow
libkicommon.so.9.0.1:_ZN4KIUI12GetStdMarginEv
libkicommon.so.9.0.1:_ZN4KIUI13GetStatusFontEP8wxWindow
libkicommon.so.9.0.1:_ZN4KIUI14GetControlFontEP8wxWindow
libkicommon.so.9.0.1:_ZN4KIUI17EllipsizeMenuTextERK8wxString
libkicommon.so.9.0.1:_ZN4KIUI17GetDockedPaneFontEP8wxWindow
libkicommon.so.9.0.1:_ZN4KIUI19AddBitmapToMenuItemEP10wxMenuItemRK14wxBitmapBundle
libkicommon.so.9.0.1:_ZN4KIUI19EllipsizeStatusTextEP8wxWindowRK8wxString
libkicommon.so.9.0.1:_ZN4KIUI19EnsureTextCtrlWidthEP10wxTextCtrlPK8wxString
libkicommon.so.9.0.1:_ZN4KIUI19GetMonospacedUIFontEv
libkicommon.so.9.0.1:_ZN4KIUI20IsModalDialogFocusedEv
libkicommon.so.9.0.1:_ZN4KIUI21IsInputControlFocusedEP8wxWindow
libkicommon.so.9.0.1:_ZN4KIUI21SelectReferenceNumberEP11wxTextEntry
libkicommon.so.9.0.1:_ZN4KIUI22IsInputControlEditableEP8wxWindow
libkicommon.so.9.0.1:_ZN4KIUI7DisableEP8wxWindow
libkicommon.so.9.0.1:_ZN4LSET10LayerCountE12PCB_LAYER_IDS0_i
libkicommon.so.9.0.1:_ZN4LSET11AllTechMaskEv
libkicommon.so.9.0.1:_ZN4LSET11NameToLayerER8wxString
libkicommon.so.9.0.1:_ZN4LSET12AllNonCuMaskEv
libkicommon.so.9.0.1:_ZN4LSET12BackAssemblyEv
libkicommon.so.9.0.1:_ZN4LSET12BackTechMaskEv
libkicommon.so.9.0.1:_ZN4LSET13AllLayersMaskEv
libkicommon.so.9.0.1:_ZN4LSET13FrontAssemblyEv
libkicommon.so.9.0.1:_ZN4LSET13FrontTechMaskEv
libkicommon.so.9.0.1:_ZN4LSET14ExternalCuMaskEv
libkicommon.so.9.0.1:_ZN4LSET14InternalCuMaskEv
libkicommon.so.9.0.1:_ZN4LSET16AllBoardTechMaskEv
libkicommon.so.9.0.1:_ZN4LSET16SideSpecificMaskEv
libkicommon.so.9.0.1:_ZN4LSET17BackBoardTechMaskEv
libkicommon.so.9.0.1:_ZN4LSET17ClearCopperLayersEv
libkicommon.so.9.0.1:_ZN4LSET18FlipStandardLayersEi
libkicommon.so.9.0.1:_ZN4LSET18FrontBoardTechMaskEv
libkicommon.so.9.0.1:_ZN4LSET18PhysicalLayersMaskEv
libkicommon.so.9.0.1:_ZN4LSET20ClearNonCopperLayersEv
libkicommon.so.9.0.1:_ZN4LSET21UserDefinedLayersMaskEi
libkicommon.so.9.0.1:_ZN4LSET22ClearUserDefinedLayersEv
libkicommon.so.9.0.1:_ZN4LSET22copper_layers_iterator17next_copper_layerEv
libkicommon.so.9.0.1:_ZN4LSET22copper_layers_iterator30advance_to_next_set_copper_bitEv
libkicommon.so.9.0.1:_ZN4LSET22copper_layers_iteratorC1ERK8BASE_SETm
libkicommon.so.9.0.1:_ZN4LSET22copper_layers_iteratorC2ERK8BASE_SETm
libkicommon.so.9.0.1:_ZN4LSET22copper_layers_iteratorppEv
libkicommon.so.9.0.1:_ZN4LSET24ForbiddenFootprintLayersEv
libkicommon.so.9.0.1:_ZN4LSET26non_copper_layers_iterator34advance_to_next_set_non_copper_bitEv
libkicommon.so.9.0.1:_ZN4LSET26non_copper_layers_iteratorC1ERK8BASE_SETm
libkicommon.so.9.0.1:_ZN4LSET26non_copper_layers_iteratorC2ERK8BASE_SETm
libkicommon.so.9.0.1:_ZN4LSET26non_copper_layers_iteratorppEv
libkicommon.so.9.0.1:_ZN4LSET4NameE12PCB_LAYER_ID
libkicommon.so.9.0.1:_ZN4LSET8BackMaskEv
libkicommon.so.9.0.1:_ZN4LSET8UserMaskEv
libkicommon.so.9.0.1:_ZN4LSET9AllCuMaskEi
libkicommon.so.9.0.1:_ZN4LSET9FrontMaskEv
libkicommon.so.9.0.1:_ZN4LSET9IsBetweenE12PCB_LAYER_IDS0_S0_
libkicommon.so.9.0.1:_ZN4LSETC1ERK11LAYER_RANGE
libkicommon.so.9.0.1:_ZN4LSETC1ERK4LSEQ
libkicommon.so.9.0.1:_ZN4LSETC1ERKSt6vectorI12PCB_LAYER_IDSaIS1_EE
libkicommon.so.9.0.1:_ZN4LSETC1ESt16initializer_listI12PCB_LAYER_IDE
libkicommon.so.9.0.1:_ZN4LSETC2ERK11LAYER_RANGE
libkicommon.so.9.0.1:_ZN4LSETC2ERK4LSEQ
libkicommon.so.9.0.1:_ZN4LSETC2ERKSt6vectorI12PCB_LAYER_IDSaIS1_EE
libkicommon.so.9.0.1:_ZN4LSETC2ESt16initializer_listI12PCB_LAYER_IDE
libkicommon.so.9.0.1:_ZN5KIGFX7COLOR4D10DesaturateEv
libkicommon.so.9.0.1:_ZN5KIGFX7COLOR4D11FromCSSRGBAEiiid
libkicommon.so.9.0.1:_ZN5KIGFX7COLOR4D13ContrastRatioERKS0_S2_
libkicommon.so.9.0.1:_ZN5KIGFX7COLOR4D15SetFromWxStringERK8wxString
libkicommon.so.9.0.1:_ZN5KIGFX7COLOR4D16SetFromHexStringERK8wxString
libkicommon.so.9.0.1:_ZN5KIGFX7COLOR4D22FindNearestLegacyColorEiii
libkicommon.so.9.0.1:_ZN5KIGFX7COLOR4D7FromHSLEddd
libkicommon.so.9.0.1:_ZN5KIGFX7COLOR4D7FromHSVEddd
libkicommon.so.9.0.1:_ZN5KIGFX7COLOR4D8SaturateEd
libkicommon.so.9.0.1:_ZN5KIGFX7COLOR4DC1E11EDA_COLOR_T
libkicommon.so.9.0.1:_ZN5KIGFX7COLOR4DC1ERK8wxColour
libkicommon.so.9.0.1:_ZN5KIGFX7COLOR4DC1ERK8wxString
libkicommon.so.9.0.1:_ZN5KIGFX7COLOR4DC2E11EDA_COLOR_T
libkicommon.so.9.0.1:_ZN5KIGFX7COLOR4DC2ERK8wxColour
libkicommon.so.9.0.1:_ZN5KIGFX7COLOR4DC2ERK8wxString
libkicommon.so.9.0.1:_ZN5KIGFX7to_jsonERN8nlohmann16json_abi_v3_11_310basic_jsonISt3mapSt6vectorNSt7__cxx1112basic_stringIcSt11char_traitsIcESaIcEEEblmdSaNS1_14adl_serializerES4_IhSaIhEEvEERKNS_7COLOR4DE
libkicommon.so.9.0.1:_ZN5KIGFX9from_jsonERKN8nlohmann16json_abi_v3_11_310basic_jsonISt3mapSt6vectorNSt7__cxx1112basic_stringIcSt11char_traitsIcESaIcEEEblmdSaNS1_14adl_serializerES4_IhSaIhEEvEERNS_7COLOR4DE
libkicommon.so.9.0.1:_ZN5KIGFXeqERKNS_7COLOR4DES2_
libkicommon.so.9.0.1:_ZN5KIGFXlsERSoRKNS_7COLOR4DE
libkicommon.so.9.0.1:_ZN5KIGFXltERKNS_7COLOR4DES2_
libkicommon.so.9.0.1:_ZN5KIGFXneERKNS_7COLOR4DES2_
libkicommon.so.9.0.1:_ZN5KIWAY10KifaceTypeE7FRAME_T
libkicommon.so.9.0.1:_ZN5KIWAY10OnKiwayEndEv
libkicommon.so.9.0.1:_ZN5KIWAY10ProcessJobENS_6FACE_TEP3JOBP8REPORTER
libkicommon.so.9.0.1:_ZN5KIWAY11ExpressMailE7FRAME_T6MAIL_TRNSt7__cxx1112basic_stringIcSt11char_traitsIcESaIcEEEP8wxWindow
libkicommon.so.9.0.1:_ZN5KIWAY11OnKiCadExitEv
libkicommon.so.9.0.1:_ZN5KIWAY11PlayerCloseE7FRAME_Tb
libkicommon.so.9.0.1:_ZN5KIWAY11SetLanguageEi
libkicommon.so.9.0.1:_ZN5KIWAY12PlayersCloseEb
libkicommon.so.9.0.1:_ZN5KIWAY12ProcessEventER7wxEvent
libkicommon.so.9.0.1:_ZN5KIWAY14GetPlayerFrameE7FRAME_T
libkicommon.so.9.0.1:_ZN5KIWAY14PlayerDidCloseE7FRAME_T
libkicommon.so.9.0.1:_ZN5KIWAY14ProjectChangedEv
libkicommon.so.9.0.1:_ZN5KIWAY15dso_search_pathENS_6FACE_TE
libkicommon.so.9.0.1:_ZN5KIWAY17GetBlockingDialogEv
libkicommon.so.9.0.1:_ZN5KIWAY17SetBlockingDialogEP8wxWindow
libkicommon.so.9.0.1:_ZN5KIWAY21CommonSettingsChangedEi
libkicommon.so.9.0.1:_ZN5KIWAY22ProcessJobConfigDialogENS_6FACE_TEP3JOBP8wxWindow
libkicommon.so.9.0.1:_ZN5KIWAY6KiFACEENS_6FACE_TEb
libkicommon.so.9.0.1:_ZN5KIWAY6PlayerE7FRAME_TbP16wxTopLevelWindow
libkicommon.so.9.0.1:_ZN5KIWAY6SetTopEP7wxFrame
libkicommon.so.9.0.1:_ZN5KIWAYC1EiP7wxFrame
libkicommon.so.9.0.1:_ZN5KIWAYC2EiP7wxFrame
libkicommon.so.9.0.1:_ZN5PATHS11GetLogsPathEv
libkicommon.so.9.0.1:_ZN5PATHS16EnsurePathExistsERK8wxStringb
libkicommon.so.9.0.1:_ZN5PATHS16GetStockDataPathEb
libkicommon.so.9.0.1:_ZN5PATHS16GetUserCachePathEv
libkicommon.so.9.0.1:_ZN5PATHS17GetExecutablePathEv
libkicommon.so.9.0.1:_ZN5PATHS17GetLocaleDataPathEv
libkicommon.so.9.0.1:_ZN5PATHS17GetStockDemosPathEv
libkicommon.so.9.0.1:_ZN5PATHS18GetUserPluginsPathEv
libkicommon.so.9.0.1:_ZN5PATHS19GetStockPluginsPathEv
libkicommon.so.9.0.1:_ZN5PATHS19GetStockSymbolsPathEv
libkicommon.so.9.0.1:_ZN5PATHS19GetUserSettingsPathEv
libkicommon.so.9.0.1:_ZN5PATHS19getUserDocumentPathER10wxFileName
libkicommon.so.9.0.1:_ZN5PATHS20EnsureUserPathsExistEv
libkicommon.so.9.0.1:_ZN5PATHS20GetDocumentationPathEv
libkicommon.so.9.0.1:_ZN5PATHS20GetStock3dmodelsPathEv
libkicommon.so.9.0.1:_ZN5PATHS20GetUserScriptingPathEv
libkicommon.so.9.0.1:_ZN5PATHS20GetUserTemplatesPathEv
libkicommon.so.9.0.1:_ZN5PATHS21GetStockPlugins3DPathEv
libkicommon.so.9.0.1:_ZN5PATHS21GetStockScriptingPathEv
libkicommon.so.9.0.1:_ZN5PATHS21GetStockTemplatesPathEv
libkicommon.so.9.0.1:_ZN5PATHS22GetDefault3rdPartyPathEv
libkicommon.so.9.0.1:_ZN5PATHS22GetInstanceCheckerPathEv
libkicommon.so.9.0.1:_ZN5PATHS22GetStockEDALibraryPathEv
libkicommon.so.9.0.1:_ZN5PATHS22GetStockFootprintsPathEv
libkicommon.so.9.0.1:_ZN5PATHS24GetStockDesignBlocksPathEv
libkicommon.so.9.0.1:_ZN5PATHS25CalculateUserSettingsPathEbb
libkicommon.so.9.0.1:_ZN5PATHS25GetDefaultUserSymbolsPathEv
libkicommon.so.9.0.1:_ZN5PATHS26GetDefaultUser3DModelsPathEv
libkicommon.so.9.0.1:_ZN5PATHS26GetDefaultUserProjectsPathEv
libkicommon.so.9.0.1:_ZN5PATHS28GetDefaultUserFootprintsPathEv
libkicommon.so.9.0.1:_ZN5PATHS30GetDefaultUserDesignBlocksPathEv
libkicommon.so.9.0.1:_ZN5kiapi6common10UnpackBox2ERKNS0_5types4Box2E
libkicommon.so.9.0.1:_ZN5kiapi6common11PackPolySetERNS0_5types7PolySetERK14SHAPE_POLY_SET
libkicommon.so.9.0.1:_ZN5kiapi6common11PackVector2ERNS0_5types7Vector2ERK7VECTOR2IiE
libkicommon.so.9.0.1:_ZN5kiapi6common11UnpackColorERKNS0_5types5ColorE
libkicommon.so.9.0.1:_ZN5kiapi6common12LibIdToProtoERK6LIB_ID
libkicommon.so.9.0.1:_ZN5kiapi6common12PackPolyLineERNS0_5types8PolyLineERK16SHAPE_LINE_CHAIN
libkicommon.so.9.0.1:_ZN5kiapi6common12PackVector3DERNS0_5types8Vector3DERK7VECTOR3IdE
libkicommon.so.9.0.1:_ZN5kiapi6common13UnpackPolySetERKNS0_5types7PolySetE
libkicommon.so.9.0.1:_ZN5kiapi6common13UnpackVector2ERKNS0_5types7Vector2E
libkicommon.so.9.0.1:_ZN5kiapi6common14LibIdFromProtoERKNS0_5types17LibraryIdentifierE
libkicommon.so.9.0.1:_ZN5kiapi6common14UnpackPolyLineERKNS0_5types8PolyLineE
libkicommon.so.9.0.1:_ZN5kiapi6common14UnpackVector3DERKNS0_5types8Vector3DE
libkicommon.so.9.0.1:_ZN5kiapi6common15TypeNameFromAnyERKN6google8protobuf3AnyE
libkicommon.so.9.0.1:_ZN5kiapi6common8PackBox2ERNS0_5types4Box2ERK4BOX2I7VECTOR2IiEE
libkicommon.so.9.0.1:_ZN5kiapi6common9PackColorERNS0_5types5ColorERKN5KIGFX7COLOR4DE
libkicommon.so.9.0.1:_ZN6JOBSET10SaveToFileERK8wxStringb
libkicommon.so.9.0.1:_ZN6JOBSET11MoveJobDownEm
libkicommon.so.9.0.1:_ZN6JOBSET14GetDestinationER8wxString
libkicommon.so.9.0.1:_ZN6JOBSET17AddNewDestinationE20JOBSET_DESTINATION_T
libkicommon.so.9.0.1:_ZN6JOBSET17RemoveDestinationEP18JOBSET_DESTINATION
libkicommon.so.9.0.1:_ZN6JOBSET21GetJobsForDestinationEP18JOBSET_DESTINATION
libkicommon.so.9.0.1:_ZN6JOBSET9AddNewJobE8wxStringP3JOB
libkicommon.so.9.0.1:_ZN6JOBSET9MoveJobUpEm
libkicommon.so.9.0.1:_ZN6JOBSET9RemoveJobEm
libkicommon.so.9.0.1:_ZN6JOBSETC1ERK8wxString
libkicommon.so.9.0.1:_ZN6JOBSETC2ERK8wxString
libkicommon.so.9.0.1:_ZN6JOB_RCC1ERKNSt7__cxx1112basic_stringIcSt11char_traitsIcESaIcEEE
libkicommon.so.9.0.1:_ZN6JOB_RCC2ERKNSt7__cxx1112basic_stringIcSt11char_traitsIcESaIcEEE
libkicommon.so.9.0.1:_ZN6KIFONT12VERSION_INFO10FontConfigEv
libkicommon.so.9.0.1:_ZN6KIFONT12VERSION_INFO11FontLibraryEv
libkicommon.so.9.0.1:_ZN6KIFONT12VERSION_INFO8FreeTypeEv
libkicommon.so.9.0.1:_ZN6KIFONT12VERSION_INFO8HarfBuzzEv
libkicommon.so.9.0.1:_ZN6LIB_ID11isLegalCharEj
libkicommon.so.9.0.1:_ZN6LIB_ID14SetLibItemNameERK4UTF8
libkicommon.so.9.0.1:_ZN6LIB_ID14SetLibNicknameERK4UTF8
libkicommon.so.9.0.1:_ZN6LIB_ID15FixIllegalCharsERK4UTF8b
libkicommon.so.9.0.1:_ZN6LIB_ID15HasIllegalCharsERK4UTF8
libkicommon.so.9.0.1:_ZN6LIB_ID22isLegalLibraryNameCharEj
libkicommon.so.9.0.1:_ZN6LIB_ID26FindIllegalLibraryNameCharERK4UTF8
libkicommon.so.9.0.1:_ZN6LIB_ID5ParseERK4UTF8b
libkicommon.so.9.0.1:_ZN6LIB_ID5clearEv
libkicommon.so.9.0.1:_ZN6LIB_ID6FormatERK4UTF8S2_
libkicommon.so.9.0.1:_ZN6LIB_IDC1ERK8wxStringS2_
libkicommon.so.9.0.1:_ZN6LIB_IDC2ERK8wxStringS2_
libkicommon.so.9.0.1:_ZN6MARKUP13MARKUP_PARSER5ParseEv
libkicommon.so.9.0.1:_ZN7ENV_VAR16LookUpEnvVarHelpERK8wxString
libkicommon.so.9.0.1:_ZN7ENV_VAR17IsEnvVarImmutableERK8wxString
libkicommon.so.9.0.1:_ZN7ENV_VAR20GetPredefinedEnvVarsEv
libkicommon.so.9.0.1:_ZN7ENV_VAR22GetVersionedEnvVarNameERK8wxString
libkicommon.so.9.0.1:_ZN7ENV_VAR23GetVersionedEnvVarValueERKSt3mapI8wxString12ENV_VAR_ITEMSt4lessIS1_ESaISt4pairIKS1_S2_EEERS6_
libkicommon.so.9.0.1:_ZN7ENV_VAR9GetEnvVarI8wxStringEESt8optionalIT_ERKS1_
libkicommon.so.9.0.1:_ZN7ENV_VAR9GetEnvVarIdEESt8optionalIT_ERK8wxString
libkicommon.so.9.0.1:_ZN7FILEEXT14PSFileWildcardEv
libkicommon.so.9.0.1:_ZN7FILEEXT15CsvFileWildcardEv
libkicommon.so.9.0.1:_ZN7FILEEXT15DxfFileWildcardEv
libkicommon.so.9.0.1:_ZN7FILEEXT15EquFileWildcardEv
libkicommon.so.9.0.1:_ZN7FILEEXT15ErcFileWildcardEv
libkicommon.so.9.0.1:_ZN7FILEEXT15PcbFileWildcardEv
libkicommon.so.9.0.1:_ZN7FILEEXT15PdfFileWildcardEv
libkicommon.so.9.0.1:_ZN7FILEEXT15PngFileWildcardEv
libkicommon.so.9.0.1:_ZN7FILEEXT15SVGFileWildcardEv
libkicommon.so.9.0.1:_ZN7FILEEXT15ZipFileWildcardEv
libkicommon.so.9.0.1:_ZN7FILEEXT16AllFilesWildcardEv
libkicommon.so.9.0.1:_ZN7FILEEXT16HtmlFileWildcardEv
libkicommon.so.9.0.1:_ZN7FILEEXT16JpegFileWildcardEv
libkicommon.so.9.0.1:_ZN7FILEEXT16JsonFileWildcardEv
libkicommon.so.9.0.1:_ZN7FILEEXT16TextFileWildcardEv
libkicommon.so.9.0.1:_ZN7FILEEXT17DrillFileWildcardEv
libkicommon.so.9.0.1:_ZN7FILEEXT17IDF3DFileWildcardEv
libkicommon.so.9.0.1:_ZN7FILEEXT18EagleFilesWildcardEv
libkicommon.so.9.0.1:_ZN7FILEEXT18GencadFileWildcardEv
libkicommon.so.9.0.1:_ZN7FILEEXT18HotkeyFileWildcardEv
libkicommon.so.9.0.1:_ZN7FILEEXT18JobsetFileWildcardEv
libkicommon.so.9.0.1:_ZN7FILEEXT18ReportFileWildcardEv
libkicommon.so.9.0.1:_ZN7FILEEXT19IpcD356FileWildcardEv
libkicommon.so.9.0.1:_ZN7FILEEXT19NetlistFileWildcardEv
libkicommon.so.9.0.1:_ZN7FILEEXT19ProjectFileWildcardEv
libkicommon.so.9.0.1:_ZN7FILEEXT20Shapes3DFileWildcardEv
libkicommon.so.9.0.1:_ZN7FILEEXT20WorkbookFileWildcardEv
libkicommon.so.9.0.1:_ZN7FILEEXT21GerberJobFileWildcardEv
libkicommon.so.9.0.1:_ZN7FILEEXT21IsGerberFileExtensionERK8wxString
libkicommon.so.9.0.1:_ZN7FILEEXT22EasyEdaArchiveWildcardEv
libkicommon.so.9.0.1:_ZN7FILEEXT22EasyEdaProFileWildcardEv
libkicommon.so.9.0.1:_ZN7FILEEXT23AllProjectFilesWildcardEv
libkicommon.so.9.0.1:_ZN7FILEEXT23PADSNetlistFileWildcardEv
libkicommon.so.9.0.1:_ZN7FILEEXT23SpecctraDsnFileWildcardEv
libkicommon.so.9.0.1:_ZN7FILEEXT24DrawingSheetFileWildcardEv
libkicommon.so.9.0.1:_ZN7FILEEXT24SpiceLibraryFileWildcardEv
libkicommon.so.9.0.1:_ZN7FILEEXT24SpiceNetlistFileWildcardEv
libkicommon.so.9.0.1:_ZN7FILEEXT25AllSchematicFilesWildcardEv
libkicommon.so.9.0.1:_ZN7FILEEXT25LegacyProjectFileWildcardEv
libkicommon.so.9.0.1:_ZN7FILEEXT26AllegroNetlistFileWildcardEv
libkicommon.so.9.0.1:_ZN7FILEEXT26CadstarNetlistFileWildcardEv
libkicommon.so.9.0.1:_ZN7FILEEXT26FootprintPlaceFileWildcardEv
libkicommon.so.9.0.1:_ZN7FILEEXT26KiCadSchematicFileWildcardEv
libkicommon.so.9.0.1:_ZN7FILEEXT26KiCadSymbolLibFileWildcardEv
libkicommon.so.9.0.1:_ZN7FILEEXT27CadstarArchiveFilesWildcardEv
libkicommon.so.9.0.1:_ZN7FILEEXT27LegacySchematicFileWildcardEv
libkicommon.so.9.0.1:_ZN7FILEEXT27ModLegacyExportFileWildcardEv
libkicommon.so.9.0.1:_ZN7FILEEXT27SpecctraSessionFileWildcardEv
libkicommon.so.9.0.1:_ZN7FILEEXT28KiCadDesignBlockPathWildcardEv
libkicommon.so.9.0.1:_ZN7FILEEXT28OrCadPcb2NetlistFileWildcardEv
libkicommon.so.9.0.1:_ZN7FILEEXT29KiCadFootprintLibFileWildcardEv
libkicommon.so.9.0.1:_ZN7FILEEXT29KiCadFootprintLibPathWildcardEv
libkicommon.so.9.0.1:_ZN7FILEEXT31FootprintAssignmentFileWildcardEv
libkicommon.so.9.0.1:_ZN7FILEEXT31KiCadDesignBlockLibPathWildcardEv
libkicommon.so.9.0.1:_ZN7GAL_SET14DefaultVisibleEv
libkicommon.so.9.0.1:_ZN7GAL_SETC1EPK12GAL_LAYER_IDj
libkicommon.so.9.0.1:_ZN7GAL_SETC2EPK12GAL_LAYER_IDj
libkicommon.so.9.0.1:_ZN7IO_BASE13CreateLibraryERK8wxStringPKSt3mapINSt7__cxx1112basic_stringIcSt11char_traitsIcESaIcEEE4UTF8St4lessIS9_ESaISt4pairIKS9_SA_EEE
libkicommon.so.9.0.1:_ZN7IO_BASE13DeleteLibraryERK8wxStringPKSt3mapINSt7__cxx1112basic_stringIcSt11char_traitsIcESaIcEEE4UTF8St4lessIS9_ESaISt4pairIKS9_SA_EEE
libkicommon.so.9.0.1:_ZN7IO_BASE17IsLibraryWritableERK8wxString
libkicommon.so.9.0.1:_ZN7IO_BASE20AdvanceProgressPhaseEv
libkicommon.so.9.0.1:_ZN7IO_BASE6ReportERK8wxString8SEVERITY
libkicommon.so.9.0.1:_ZN7LIBEVAL3UOP4ExecEPNS_7CONTEXTE
libkicommon.so.9.0.1:_ZN7LIBEVAL5UCODE3RunEPNS_7CONTEXTE
libkicommon.so.9.0.1:_ZN7LIBEVAL5UCODED0Ev
libkicommon.so.9.0.1:_ZN7LIBEVAL5UCODED1Ev
libkicommon.so.9.0.1:_ZN7LIBEVAL5UCODED2Ev
libkicommon.so.9.0.1:_ZN7LIBEVAL7CONTEXT11ReportErrorERK8wxString
libkicommon.so.9.0.1:_ZN7LIBEVAL8COMPILER10lexDefaultERNS_7T_TOKENE
libkicommon.so.9.0.1:_ZN7LIBEVAL8COMPILER10parseErrorEPKc
libkicommon.so.9.0.1:_ZN7LIBEVAL8COMPILER11reportErrorENS_17COMPILATION_STAGEERK8wxStringi
libkicommon.so.9.0.1:_ZN7LIBEVAL8COMPILER12resolveUnitsEv
libkicommon.so.9.0.1:_ZN7LIBEVAL8COMPILER13generateUCodeEPNS_5UCODEEPNS_7CONTEXTE
libkicommon.so.9.0.1:_ZN7LIBEVAL8COMPILER5ClearEv
libkicommon.so.9.0.1:_ZN7LIBEVAL8COMPILER7CompileERK8wxStringPNS_5UCODEEPNS_7CONTEXTE
libkicommon.so.9.0.1:_ZN7LIBEVAL8COMPILER7parseOkEv
libkicommon.so.9.0.1:_ZN7LIBEVAL8COMPILER7setRootEPNS_9TREE_NODEE
libkicommon.so.9.0.1:_ZN7LIBEVAL8COMPILER8freeTreeEPNS_9TREE_NODEE
libkicommon.so.9.0.1:_ZN7LIBEVAL8COMPILER8getTokenEv
libkicommon.so.9.0.1:_ZN7LIBEVAL8COMPILER9lexStringERNS_7T_TOKENE
libkicommon.so.9.0.1:_ZN7LIBEVAL8COMPILER9newStringERK8wxString
libkicommon.so.9.0.1:_ZN7LIBEVAL8COMPILERC1Ev
libkicommon.so.9.0.1:_ZN7LIBEVAL8COMPILERC2Ev
libkicommon.so.9.0.1:_ZN7LIBEVAL8COMPILERD0Ev
libkicommon.so.9.0.1:_ZN7LIBEVAL8COMPILERD1Ev
libkicommon.so.9.0.1:_ZN7LIBEVAL8COMPILERD2Ev
libkicommon.so.9.0.1:_ZN7LIBEVAL9TOKENIZER9GetStringEv
libkicommon.so.9.0.1:_ZN7LIBEVAL9TREE_NODE6SetUopEiRK8wxStringb
libkicommon.so.9.0.1:_ZN7LIBEVAL9TREE_NODE6SetUopEiSt10unique_ptrINS_7VAR_REFESt14default_deleteIS2_EE
libkicommon.so.9.0.1:_ZN7LIBEVAL9TREE_NODE6SetUopEiSt8functionIFvPNS_7CONTEXTEPvEESt10unique_ptrINS_7VAR_REFESt14default_deleteIS8_EE
libkicommon.so.9.0.1:_ZN7LIBEVAL9TREE_NODE6SetUopEid
libkicommon.so.9.0.1:_ZN7PROJECT10ElemsClearEv
libkicommon.so.9.0.1:_ZN7PROJECT10GetRStringENS_9RSTRING_TE
libkicommon.so.9.0.1:_ZN7PROJECT10PinLibraryERK8wxStringNS_10LIB_TYPE_TE
libkicommon.so.9.0.1:_ZN7PROJECT10SetRStringENS_9RSTRING_TERK8wxString
libkicommon.so.9.0.1:_ZN7PROJECT12GetSheetNameERK4KIID
libkicommon.so.9.0.1:_ZN7PROJECT12UnpinLibraryERK8wxStringNS_10LIB_TYPE_TE
libkicommon.so.9.0.1:_ZN7PROJECT13ApplyTextVarsERKSt3mapI8wxStringS1_St4lessIS1_ESaISt4pairIKS1_S1_EEE
libkicommon.so.9.0.1:_ZN7PROJECT15DesignBlockLibsEv
libkicommon.so.9.0.1:_ZN7PROJECT16PcbFootprintLibsER5KIWAY
libkicommon.so.9.0.1:_ZN7PROJECT18setProjectFullNameERK8wxString
libkicommon.so.9.0.1:_ZN7PROJECT7GetElemENS_4ELEME
libkicommon.so.9.0.1:_ZN7PROJECT7SetElemENS_4ELEMEPNS_5_ELEME
libkicommon.so.9.0.1:_ZN7PROJECTC1Ev
libkicommon.so.9.0.1:_ZN7PROJECTC2Ev
libkicommon.so.9.0.1:_ZN7PROJECTD0Ev
libkicommon.so.9.0.1:_ZN7PROJECTD1Ev
libkicommon.so.9.0.1:_ZN7PROJECTD2Ev
libkicommon.so.9.0.1:_ZN8DSNLEXER10NeedNUMBEREPKc
libkicommon.so.9.0.1:_ZN8DSNLEXER10NeedSYMBOLEv
libkicommon.so.9.0.1:_ZN8DSNLEXER10PushReaderEP11LINE_READER
libkicommon.so.9.0.1:_ZN8DSNLEXER11parseDoubleEv
libkicommon.so.9.0.1:_ZN8DSNLEXER15InitParserStateEv
libkicommon.so.9.0.1:_ZN8DSNLEXER15SetSpecctraModeEb
libkicommon.so.9.0.1:_ZN8DSNLEXER16ReadCommentLinesEv
libkicommon.so.9.0.1:_ZN8DSNLEXER18NeedSYMBOLorNUMBEREv
libkicommon.so.9.0.1:_ZN8DSNLEXER18SyncLineReaderWithERS_
libkicommon.so.9.0.1:_ZN8DSNLEXER4initEv
libkicommon.so.9.0.1:_ZN8DSNLEXER6SyntaxEi
libkicommon.so.9.0.1:_ZN8DSNLEXER7NeedBAREv
libkicommon.so.9.0.1:_ZN8DSNLEXER7NextTokEv
libkicommon.so.9.0.1:_ZN8DSNLEXER8IsSymbolEi
libkicommon.so.9.0.1:_ZN8DSNLEXER8NeedLEFTEv
libkicommon.so.9.0.1:_ZN8DSNLEXER9DuplicateEi
libkicommon.so.9.0.1:_ZN8DSNLEXER9NeedRIGHTEv
libkicommon.so.9.0.1:_ZN8DSNLEXER9PopReaderEv
libkicommon.so.9.0.1:_ZN8DSNLEXERC1EPK7KEYWORDjPKSt13unordered_mapIPKci6fnv_1a9iequal_toSaISt4pairIKS5_iEEEP11LINE_READER
libkicommon.so.9.0.1:_ZN8DSNLEXERC1EPK7KEYWORDjPKSt13unordered_mapIPKci6fnv_1a9iequal_toSaISt4pairIKS5_iEEEP8_IO_FILERK8wxString
libkicommon.so.9.0.1:_ZN8DSNLEXERC1EPK7KEYWORDjPKSt13unordered_mapIPKci6fnv_1a9iequal_toSaISt4pairIKS5_iEEERKNSt7__cxx1112basic_stringIcSt11char_traitsIcESaIcEEERK8wxString
libkicommon.so.9.0.1:_ZN8DSNLEXERC1ERKNSt7__cxx1112basic_stringIcSt11char_traitsIcESaIcEEERK8wxString
libkicommon.so.9.0.1:_ZN8DSNLEXERC2EPK7KEYWORDjPKSt13unordered_mapIPKci6fnv_1a9iequal_toSaISt4pairIKS5_iEEEP11LINE_READER
libkicommon.so.9.0.1:_ZN8DSNLEXERC2EPK7KEYWORDjPKSt13unordered_mapIPKci6fnv_1a9iequal_toSaISt4pairIKS5_iEEEP8_IO_FILERK8wxString
libkicommon.so.9.0.1:_ZN8DSNLEXERC2EPK7KEYWORDjPKSt13unordered_mapIPKci6fnv_1a9iequal_toSaISt4pairIKS5_iEEERKNSt7__cxx1112basic_stringIcSt11char_traitsIcESaIcEEERK8wxString
libkicommon.so.9.0.1:_ZN8DSNLEXERC2ERKNSt7__cxx1112basic_stringIcSt11char_traitsIcESaIcEEERK8wxString
libkicommon.so.9.0.1:_ZN8DSNLEXERD0Ev
libkicommon.so.9.0.1:_ZN8DSNLEXERD1Ev
libkicommon.so.9.0.1:_ZN8DSNLEXERD2Ev
libkicommon.so.9.0.1:_ZN8IO_ERROR4initERK8wxStringPKcS4_i
libkicommon.so.9.0.1:_ZN8IO_UTILS20fileStartsWithPrefixERK8wxStringS2_b
libkicommon.so.9.0.1:_ZN8IO_UTILS26fileStartsWithBinaryHeaderERK8wxStringRKSt6vectorIhSaIhEE
libkicommon.so.9.0.1:_ZN8KIDIALOG10getCaptionENS_7KD_TYPEERK8wxString
libkicommon.so.9.0.1:_ZN8KIDIALOG14ForceShowAgainEv
libkicommon.so.9.0.1:_ZN8KIDIALOG17DoNotShowCheckboxE8wxStringi
libkicommon.so.9.0.1:_ZN8KIDIALOG4ShowEb
libkicommon.so.9.0.1:_ZN8KIDIALOG8getStyleENS_7KD_TYPEE
libkicommon.so.9.0.1:_ZN8KIDIALOG9ShowModalEv
libkicommon.so.9.0.1:_ZN8KIDIALOGC1EP8wxWindowRK8wxStringNS_7KD_TYPEES4_
libkicommon.so.9.0.1:_ZN8KIDIALOGC1EP8wxWindowRK8wxStringS4_l
libkicommon.so.9.0.1:_ZN8KIDIALOGC2EP8wxWindowRK8wxStringNS_7KD_TYPEES4_
libkicommon.so.9.0.1:_ZN8KIDIALOGC2EP8wxWindowRK8wxStringS4_l
libkicommon.so.9.0.1:_ZN8NETCLASS11DeserializeERKN6google8protobuf3AnyE
libkicommon.so.9.0.1:_ZN8NETCLASS12ResetParentsEv
libkicommon.so.9.0.1:_ZN8NETCLASS15ResetParametersEv
libkicommon.so.9.0.1:_ZN8NETCLASS24SetConstituentNetclassesEOSt6vectorIPS_SaIS1_EE
libkicommon.so.9.0.1:_ZN8NETCLASSC1ERK8wxStringb
libkicommon.so.9.0.1:_ZN8NETCLASSC2ERK8wxStringb
libkicommon.so.9.0.1:_ZN8PGM_BASE10HideSplashEv
libkicommon.so.9.0.1:_ZN8PGM_BASE10ShowSplashEv
libkicommon.so.9.0.1:_ZN8PGM_BASE11SetLanguageER8wxStringb
libkicommon.so.9.0.1:_ZN8PGM_BASE12HandleAssertERK8wxStringiS2_S2_S2_
libkicommon.so.9.0.1:_ZN8PGM_BASE13BuildArgvUtf8Ev
libkicommon.so.9.0.1:_ZN8PGM_BASE13GetTextEditorEb
libkicommon.so.9.0.1:_ZN8PGM_BASE13SetTextEditorERK8wxString
libkicommon.so.9.0.1:_ZN8PGM_BASE14GetLanguageTagEv
libkicommon.so.9.0.1:_ZN8PGM_BASE15HandleExceptionENSt15__exception_ptr13exception_ptrE
libkicommon.so.9.0.1:_ZN8PGM_BASE15SetLanguagePathEv
libkicommon.so.9.0.1:_ZN8PGM_BASE18SaveCommonSettingsEv
libkicommon.so.9.0.1:_ZN8PGM_BASE18SetDefaultLanguageER8wxString
libkicommon.so.9.0.1:_ZN8PGM_BASE18loadCommonSettingsEv
libkicommon.so.9.0.1:_ZN8PGM_BASE19ReadPdfBrowserInfosEv
libkicommon.so.9.0.1:_ZN8PGM_BASE19SetLocalEnvVariableERK8wxStringS2_
libkicommon.so.9.0.1:_ZN8PGM_BASE20SetLocalEnvVariablesEv
libkicommon.so.9.0.1:_ZN8PGM_BASE20WritePdfBrowserInfosEv
libkicommon.so.9.0.1:_ZN8PGM_BASE21SetLanguageIdentifierEi
libkicommon.so.9.0.1:_ZN8PGM_BASE25AskUserForPreferredEditorERK8wxString
libkicommon.so.9.0.1:_ZN8PGM_BASE3AppEv
libkicommon.so.9.0.1:_ZN8PGM_BASE5IsGUIEv
libkicommon.so.9.0.1:_ZN8PGM_BASE7DestroyEv
libkicommon.so.9.0.1:_ZN8PGM_BASE7InitPgmEbbb
libkicommon.so.9.0.1:_ZN8PGM_BASEC1Ev
libkicommon.so.9.0.1:_ZN8PGM_BASEC2Ev
libkicommon.so.9.0.1:_ZN8PGM_BASED0Ev
libkicommon.so.9.0.1:_ZN8PGM_BASED1Ev
libkicommon.so.9.0.1:_ZN8PGM_BASED2Ev
libkicommon.so.9.0.1:_ZN8REPORTER6ReportEPKc8SEVERITY
libkicommon.so.9.0.1:_ZN9KIID_PATH14MakeRelativeToERKS_
libkicommon.so.9.0.1:_ZN9KIID_PATHC1ERK8wxString
libkicommon.so.9.0.1:_ZN9KIID_PATHC2ERK8wxString
libkicommon.so.9.0.1:_ZN9LIB_TABLE10ReplaceRowEmP13LIB_TABLE_ROW
libkicommon.so.9.0.1:_ZN9LIB_TABLE11doInsertRowEP13LIB_TABLE_ROWb
libkicommon.so.9.0.1:_ZN9LIB_TABLE12FindRowByURIERK8wxString
libkicommon.so.9.0.1:_ZN9LIB_TABLE12ParseOptionsERKNSt7__cxx1112basic_stringIcSt11char_traitsIcESaIcEEE
libkicommon.so.9.0.1:_ZN9LIB_TABLE12TransferRowsERN5boost10ptr_vectorI13LIB_TABLE_ROWNS0_20heap_clone_allocatorEvEE
libkicommon.so.9.0.1:_ZN9LIB_TABLE13FormatOptionsEPKSt3mapINSt7__cxx1112basic_stringIcSt11char_traitsIcESaIcEEE4UTF8St4lessIS6_ESaISt4pairIKS6_S7_EEE
libkicommon.so.9.0.1:_ZN9LIB_TABLE14ChangeRowOrderEmi
libkicommon.so.9.0.1:_ZN9LIB_TABLE14GetDescriptionERK8wxString
libkicommon.so.9.0.1:_ZN9LIB_TABLE14GetLogicalLibsEv
libkicommon.so.9.0.1:_ZN9LIB_TABLE4LoadERK8wxString
libkicommon.so.9.0.1:_ZN9LIB_TABLE5clearEv
libkicommon.so.9.0.1:_ZN9LIB_TABLE7IsEmptyEb
libkicommon.so.9.0.1:_ZN9LIB_TABLE7migrateEv
libkicommon.so.9.0.1:_ZN9LIB_TABLE7reindexEv
libkicommon.so.9.0.1:_ZN9LIB_TABLE9InsertRowEP13LIB_TABLE_ROWb
libkicommon.so.9.0.1:_ZN9LIB_TABLE9RemoveRowEPK13LIB_TABLE_ROW
libkicommon.so.9.0.1:_ZN9LIB_TABLEC1EPS_St10unique_ptrI12LIB_TABLE_IOSt14default_deleteIS2_EE
libkicommon.so.9.0.1:_ZN9LIB_TABLEC2EPS_St10unique_ptrI12LIB_TABLE_IOSt14default_deleteIS2_EE
libkicommon.so.9.0.1:_ZN9LIB_TABLED0Ev
libkicommon.so.9.0.1:_ZN9LIB_TABLED1Ev
libkicommon.so.9.0.1:_ZN9LIB_TABLED2Ev
libkicommon.so.9.0.1:_ZN9LOCALE_IOC1Ev
libkicommon.so.9.0.1:_ZN9LOCALE_IOC2Ev
libkicommon.so.9.0.1:_ZN9LOCALE_IOD1Ev
libkicommon.so.9.0.1:_ZN9LOCALE_IOD2Ev
libkicommon.so.9.0.1:_ZN9PAGE_INFO11SetPortraitEb
libkicommon.so.9.0.1:_ZN9PAGE_INFO12SetWidthMilsEd
libkicommon.so.9.0.1:_ZN9PAGE_INFO13SetHeightMilsEd
libkicommon.so.9.0.1:_ZN9PAGE_INFO18SetCustomWidthMilsEd
libkicommon.so.9.0.1:_ZN9PAGE_INFO19SetCustomHeightMilsEd
libkicommon.so.9.0.1:_ZN9PAGE_INFO7SetTypeERK8wxStringb
libkicommon.so.9.0.1:_ZN9PAGE_INFOC1ERK7VECTOR2IdERK8wxString11wxPaperSize
libkicommon.so.9.0.1:_ZN9PAGE_INFOC1ERK8wxStringb
libkicommon.so.9.0.1:_ZN9PAGE_INFOC2ERK7VECTOR2IdERK8wxString11wxPaperSize
libkicommon.so.9.0.1:_ZN9PAGE_INFOC2ERK8wxStringb
libkicommon.so.9.0.1:_ZN9PARAM_CFGC1ERK8wxString11paramcfg_idPKwS2_
libkicommon.so.9.0.1:_ZN9PARAM_CFGC2ERK8wxString11paramcfg_idPKwS2_
libkicommon.so.9.0.1:_ZN9PARAM_MAPIbE10SetDefaultEv
libkicommon.so.9.0.1:_ZN9PARAM_MAPIbEC1ERKNSt7__cxx1112basic_stringIcSt11char_traitsIcESaIcEEEPSt3mapIS6_bSt4lessIS6_ESaISt4pairIS7_bEEESt16initializer_listISD_Eb
libkicommon.so.9.0.1:_ZN9PARAM_MAPIbEC2ERKNSt7__cxx1112basic_stringIcSt11char_traitsIcESaIcEEEPSt3mapIS6_bSt4lessIS6_ESaISt4pairIS7_bEEESt16initializer_listISD_Eb
libkicommon.so.9.0.1:_ZN9PARAM_MAPIdE10SetDefaultEv
libkicommon.so.9.0.1:_ZN9PARAM_MAPIdEC1ERKNSt7__cxx1112basic_stringIcSt11char_traitsIcESaIcEEEPSt3mapIS6_dSt4lessIS6_ESaISt4pairIS7_dEEESt16initializer_listISD_Eb
libkicommon.so.9.0.1:_ZN9PARAM_MAPIdEC2ERKNSt7__cxx1112basic_stringIcSt11char_traitsIcESaIcEEEPSt3mapIS6_dSt4lessIS6_ESaISt4pairIS7_dEEESt16initializer_listISD_Eb
libkicommon.so.9.0.1:_ZN9PARAM_MAPIiE10SetDefaultEv
libkicommon.so.9.0.1:_ZN9PARAM_MAPIiEC1ERKNSt7__cxx1112basic_stringIcSt11char_traitsIcESaIcEEEPSt3mapIS6_iSt4lessIS6_ESaISt4pairIS7_iEEESt16initializer_listISD_Eb
libkicommon.so.9.0.1:_ZN9PARAM_MAPIiEC2ERKNSt7__cxx1112basic_stringIcSt11char_traitsIcESaIcEEEPSt3mapIS6_iSt4lessIS6_ESaISt4pairIS7_iEEESt16initializer_listISD_Eb
libkicommon.so.9.0.1:_ZN9PARAM_SETI8wxStringE10SetDefaultEv
libkicommon.so.9.0.1:_ZN9PARAM_SETI8wxStringEC1ERKNSt7__cxx1112basic_stringIcSt11char_traitsIcESaIcEEEPSt3setIS0_St4lessIS0_ESaIS0_EESE_b
libkicommon.so.9.0.1:_ZN9PARAM_SETI8wxStringEC1ERKNSt7__cxx1112basic_stringIcSt11char_traitsIcESaIcEEEPSt3setIS0_St4lessIS0_ESaIS0_EESt16initializer_listIS0_Eb
libkicommon.so.9.0.1:_ZN9PARAM_SETI8wxStringEC2ERKNSt7__cxx1112basic_stringIcSt11char_traitsIcESaIcEEEPSt3setIS0_St4lessIS0_ESaIS0_EESE_b
libkicommon.so.9.0.1:_ZN9PARAM_SETI8wxStringEC2ERKNSt7__cxx1112basic_stringIcSt11char_traitsIcESaIcEEEPSt3setIS0_St4lessIS0_ESaIS0_EESt16initializer_listIS0_Eb
libkicommon.so.9.0.1:_ZN9SCRIPTING13IsWxAvailableEv
libkicommon.so.9.0.1:_ZN9SCRIPTING13PyPluginsPathENS_9PATH_TYPEE
libkicommon.so.9.0.1:_ZN9SCRIPTING14IsModuleLoadedERNSt7__cxx1112basic_stringIcSt11char_traitsIcESaIcEEE
libkicommon.so.9.0.1:_ZN9SCRIPTING14scriptingSetupEv
libkicommon.so.9.0.1:_ZN9SCRIPTING15PyScriptingPathENS_9PATH_TYPEE
libkicommon.so.9.0.1:_ZN9SCRIPTINGC1Ev
libkicommon.so.9.0.1:_ZN9SCRIPTINGC2Ev
libkicommon.so.9.0.1:_ZN9SCRIPTINGD1Ev
libkicommon.so.9.0.1:_ZN9SCRIPTINGD2Ev
libkicommon.so.9.0.1:_ZNK10API_PLUGIN10IdentifierEv
libkicommon.so.9.0.1:_ZNK10API_PLUGIN11DescriptionEv
libkicommon.so.9.0.1:_ZNK10API_PLUGIN17ActionSettingsKeyERK13PLUGIN_ACTION
libkicommon.so.9.0.1:_ZNK10API_PLUGIN4IsOkEv
libkicommon.so.9.0.1:_ZNK10API_PLUGIN4NameEv
libkicommon.so.9.0.1:_ZNK10API_PLUGIN7ActionsEv
libkicommon.so.9.0.1:_ZNK10API_PLUGIN7RuntimeEv
libkicommon.so.9.0.1:_ZNK10API_PLUGIN8BasePathEv
libkicommon.so.9.0.1:_ZNK10ARRAY_AXIS11GetAlphabetEv
libkicommon.so.9.0.1:_ZNK10ARRAY_AXIS13GetItemNumberEi
libkicommon.so.9.0.1:_ZNK10ARRAY_AXIS18getNumberingOffsetERK8wxString
libkicommon.so.9.0.1:_ZNK10ARRAY_AXIS9GetOffsetEv
libkicommon.so.9.0.1:_ZNK10BOM_PRESETeqERKS_
libkicommon.so.9.0.1:_ZNK10JOBSET_JOB14GetDescriptionEv
libkicommon.so.9.0.1:_ZNK10JOBSET_JOBeqERKS_
libkicommon.so.9.0.1:_ZNK10PARAM_LISTI10BOM_PRESETE11MatchesFileERK13JSON_SETTINGS
libkicommon.so.9.0.1:_ZNK10PARAM_LISTI10BOM_PRESETE4LoadERK13JSON_SETTINGSb
libkicommon.so.9.0.1:_ZNK10PARAM_LISTI10BOM_PRESETE5StoreEP13JSON_SETTINGS
libkicommon.so.9.0.1:_ZNK10PARAM_LISTI10JOBSET_JOBE11MatchesFileERK13JSON_SETTINGS
libkicommon.so.9.0.1:_ZNK10PARAM_LISTI10JOBSET_JOBE4LoadERK13JSON_SETTINGSb
libkicommon.so.9.0.1:_ZNK10PARAM_LISTI10JOBSET_JOBE5StoreEP13JSON_SETTINGS
libkicommon.so.9.0.1:_ZNK10PARAM_LISTI14BOM_FMT_PRESETE11MatchesFileERK13JSON_SETTINGS
libkicommon.so.9.0.1:_ZNK10PARAM_LISTI14BOM_FMT_PRESETE4LoadERK13JSON_SETTINGSb
libkicommon.so.9.0.1:_ZNK10PARAM_LISTI14BOM_FMT_PRESETE5StoreEP13JSON_SETTINGS
libkicommon.so.9.0.1:_ZNK10PARAM_LISTI18JOBSET_DESTINATIONE11MatchesFileERK13JSON_SETTINGS
libkicommon.so.9.0.1:_ZNK10PARAM_LISTI18JOBSET_DESTINATIONE4LoadERK13JSON_SETTINGSb
libkicommon.so.9.0.1:_ZNK10PARAM_LISTI18JOBSET_DESTINATIONE5StoreEP13JSON_SETTINGS
libkicommon.so.9.0.1:_ZNK10PARAM_LISTI4GRIDE11MatchesFileERK13JSON_SETTINGS
libkicommon.so.9.0.1:_ZNK10PARAM_LISTI4GRIDE4LoadERK13JSON_SETTINGSb
libkicommon.so.9.0.1:_ZNK10PARAM_LISTI4GRIDE5StoreEP13JSON_SETTINGS
libkicommon.so.9.0.1:_ZNK10PARAM_LISTI8wxStringE11MatchesFileERK13JSON_SETTINGS
libkicommon.so.9.0.1:_ZNK10PARAM_LISTI8wxStringE4LoadERK13JSON_SETTINGSb
libkicommon.so.9.0.1:_ZNK10PARAM_LISTI8wxStringE5StoreEP13JSON_SETTINGS
libkicommon.so.9.0.1:_ZNK10PARAM_LISTIN5KIGFX7COLOR4DEE11MatchesFileERK13JSON_SETTINGS
libkicommon.so.9.0.1:_ZNK10PARAM_LISTIN5KIGFX7COLOR4DEE4LoadERK13JSON_SETTINGSb
libkicommon.so.9.0.1:_ZNK10PARAM_LISTIN5KIGFX7COLOR4DEE5StoreEP13JSON_SETTINGS
libkicommon.so.9.0.1:_ZNK10PARAM_LISTIbE11MatchesFileERK13JSON_SETTINGS
libkicommon.so.9.0.1:_ZNK10PARAM_LISTIbE4LoadERK13JSON_SETTINGSb
libkicommon.so.9.0.1:_ZNK10PARAM_LISTIbE5StoreEP13JSON_SETTINGS
libkicommon.so.9.0.1:_ZNK10PARAM_LISTIdE11MatchesFileERK13JSON_SETTINGS
libkicommon.so.9.0.1:_ZNK10PARAM_LISTIdE4LoadERK13JSON_SETTINGSb
libkicommon.so.9.0.1:_ZNK10PARAM_LISTIdE5StoreEP13JSON_SETTINGS
libkicommon.so.9.0.1:_ZNK10PARAM_LISTIiE11MatchesFileERK13JSON_SETTINGS
libkicommon.so.9.0.1:_ZNK10PARAM_LISTIiE4LoadERK13JSON_SETTINGSb
libkicommon.so.9.0.1:_ZNK10PARAM_LISTIiE5StoreEP13JSON_SETTINGS
libkicommon.so.9.0.1:_ZNK11DIALOG_SHIM13GetEventTableEv
libkicommon.so.9.0.1:_ZNK11DIALOG_SHIM16vertPixelsFromDUEi
libkicommon.so.9.0.1:_ZNK11DIALOG_SHIM17GetEventHashTableEv
libkicommon.so.9.0.1:_ZNK11DIALOG_SHIM17horizPixelsFromDUEi
libkicommon.so.9.0.1:_ZNK11JOB_PCB_DRC21GetDefaultDescriptionEv
libkicommon.so.9.0.1:_ZNK11JOB_PCB_DRC22GetSettingsDialogTitleEv
libkicommon.so.9.0.1:_ZNK11JOB_SCH_ERC21GetDefaultDescriptionEv
libkicommon.so.9.0.1:_ZNK11JOB_SCH_ERC22GetSettingsDialogTitleEv
libkicommon.so.9.0.1:_ZNK11TITLE_BLOCK15TextVarResolverEP8wxStringPK7PROJECTi
libkicommon.so.9.0.1:_ZNK11TITLE_BLOCK6FormatEP15OUTPUTFORMATTER
libkicommon.so.9.0.1:_ZNK11WX_FILENAME11GetFullNameEv
libkicommon.so.9.0.1:_ZNK11WX_FILENAME11GetFullPathEv
libkicommon.so.9.0.1:_ZNK11WX_FILENAME7GetNameEv
libkicommon.so.9.0.1:_ZNK11WX_FILENAME7GetPathEv
libkicommon.so.9.0.1:_ZNK12CLI_REPORTER20HasMessageOfSeverityEi
libkicommon.so.9.0.1:_ZNK12KIWAY_HOLDER3PrjEv
libkicommon.so.9.0.1:_ZNK12NET_SETTINGS11HasNetclassERK8wxString
libkicommon.so.9.0.1:_ZNK12NET_SETTINGS13GetNetclassesEv
libkicommon.so.9.0.1:_ZNK12NET_SETTINGS17GetNetClassByNameERK8wxString
libkicommon.so.9.0.1:_ZNK12NET_SETTINGS18addMissingDefaultsEP8NETCLASS
libkicommon.so.9.0.1:_ZNK12NET_SETTINGS20HasEffectiveNetClassERK8wxString
libkicommon.so.9.0.1:_ZNK12NET_SETTINGS21makeEffectiveNetclassERSt10shared_ptrI8NETCLASSERSt6vectorIPS1_SaIS5_EE
libkicommon.so.9.0.1:_ZNK12NET_SETTINGS22GetCompositeNetclassesEv
libkicommon.so.9.0.1:_ZNK12NET_SETTINGS22GetNetColorAssignmentsEv
libkicommon.so.9.0.1:_ZNK12NET_SETTINGS26GetCachedEffectiveNetClassERK8wxString
libkicommon.so.9.0.1:_ZNK12NET_SETTINGS26HasNetclassLabelAssignmentERK8wxString
libkicommon.so.9.0.1:_ZNK12NET_SETTINGS27GetNetclassLabelAssignmentsEv
libkicommon.so.9.0.1:_ZNK12NET_SETTINGSeqERKS_
libkicommon.so.9.0.1:_ZNK12PARAM_LAMBDAIN8nlohmann16json_abi_v3_11_310basic_jsonISt3mapSt6vectorNSt7__cxx1112basic_stringIcSt11char_traitsIcESaIcEEEblmdSaNS1_14adl_serializerES4_IhSaIhEEvEEE10GetDefaultEv
libkicommon.so.9.0.1:_ZNK12PARAM_LAMBDAIN8nlohmann16json_abi_v3_11_310basic_jsonISt3mapSt6vectorNSt7__cxx1112basic_stringIcSt11char_traitsIcESaIcEEEblmdSaNS1_14adl_serializerES4_IhSaIhEEvEEE11MatchesFileERK13JSON_SETTINGS
libkicommon.so.9.0.1:_ZNK12PARAM_LAMBDAIN8nlohmann16json_abi_v3_11_310basic_jsonISt3mapSt6vectorNSt7__cxx1112basic_stringIcSt11char_traitsIcESaIcEEEblmdSaNS1_14adl_serializerES4_IhSaIhEEvEEE4LoadERK13JSON_SETTINGSb
libkicommon.so.9.0.1:_ZNK12PARAM_LAMBDAIN8nlohmann16json_abi_v3_11_310basic_jsonISt3mapSt6vectorNSt7__cxx1112basic_stringIcSt11char_traitsIcESaIcEEEblmdSaNS1_14adl_serializerES4_IhSaIhEEvEEE5StoreEP13JSON_SETTINGS
libkicommon.so.9.0.1:_ZNK12PARAM_LAMBDAINSt7__cxx1112basic_stringIcSt11char_traitsIcESaIcEEEE10GetDefaultEv
libkicommon.so.9.0.1:_ZNK12PARAM_LAMBDAINSt7__cxx1112basic_stringIcSt11char_traitsIcESaIcEEEE11MatchesFileERK13JSON_SETTINGS
libkicommon.so.9.0.1:_ZNK12PARAM_LAMBDAINSt7__cxx1112basic_stringIcSt11char_traitsIcESaIcEEEE4LoadERK13JSON_SETTINGSb
libkicommon.so.9.0.1:_ZNK12PARAM_LAMBDAINSt7__cxx1112basic_stringIcSt11char_traitsIcESaIcEEEE5StoreEP13JSON_SETTINGS
libkicommon.so.9.0.1:_ZNK12PARAM_LAMBDAIbE10GetDefaultEv
libkicommon.so.9.0.1:_ZNK12PARAM_LAMBDAIbE11MatchesFileERK13JSON_SETTINGS
libkicommon.so.9.0.1:_ZNK12PARAM_LAMBDAIbE4LoadERK13JSON_SETTINGSb
libkicommon.so.9.0.1:_ZNK12PARAM_LAMBDAIbE5StoreEP13JSON_SETTINGS
libkicommon.so.9.0.1:_ZNK12PARAM_LAMBDAIiE10GetDefaultEv
libkicommon.so.9.0.1:_ZNK12PARAM_LAMBDAIiE11MatchesFileERK13JSON_SETTINGS
libkicommon.so.9.0.1:_ZNK12PARAM_LAMBDAIiE4LoadERK13JSON_SETTINGSb
libkicommon.so.9.0.1:_ZNK12PARAM_LAMBDAIiE5StoreEP13JSON_SETTINGS
libkicommon.so.9.0.1:_ZNK12PROJECT_FILE10getFileExtEv
libkicommon.so.9.0.1:_ZNK12PROJECT_FILE16getLegacyFileExtEv
libkicommon.so.9.0.1:_ZNK12SERIALIZABLE9SerializeERN6google8protobuf3AnyE
libkicommon.so.9.0.1:_ZNK13BITMAP_BUTTON13DoGetBestSizeEv
libkicommon.so.9.0.1:_ZNK13BITMAP_BUTTON9IsCheckedEv
libkicommon.so.9.0.1:_ZNK13JSON_SETTINGS15GetFullFilenameEv
libkicommon.so.9.0.1:_ZNK13JSON_SETTINGS3GetI10BOM_PRESETEESt8optionalIT_ERKNSt7__cxx1112basic_stringIcSt11char_traitsIcESaIcEEE
libkicommon.so.9.0.1:_ZNK13JSON_SETTINGS3GetI13wxAuiPaneInfoEESt8optionalIT_ERKNSt7__cxx1112basic_stringIcSt11char_traitsIcESaIcEEE
libkicommon.so.9.0.1:_ZNK13JSON_SETTINGS3GetI14BOM_FMT_PRESETEESt8optionalIT_ERKNSt7__cxx1112basic_stringIcSt11char_traitsIcESaIcEEE
libkicommon.so.9.0.1:_ZNK13JSON_SETTINGS3GetI4GRIDEESt8optionalIT_ERKNSt7__cxx1112basic_stringIcSt11char_traitsIcESaIcEEE
libkicommon.so.9.0.1:_ZNK13JSON_SETTINGS3GetI6wxRectEESt8optionalIT_ERKNSt7__cxx1112basic_stringIcSt11char_traitsIcESaIcEEE
libkicommon.so.9.0.1:_ZNK13JSON_SETTINGS3GetI6wxSizeEESt8optionalIT_ERKNSt7__cxx1112basic_stringIcSt11char_traitsIcESaIcEEE
libkicommon.so.9.0.1:_ZNK13JSON_SETTINGS3GetI7wxPointEESt8optionalIT_ERKNSt7__cxx1112basic_stringIcSt11char_traitsIcESaIcEEE
libkicommon.so.9.0.1:_ZNK13JSON_SETTINGS3GetI8wxStringEESt8optionalIT_ERKNSt7__cxx1112basic_stringIcSt11char_traitsIcESaIcEEE
libkicommon.so.9.0.1:_ZNK13JSON_SETTINGS3GetI9BOM_FIELDEESt8optionalIT_ERKNSt7__cxx1112basic_stringIcSt11char_traitsIcESaIcEEE
libkicommon.so.9.0.1:_ZNK13JSON_SETTINGS3GetIN5KIGFX7COLOR4DEEESt8optionalIT_ERKNSt7__cxx1112basic_stringIcSt11char_traitsIcESaIcEEE
libkicommon.so.9.0.1:_ZNK13JSON_SETTINGS3GetIN8nlohmann16json_abi_v3_11_310basic_jsonISt3mapSt6vectorNSt7__cxx1112basic_stringIcSt11char_traitsIcESaIcEEEblmdSaNS2_14adl_serializerES5_IhSaIhEEvEEEESt8optionalIT_ERKSB_
libkicommon.so.9.0.1:_ZNK13JSON_SETTINGS3GetINSt7__cxx1112basic_stringIcSt11char_traitsIcESaIcEEEEESt8optionalIT_ERKS6_
libkicommon.so.9.0.1:_ZNK13JSON_SETTINGS3GetIbEESt8optionalIT_ERKNSt7__cxx1112basic_stringIcSt11char_traitsIcESaIcEEE
libkicommon.so.9.0.1:_ZNK13JSON_SETTINGS3GetIdEESt8optionalIT_ERKNSt7__cxx1112basic_stringIcSt11char_traitsIcESaIcEEE
libkicommon.so.9.0.1:_ZNK13JSON_SETTINGS3GetIfEESt8optionalIT_ERKNSt7__cxx1112basic_stringIcSt11char_traitsIcESaIcEEE
libkicommon.so.9.0.1:_ZNK13JSON_SETTINGS3GetIiEESt8optionalIT_ERKNSt7__cxx1112basic_stringIcSt11char_traitsIcESaIcEEE
libkicommon.so.9.0.1:_ZNK13JSON_SETTINGS3GetIjEESt8optionalIT_ERKNSt7__cxx1112basic_stringIcSt11char_traitsIcESaIcEEE
libkicommon.so.9.0.1:_ZNK13JSON_SETTINGS3GetIyEESt8optionalIT_ERKNSt7__cxx1112basic_stringIcSt11char_traitsIcESaIcEEE
libkicommon.so.9.0.1:_ZNK13JSON_SETTINGS7GetJsonERKNSt7__cxx1112basic_stringIcSt11char_traitsIcESaIcEEE
libkicommon.so.9.0.1:_ZNK13JSON_SETTINGS8ContainsERKNSt7__cxx1112basic_stringIcSt11char_traitsIcESaIcEEE
libkicommon.so.9.0.1:_ZNK13LIB_TABLE_ROW10GetFullURIEb
libkicommon.so.9.0.1:_ZNK13LIB_TABLE_ROW6FormatEP15OUTPUTFORMATTERi
libkicommon.so.9.0.1:_ZNK13LIB_TABLE_ROWeqERKS_
libkicommon.so.9.0.1:_ZNK13PARAM_CFG_INT9ReadParamEP12wxConfigBase
libkicommon.so.9.0.1:_ZNK13PARAM_CFG_INT9SaveParamEP12wxConfigBase
libkicommon.so.9.0.1:_ZNK14BOM_FMT_PRESETeqERKS_
libkicommon.so.9.0.1:_ZNK14COLOR_SETTINGS8GetColorEi
libkicommon.so.9.0.1:_ZNK14JOB_PCB_RENDER21GetDefaultDescriptionEv
libkicommon.so.9.0.1:_ZNK14JOB_PCB_RENDER22GetSettingsDialogTitleEv
libkicommon.so.9.0.1:_ZNK14PARAM_CFG_BOOL9ReadParamEP12wxConfigBase
libkicommon.so.9.0.1:_ZNK14PARAM_CFG_BOOL9SaveParamEP12wxConfigBase
libkicommon.so.9.0.1:_ZNK15DESIGN_BLOCK_IO14GetLibraryDescEv
libkicommon.so.9.0.1:_ZNK15DESIGN_BLOCK_IO19GetLibraryTimestampERK8wxString
libkicommon.so.9.0.1:_ZNK15KICAD_CURL_EASY16GetTransferTotalERm
libkicommon.so.9.0.1:_ZNK15OUTPUTFORMATTER12GetQuoteCharEPKc
libkicommon.so.9.0.1:_ZNK15OUTPUTFORMATTER6QuotesERKNSt7__cxx1112basic_stringIcSt11char_traitsIcESaIcEEE
libkicommon.so.9.0.1:_ZNK15OUTPUTFORMATTER6QuotewB5cxx11ERK8wxString
libkicommon.so.9.0.1:_ZNK15PARAM_PATH_LIST11MatchesFileERK13JSON_SETTINGS
libkicommon.so.9.0.1:_ZNK15PARAM_PATH_LIST5StoreEP13JSON_SETTINGS
libkicommon.so.9.0.1:_ZNK16KICAD_API_SERVER10SocketPathB5cxx11Ev
libkicommon.so.9.0.1:_ZNK16KICAD_API_SERVER7RunningEv
libkicommon.so.9.0.1:_ZNK16PARAM_CFG_DOUBLE9ReadParamEP12wxConfigBase
libkicommon.so.9.0.1:_ZNK16PARAM_CFG_DOUBLE9SaveParamEP12wxConfigBase
libkicommon.so.9.0.1:_ZNK16SETTINGS_MANAGER10GetProjectERK8wxString
libkicommon.so.9.0.1:_ZNK16SETTINGS_MANAGER13BackupProjectER8REPORTERR10wxFileName
libkicommon.so.9.0.1:_ZNK16SETTINGS_MANAGER13IsProjectOpenEv
libkicommon.so.9.0.1:_ZNK16SETTINGS_MANAGER15GetOpenProjectsEv
libkicommon.so.9.0.1:_ZNK16SETTINGS_MANAGER21GetProjectBackupsPathEv
libkicommon.so.9.0.1:_ZNK16SETTINGS_MANAGER21IsProjectOpenNotDummyEv
libkicommon.so.9.0.1:_ZNK16SETTINGS_MANAGER21TriggerBackupIfNeededER8REPORTER
libkicommon.so.9.0.1:_ZNK16SETTINGS_MANAGER3PrjEv
libkicommon.so.9.0.1:_ZNK17APP_SETTINGS_BASE19DefaultGridSizeListEv
libkicommon.so.9.0.1:_ZNK17DESIGN_BLOCK_INFO9InLibraryERK8wxString
libkicommon.so.9.0.1:_ZNK17FILE_LIB_TABLE_IO12CanSaveToUriERK8wxString
libkicommon.so.9.0.1:_ZNK17FILE_LIB_TABLE_IO17UrisAreEquivalentERK8wxStringS2_
libkicommon.so.9.0.1:_ZNK17FILE_LIB_TABLE_IO9GetReaderERK8wxString
libkicommon.so.9.0.1:_ZNK17FILE_LIB_TABLE_IO9GetWriterERK8wxString
libkicommon.so.9.0.1:_ZNK17JOB_EXPORT_PCB_3D21GetDefaultDescriptionEv
libkicommon.so.9.0.1:_ZNK17JOB_EXPORT_PCB_3D22GetSettingsDialogTitleEv
libkicommon.so.9.0.1:_ZNK17NUMERIC_EVALUATOR12OriginalTextEv
libkicommon.so.9.0.1:_ZNK18ARRAY_GRID_OPTIONS12GetArraySizeEv
libkicommon.so.9.0.1:_ZNK18ARRAY_GRID_OPTIONS12GetTransformEiRK7VECTOR2IiE
libkicommon.so.9.0.1:_ZNK18ARRAY_GRID_OPTIONS13GetItemNumberEi
libkicommon.so.9.0.1:_ZNK18ARRAY_GRID_OPTIONS13getGridCoordsEi
libkicommon.so.9.0.1:_ZNK18ARRAY_GRID_OPTIONS24gtItemPosRelativeToItem0Ei
libkicommon.so.9.0.1:_ZNK18DPI_SCALING_COMMON14GetScaleFactorEv
libkicommon.so.9.0.1:_ZNK18DPI_SCALING_COMMON21GetCanvasIsAutoScaledEv
libkicommon.so.9.0.1:_ZNK18DPI_SCALING_COMMON21GetContentScaleFactorEv
libkicommon.so.9.0.1:_ZNK18JOBSET_DESTINATION14GetDescriptionEv
libkicommon.so.9.0.1:_ZNK18JOBSET_DESTINATIONeqERKS_
libkicommon.so.9.0.1:_ZNK18JOB_EXPORT_PCB_DXF21GetDefaultDescriptionEv
libkicommon.so.9.0.1:_ZNK18JOB_EXPORT_PCB_DXF22GetSettingsDialogTitleEv
libkicommon.so.9.0.1:_ZNK18JOB_EXPORT_PCB_ODB21GetDefaultDescriptionEv
libkicommon.so.9.0.1:_ZNK18JOB_EXPORT_PCB_ODB22GetSettingsDialogTitleEv
libkicommon.so.9.0.1:_ZNK18JOB_EXPORT_PCB_PDF21GetDefaultDescriptionEv
libkicommon.so.9.0.1:_ZNK18JOB_EXPORT_PCB_PDF22GetSettingsDialogTitleEv
libkicommon.so.9.0.1:_ZNK18JOB_EXPORT_PCB_POS21GetDefaultDescriptionEv
libkicommon.so.9.0.1:_ZNK18JOB_EXPORT_PCB_POS22GetSettingsDialogTitleEv
libkicommon.so.9.0.1:_ZNK18JOB_EXPORT_PCB_SVG21GetDefaultDescriptionEv
libkicommon.so.9.0.1:_ZNK18JOB_EXPORT_PCB_SVG22GetSettingsDialogTitleEv
libkicommon.so.9.0.1:_ZNK18JOB_EXPORT_SCH_BOM21GetDefaultDescriptionEv
libkicommon.so.9.0.1:_ZNK18JOB_EXPORT_SCH_BOM22GetSettingsDialogTitleEv
libkicommon.so.9.0.1:_ZNK18PARAM_CFG_FILENAME9ReadParamEP12wxConfigBase
libkicommon.so.9.0.1:_ZNK18PARAM_CFG_FILENAME9SaveParamEP12wxConfigBase
libkicommon.so.9.0.1:_ZNK18PARAM_CFG_WXSTRING9ReadParamEP12wxConfigBase
libkicommon.so.9.0.1:_ZNK18PARAM_CFG_WXSTRING9SaveParamEP12wxConfigBase
libkicommon.so.9.0.1:_ZNK18PARAM_WXSTRING_MAP11MatchesFileERK13JSON_SETTINGS
libkicommon.so.9.0.1:_ZNK18PARAM_WXSTRING_MAP4LoadERK13JSON_SETTINGSb
libkicommon.so.9.0.1:_ZNK18PARAM_WXSTRING_MAP5StoreEP13JSON_SETTINGS
libkicommon.so.9.0.1:_ZNK18STATUSBAR_REPORTER10HasMessageEv
libkicommon.so.9.0.1:_ZNK18STRING_INCREMENTER13incrementPartER8wxStringNS_16STRING_PART_TYPEEi
libkicommon.so.9.0.1:_ZNK18STRING_INCREMENTER9IncrementERK8wxStringim
libkicommon.so.9.0.1:_ZNK18WX_STRING_REPORTER10HasMessageEv
libkicommon.so.9.0.1:_ZNK18WX_STRING_REPORTER11GetMessagesEv
libkicommon.so.9.0.1:_ZNK18WX_STRING_REPORTER20HasMessageOfSeverityEi
libkicommon.so.9.0.1:_ZNK19JOBS_OUTPUT_ARCHIVE21GetDefaultDescriptionEv
libkicommon.so.9.0.1:_ZNK19JOBS_OUTPUT_ARCHIVE6ToJsonERN8nlohmann16json_abi_v3_11_310basic_jsonISt3mapSt6vectorNSt7__cxx1112basic_stringIcSt11char_traitsIcESaIcEEEblmdSaNS1_14adl_serializerES4_IhSaIhEEvEE
libkicommon.so.9.0.1:_ZNK19JOB_SPECIAL_EXECUTE21GetDefaultDescriptionEv
libkicommon.so.9.0.1:_ZNK20EDA_COMBINED_MATCHER10GetPatternEv
libkicommon.so.9.0.1:_ZNK20EXPORTER_STEP_PARAMS13GetFormatNameEv
libkicommon.so.9.0.1:_ZNK20EXPORTER_STEP_PARAMS25GetDefaultExportExtensionEv
libkicommon.so.9.0.1:_ZNK20JOB_EXPORT_PCB_DRILL21GetDefaultDescriptionEv
libkicommon.so.9.0.1:_ZNK20JOB_EXPORT_PCB_DRILL22GetSettingsDialogTitleEv
libkicommon.so.9.0.1:_ZNK20WX_HTML_REPORT_PANEL20GetVisibleSeveritiesEv
libkicommon.so.9.0.1:_ZNK21DATABASE_LIB_SETTINGS10getFileExtEv
libkicommon.so.9.0.1:_ZNK21JOB_EXPORT_PCB_GENCAD22GetSettingsDialogTitleEv
libkicommon.so.9.0.1:_ZNK21JOB_EXPORT_PCB_GERBER21GetDefaultDescriptionEv
libkicommon.so.9.0.1:_ZNK21JOB_EXPORT_PCB_GERBER22GetSettingsDialogTitleEv
libkicommon.so.9.0.1:_ZNK21JOB_SPECIAL_COPYFILES21GetDefaultDescriptionEv
libkicommon.so.9.0.1:_ZNK21JSON_SCHEMA_VALIDATOR8ValidateERKN8nlohmann16json_abi_v3_11_310basic_jsonISt3mapSt6vectorNSt7__cxx1112basic_stringIcSt11char_traitsIcESaIcEEEblmdSaNS1_14adl_serializerES4_IhSaIhEEvEERNS0_11json_schema13error_handlerERKNS0_8json_uriE
libkicommon.so.9.0.1:_ZNK21WX_TEXT_CTRL_REPORTER10HasMessageEv
libkicommon.so.9.0.1:_ZNK22ARRAY_CIRCULAR_OPTIONS12GetArraySizeEv
libkicommon.so.9.0.1:_ZNK22ARRAY_CIRCULAR_OPTIONS12GetTransformEiRK7VECTOR2IiE
libkicommon.so.9.0.1:_ZNK22ARRAY_CIRCULAR_OPTIONS13GetItemNumberEi
libkicommon.so.9.0.1:_ZNK22DESIGN_BLOCK_LIB_TABLE6FormatEP15OUTPUTFORMATTERi
libkicommon.so.9.0.1:_ZNK22DESIGN_BLOCK_LIB_TABLEeqERKS_
libkicommon.so.9.0.1:_ZNK22JOB_EXPORT_PCB_GERBERS21GetDefaultDescriptionEv
libkicommon.so.9.0.1:_ZNK22JOB_EXPORT_PCB_GERBERS22GetSettingsDialogTitleEv
libkicommon.so.9.0.1:_ZNK22JOB_EXPORT_PCB_IPC258121GetDefaultDescriptionEv
libkicommon.so.9.0.1:_ZNK22JOB_EXPORT_PCB_IPC258122GetSettingsDialogTitleEv
libkicommon.so.9.0.1:_ZNK22JOB_EXPORT_PCB_IPCD35621GetDefaultDescriptionEv
libkicommon.so.9.0.1:_ZNK22JOB_EXPORT_PCB_IPCD35622GetSettingsDialogTitleEv
libkicommon.so.9.0.1:_ZNK22JOB_EXPORT_SCH_NETLIST21GetDefaultDescriptionEv
libkicommon.so.9.0.1:_ZNK22JOB_EXPORT_SCH_NETLIST22GetSettingsDialogTitleEv
libkicommon.so.9.0.1:_ZNK22JOB_EXPORT_SCH_PLOT_PS21GetDefaultDescriptionEv
libkicommon.so.9.0.1:_ZNK22JOB_EXPORT_SCH_PLOT_PS22GetSettingsDialogTitleEv
libkicommon.so.9.0.1:_ZNK22PARAM_CFG_LIBNAME_LIST9ReadParamEP12wxConfigBase
libkicommon.so.9.0.1:_ZNK22PARAM_CFG_LIBNAME_LIST9SaveParamEP12wxConfigBase
libkicommon.so.9.0.1:_ZNK22PARAM_CFG_WXSTRING_SET9ReadParamEP12wxConfigBase
libkicommon.so.9.0.1:_ZNK22PARAM_CFG_WXSTRING_SET9SaveParamEP12wxConfigBase
libkicommon.so.9.0.1:_ZNK22PROGRESS_REPORTER_BASE15CurrentProgressEv
libkicommon.so.9.0.1:_ZNK22WX_HTML_PANEL_REPORTER10HasMessageEv
libkicommon.so.9.0.1:_ZNK22WX_HTML_PANEL_REPORTER20HasMessageOfSeverityEi
libkicommon.so.9.0.1:_ZNK23EDA_PATTERN_MATCH_REGEX10GetPatternEv
libkicommon.so.9.0.1:_ZNK23EDA_PATTERN_MATCH_REGEX4FindERK8wxString
libkicommon.so.9.0.1:_ZNK23JOB_EXPORT_SCH_PLOT_DXF21GetDefaultDescriptionEv
libkicommon.so.9.0.1:_ZNK23JOB_EXPORT_SCH_PLOT_DXF22GetSettingsDialogTitleEv
libkicommon.so.9.0.1:_ZNK23JOB_EXPORT_SCH_PLOT_PDF21GetDefaultDescriptionEv
libkicommon.so.9.0.1:_ZNK23JOB_EXPORT_SCH_PLOT_PDF22GetSettingsDialogTitleEv
libkicommon.so.9.0.1:_ZNK23JOB_EXPORT_SCH_PLOT_SVG21GetDefaultDescriptionEv
libkicommon.so.9.0.1:_ZNK23JOB_EXPORT_SCH_PLOT_SVG22GetSettingsDialogTitleEv
libkicommon.so.9.0.1:_ZNK24EDA_PATTERN_MATCH_SUBSTR10GetPatternEv
libkicommon.so.9.0.1:_ZNK24EDA_PATTERN_MATCH_SUBSTR4FindERK8wxString
libkicommon.so.9.0.1:_ZNK24JOB_EXPORT_SCH_PLOT_HPGL21GetDefaultDescriptionEv
libkicommon.so.9.0.1:_ZNK24JOB_EXPORT_SCH_PLOT_HPGL22GetSettingsDialogTitleEv
libkicommon.so.9.0.1:_ZNK24JOB_EXPORT_SCH_PYTHONBOM21GetDefaultDescriptionEv
libkicommon.so.9.0.1:_ZNK24PARAM_CFG_INT_WITH_SCALE9ReadParamEP12wxConfigBase
libkicommon.so.9.0.1:_ZNK24PARAM_CFG_INT_WITH_SCALE9SaveParamEP12wxConfigBase
libkicommon.so.9.0.1:_ZNK26DESIGN_BLOCK_LIB_TABLE_ROWeqERKS_
libkicommon.so.9.0.1:_ZNK26EDA_PATTERN_MATCH_WILDCARD10GetPatternEv
libkicommon.so.9.0.1:_ZNK26EDA_PATTERN_MATCH_WILDCARD4FindERK8wxString
libkicommon.so.9.0.1:_ZNK28EDA_PATTERN_MATCH_RELATIONAL10GetPatternEv
libkicommon.so.9.0.1:_ZNK28EDA_PATTERN_MATCH_RELATIONAL4FindERK8wxString
libkicommon.so.9.0.1:_ZNK28EDA_PATTERN_MATCH_RELATIONAL7FindOneERK8wxString
libkicommon.so.9.0.1:_ZNK3JOB17GetFullOutputPathEP7PROJECT
libkicommon.so.9.0.1:_ZNK3JOB21GetDefaultDescriptionEv
libkicommon.so.9.0.1:_ZNK3JOB22GetSettingsDialogTitleEv
libkicommon.so.9.0.1:_ZNK3JOB6ToJsonERN8nlohmann16json_abi_v3_11_310basic_jsonISt3mapSt6vectorNSt7__cxx1112basic_stringIcSt11char_traitsIcESaIcEEEblmdSaNS1_14adl_serializerES4_IhSaIhEEvEE
libkicommon.so.9.0.1:_ZNK4GRID11MessageTextE12EDA_IU_SCALE9EDA_UNITSb
libkicommon.so.9.0.1:_ZNK4GRID20UserUnitsMessageTextEP14UNITS_PROVIDERb
libkicommon.so.9.0.1:_ZNK4GRID8ToDoubleE12EDA_IU_SCALE
libkicommon.so.9.0.1:_ZNK4GRIDeqERKS_
libkicommon.so.9.0.1:_ZNK4KIID11AsStdStringB5cxx11Ev
libkicommon.so.9.0.1:_ZNK4KIID17AsLegacyTimestampEv
libkicommon.so.9.0.1:_ZNK4KIID17IsLegacyTimestampEv
libkicommon.so.9.0.1:_ZNK4KIID23AsLegacyTimestampStringEv
libkicommon.so.9.0.1:_ZNK4KIID4HashEv
libkicommon.so.9.0.1:_ZNK4KIID8AsStringEv
libkicommon.so.9.0.1:_ZNK4LSEQ10TestLayersE12PCB_LAYER_IDS0_
libkicommon.so.9.0.1:_ZNK4LSET12ExtractLayerEv
libkicommon.so.9.0.1:_ZNK4LSET17copper_layers_endEv
libkicommon.so.9.0.1:_ZNK4LSET18TechAndUserUIOrderEv
libkicommon.so.9.0.1:_ZNK4LSET19copper_layers_beginEv
libkicommon.so.9.0.1:_ZNK4LSET20SeqStackupTop2BottomE12PCB_LAYER_ID
libkicommon.so.9.0.1:_ZNK4LSET21SeqStackupForPlottingEv
libkicommon.so.9.0.1:_ZNK4LSET21non_copper_layers_endEv
libkicommon.so.9.0.1:_ZNK4LSET22copper_layers_iteratordeEv
libkicommon.so.9.0.1:_ZNK4LSET23non_copper_layers_beginEv
libkicommon.so.9.0.1:_ZNK4LSET26non_copper_layers_iteratordeEv
libkicommon.so.9.0.1:_ZNK4LSET3SeqERK4LSEQ
libkicommon.so.9.0.1:_ZNK4LSET3SeqEv
libkicommon.so.9.0.1:_ZNK4LSET7CuStackEv
libkicommon.so.9.0.1:_ZNK4LSET7UIOrderEv
libkicommon.so.9.0.1:_ZNK5KIGFX7COLOR4D11ToCSSStringEv
libkicommon.so.9.0.1:_ZNK5KIGFX7COLOR4D11ToHexStringEv
libkicommon.so.9.0.1:_ZNK5KIGFX7COLOR4D17RelativeLuminanceEv
libkicommon.so.9.0.1:_ZNK5KIGFX7COLOR4D5ToHSLERdS1_S1_
libkicommon.so.9.0.1:_ZNK5KIGFX7COLOR4D5ToHSVERdS1_S1_b
libkicommon.so.9.0.1:_ZNK5KIGFX7COLOR4D7CompareERKS0_
libkicommon.so.9.0.1:_ZNK5KIGFX7COLOR4D8DistanceERKS0_
libkicommon.so.9.0.1:_ZNK5KIGFX7COLOR4D8ToColourEv
libkicommon.so.9.0.1:_ZNK5KIGFX7COLOR4D9LegacyMixERKS0_
libkicommon.so.9.0.1:_ZNK5KIWAY10GetActionsERSt6vectorIP11TOOL_ACTIONSaIS2_EE
libkicommon.so.9.0.1:_ZNK5KIWAY3PrjEv
libkicommon.so.9.0.1:_ZNK6JOBSET10getFileExtEv
libkicommon.so.9.0.1:_ZNK6LIB_ID18GetFullLibraryNameEv
libkicommon.so.9.0.1:_ZNK6LIB_ID6FormatEv
libkicommon.so.9.0.1:_ZNK6LIB_ID7compareERKS_
libkicommon.so.9.0.1:_ZNK6MARKUP4NODE10asWxStringEv
libkicommon.so.9.0.1:_ZNK6MARKUP4NODE10typeStringB5cxx11Ev
libkicommon.so.9.0.1:_ZNK6MARKUP4NODE8asStringB5cxx11Ev
libkicommon.so.9.0.1:_ZNK7GAL_SET3SeqEv
libkicommon.so.9.0.1:_ZNK7IO_BASE12IO_FILE_DESC10FileFilterEv
libkicommon.so.9.0.1:_ZNK7IO_BASE14CanReadLibraryERK8wxString
libkicommon.so.9.0.1:_ZNK7IO_BASE17GetLibraryOptionsEPSt3mapINSt7__cxx1112basic_stringIcSt11char_traitsIcESaIcEEE4UTF8St4lessIS6_ESaISt4pairIKS6_S7_EEE
libkicommon.so.9.0.1:_ZNK7LIBEVAL3UOP6FormatEv
libkicommon.so.9.0.1:_ZNK7LIBEVAL5UCODE4DumpEv
libkicommon.so.9.0.1:_ZNK7LIBEVAL5VALUE10NotEqualToEPNS_7CONTEXTEPKS0_
libkicommon.so.9.0.1:_ZNK7LIBEVAL5VALUE7EqualToEPNS_7CONTEXTEPKS0_
libkicommon.so.9.0.1:_ZNK7LIBEVAL9TOKENIZER10MatchAheadERK8wxStringRKSt8functionIFb9wxUniCharEE
libkicommon.so.9.0.1:_ZNK7LIBEVAL9TOKENIZER8GetCharsERKSt8functionIFb9wxUniCharEE
libkicommon.so.9.0.1:_ZNK7PROJECT11GetTextVarsEv
libkicommon.so.9.0.1:_ZNK7PROJECT12AbsolutePathERK8wxString
libkicommon.so.9.0.1:_ZNK7PROJECT12libTableNameERK8wxString
libkicommon.so.9.0.1:_ZNK7PROJECT13IsNullProjectEv
libkicommon.so.9.0.1:_ZNK7PROJECT14GetProjectNameEv
libkicommon.so.9.0.1:_ZNK7PROJECT14GetProjectPathEv
libkicommon.so.9.0.1:_ZNK7PROJECT15TextVarResolverEP8wxString
libkicommon.so.9.0.1:_ZNK7PROJECT18GetProjectFullNameEv
libkicommon.so.9.0.1:_ZNK7PROJECT18SymbolLibTableNameEv
libkicommon.so.9.0.1:_ZNK7PROJECT19FootprintLibTblNameEv
libkicommon.so.9.0.1:_ZNK7PROJECT19GetProjectDirectoryEv
libkicommon.so.9.0.1:_ZNK7PROJECT21DesignBlockLibTblNameEv
libkicommon.so.9.0.1:_ZNK8DSNLEXER10UnexpectedEPKc
libkicommon.so.9.0.1:_ZNK8DSNLEXER10UnexpectedEi
libkicommon.so.9.0.1:_ZNK8DSNLEXER12GetTokenTextEi
libkicommon.so.9.0.1:_ZNK8DSNLEXER14GetTokenStringEi
libkicommon.so.9.0.1:_ZNK8DSNLEXER9ExpectingEPKc
libkicommon.so.9.0.1:_ZNK8DSNLEXER9ExpectingEi
libkicommon.so.9.0.1:_ZNK8DSNLEXER9findTokenERKNSt7__cxx1112basic_stringIcSt11char_traitsIcESaIcEEE
libkicommon.so.9.0.1:_ZNK8IO_ERROR4WhatEv
libkicommon.so.9.0.1:_ZNK8IO_ERROR5WhereEv
libkicommon.so.9.0.1:_ZNK8IO_ERROR7ProblemEv
libkicommon.so.9.0.1:_ZNK8KIDIALOG14DoNotShowAgainEv
libkicommon.so.9.0.1:_ZNK8NETCLASS20GetHumanReadableNameEv
libkicommon.so.9.0.1:_ZNK8NETCLASS24ContainsNetclassWithNameERK8wxString
libkicommon.so.9.0.1:_ZNK8NETCLASS24GetConstituentNetclassesEv
libkicommon.so.9.0.1:_ZNK8NETCLASS7GetNameEv
libkicommon.so.9.0.1:_ZNK8NETCLASS9SerializeERN6google8protobuf3AnyE
libkicommon.so.9.0.1:_ZNK8NETCLASSeqERKS_
libkicommon.so.9.0.1:_ZNK8PGM_BASE17GetCommonSettingsEv
libkicommon.so.9.0.1:_ZNK8PGM_BASE17GetExecutablePathEv
libkicommon.so.9.0.1:_ZNK8PGM_BASE20GetLocalEnvVariablesEv
libkicommon.so.9.0.1:_ZNK8REPORTER20HasMessageOfSeverityEi
libkicommon.so.9.0.1:_ZNK9BOM_FIELDeqERKS_
libkicommon.so.9.0.1:_ZNK9KIID_PATH8AsStringEv
libkicommon.so.9.0.1:_ZNK9KIID_PATH8EndsWithERKS_
libkicommon.so.9.0.1:_ZNK9LIB_TABLE10GetFullURIERK8wxStringb
libkicommon.so.9.0.1:_ZNK9LIB_TABLE10HasLibraryERK8wxStringb
libkicommon.so.9.0.1:_ZNK9LIB_TABLE18HasLibraryWithPathERK8wxString
libkicommon.so.9.0.1:_ZNK9LIB_TABLE4SaveERK8wxString
libkicommon.so.9.0.1:_ZNK9LIB_TABLE7findRowERK8wxStringb
libkicommon.so.9.0.1:_ZNK9PAGE_INFO6FormatEP15OUTPUTFORMATTER
libkicommon.so.9.0.1:_ZNK9PAGE_INFO8IsCustomEv
libkicommon.so.9.0.1:_ZNK9PARAM_MAPIbE11MatchesFileERK13JSON_SETTINGS
libkicommon.so.9.0.1:_ZNK9PARAM_MAPIbE4LoadERK13JSON_SETTINGSb
libkicommon.so.9.0.1:_ZNK9PARAM_MAPIbE5StoreEP13JSON_SETTINGS
libkicommon.so.9.0.1:_ZNK9PARAM_MAPIdE11MatchesFileERK13JSON_SETTINGS
libkicommon.so.9.0.1:_ZNK9PARAM_MAPIdE4LoadERK13JSON_SETTINGSb
libkicommon.so.9.0.1:_ZNK9PARAM_MAPIdE5StoreEP13JSON_SETTINGS
libkicommon.so.9.0.1:_ZNK9PARAM_MAPIiE11MatchesFileERK13JSON_SETTINGS
libkicommon.so.9.0.1:_ZNK9PARAM_MAPIiE4LoadERK13JSON_SETTINGSb
libkicommon.so.9.0.1:_ZNK9PARAM_MAPIiE5StoreEP13JSON_SETTINGS
libkicommon.so.9.0.1:_ZNK9PARAM_SETI8wxStringE11MatchesFileERK13JSON_SETTINGS
libkicommon.so.9.0.1:_ZNK9PARAM_SETI8wxStringE4LoadERK13JSON_SETTINGSb
libkicommon.so.9.0.1:_ZNK9PARAM_SETI8wxStringE5StoreEP13JSON_SETTINGS
libkicommon.so.9.0.1:_ZNKSt4hashISt4pairI7BITMAPSiEEclERKS2_
libkicommon.so.9.0.1:_ZNSt8__detail8_ScannerIcE18_M_eat_escape_ecmaEv
libkicommon.so.9.0.1:_ZNSt8__detail8_ScannerIcE19_M_eat_escape_posixEv
libkicommon.so.9.0.1:_ZThn696_N11HTML_WINDOWD0Ev
libkicommon.so.9.0.1:_ZThn696_N11HTML_WINDOWD1Ev
libkicommon.so.9.0.1:_ZThn816_N11HTML_WINDOWD0Ev
libkicommon.so.9.0.1:_ZThn816_N11HTML_WINDOWD1Ev
libkicommon.so.9.0.1:_ZThn824_N11HTML_WINDOWD0Ev
libkicommon.so.9.0.1:_ZThn824_N11HTML_WINDOWD1Ev
libkicommon.so.9.0.1:_ZZNSt9once_flag18_Prepare_executionC4IZSt9call_onceIMNSt13__future_base13_State_baseV2EFvPSt8functionIFSt10unique_ptrINS3_12_Result_baseENS7_8_DeleterEEvEEPbEJPS4_SC_SD_EEvRS_OT_DpOT0_EUlvE_EERSI_ENUlvE_4_FUNEv
libkicommon.so.9.0.1:_ZeqRK13wxAuiPaneInfoS1_
libkicommon.so.9.0.1:_ZltRK10BOM_PRESETS1_
libkicommon.so.9.0.1:_ZltRK13wxAuiPaneInfoS1_
libkicommon.so.9.0.1:_ZltRK14BOM_FMT_PRESETS1_
libkicommon.so.9.0.1:_ZltRK4GRIDS1_
libkicommon.so.9.0.1:_ZltRK6wxRectS1_
libkicommon.so.9.0.1:_ZltRK6wxSizeS1_
libkicommon.so.9.0.1:_ZltRK7wxPointS1_
libkicommon.so.9.0.1:_ZltRK9BOM_FIELDS1_
libkicommon.so.9.0.1:_ZneRK10BOM_PRESETS1_
libkicommon.so.9.0.1:_ZneRK14BOM_FMT_PRESETS1_
libkicommon.so.9.0.1:_ZneRK4GRIDS1_
libkicommon.so.9.0.1:_ZneRK9BOM_FIELDS1_
libkigal.so.9.0.1:_ZN12CALLBACK_GAL9DrawGlyphERKN6KIFONT5GLYPHEii
libkigal.so.9.0.1:_ZN15HIDPI_GL_CANVASC1ERKN5KIGFX11VC_SETTINGSEP8wxWindowRK14wxGLAttributesiRK7wxPointRK6wxSizelRK8wxStringRK9wxPalette
libkigal.so.9.0.1:_ZN15HIDPI_GL_CANVASC2ERKN5KIGFX11VC_SETTINGSEP8wxWindowRK14wxGLAttributesiRK7wxPointRK6wxSizelRK8wxStringRK9wxPalette
libkigal.so.9.0.1:_ZN15TEXT_ATTRIBUTESC1EPN6KIFONT4FONTE
libkigal.so.9.0.1:_ZN15TEXT_ATTRIBUTESC2EPN6KIFONT4FONTE
libkigal.so.9.0.1:_ZN18HIDPI_GL_3D_CANVAS17OnMouseMoveCameraER12wxMouseEvent
libkigal.so.9.0.1:_ZN18HIDPI_GL_3D_CANVAS18OnMouseWheelCameraER12wxMouseEventb
libkigal.so.9.0.1:_ZN18HIDPI_GL_3D_CANVASC1ERKN5KIGFX11VC_SETTINGSER6CAMERAP8wxWindowRK14wxGLAttributesiRK7wxPointRK6wxSizelRK8wxStringRK9wxPalette
libkigal.so.9.0.1:_ZN18HIDPI_GL_3D_CANVASC2ERKN5KIGFX11VC_SETTINGSER6CAMERAP8wxWindowRK14wxGLAttributesiRK7wxPointRK6wxSizelRK8wxStringRK9wxPalette
libkigal.so.9.0.1:_ZN5KIGFX10OPENGL_GAL10BeginGroupEv
libkigal.so.9.0.1:_ZN5KIGFX10OPENGL_GAL10BitmapTextERK8wxStringRK7VECTOR2IiERK9EDA_ANGLE
libkigal.so.9.0.1:_ZN5KIGFX10OPENGL_GAL10ClearCacheEv
libkigal.so.9.0.1:_ZN5KIGFX10OPENGL_GAL10DrawBitmapERK11BITMAP_BASEd
libkigal.so.9.0.1:_ZN5KIGFX10OPENGL_GAL10DrawCircleERK7VECTOR2IdEd
libkigal.so.9.0.1:_ZN5KIGFX10OPENGL_GAL10DrawCursorERK7VECTOR2IdE
libkigal.so.9.0.1:_ZN5KIGFX10OPENGL_GAL10DrawGlyphsERKSt6vectorISt10unique_ptrIN6KIFONT5GLYPHESt14default_deleteIS4_EESaIS7_EE
libkigal.so.9.0.1:_ZN5KIGFX10OPENGL_GAL10EndDrawingEv
libkigal.so.9.0.1:_ZN5KIGFX10OPENGL_GAL10blitCursorEv
libkigal.so.9.0.1:_ZN5KIGFX10OPENGL_GAL10drawCircleERK7VECTOR2IdEdb
libkigal.so.9.0.1:_ZN5KIGFX10OPENGL_GAL11ClearScreenEv
libkigal.so.9.0.1:_ZN5KIGFX10OPENGL_GAL11ClearTargetENS_13RENDER_TARGETE
libkigal.so.9.0.1:_ZN5KIGFX10OPENGL_GAL11DeleteGroupEi
libkigal.so.9.0.1:_ZN5KIGFX10OPENGL_GAL11DrawPolygonEPK7VECTOR2IdEi
libkigal.so.9.0.1:_ZN5KIGFX10OPENGL_GAL11DrawPolygonERK14SHAPE_POLY_SETb
libkigal.so.9.0.1:_ZN5KIGFX10OPENGL_GAL11DrawPolygonERK16SHAPE_LINE_CHAIN
libkigal.so.9.0.1:_ZN5KIGFX10OPENGL_GAL11DrawPolygonERKSt5dequeI7VECTOR2IdESaIS3_EE
libkigal.so.9.0.1:_ZN5KIGFX10OPENGL_GAL11DrawSegmentERK7VECTOR2IdES4_d
libkigal.so.9.0.1:_ZN5KIGFX10OPENGL_GAL11LockContextEi
libkigal.so.9.0.1:_ZN5KIGFX10OPENGL_GAL11beginUpdateEv
libkigal.so.9.0.1:_ZN5KIGFX10OPENGL_GAL11drawPolygonEPdi
libkigal.so.9.0.1:_ZN5KIGFX10OPENGL_GAL11drawSegmentERK7VECTOR2IdES4_db
libkigal.so.9.0.1:_ZN5KIGFX10OPENGL_GAL12BeginDrawingEv
libkigal.so.9.0.1:_ZN5KIGFX10OPENGL_GAL12DrawPolylineEPK7VECTOR2IdEi
libkigal.so.9.0.1:_ZN5KIGFX10OPENGL_GAL12DrawPolylineERK16SHAPE_LINE_CHAIN
libkigal.so.9.0.1:_ZN5KIGFX10OPENGL_GAL12DrawPolylineERKSt5dequeI7VECTOR2IdESaIS3_EE
libkigal.so.9.0.1:_ZN5KIGFX10OPENGL_GAL12DrawPolylineERKSt6vectorI7VECTOR2IdESaIS3_EE
libkigal.so.9.0.1:_ZN5KIGFX10OPENGL_GAL12EndDiffLayerEv
libkigal.so.9.0.1:_ZN5KIGFX10OPENGL_GAL12ResizeScreenEii
libkigal.so.9.0.1:_ZN5KIGFX10OPENGL_GAL12drawLineQuadERK7VECTOR2IdES4_b
libkigal.so.9.0.1:_ZN5KIGFX10OPENGL_GAL12drawPolylineERKSt8functionIF7VECTOR2IdEiEEib
libkigal.so.9.0.1:_ZN5KIGFX10OPENGL_GAL13CheckFeaturesERNS_19GAL_DISPLAY_OPTIONSE
libkigal.so.9.0.1:_ZN5KIGFX10OPENGL_GAL13DrawPolylinesERKSt6vectorIS1_I7VECTOR2IdESaIS3_EESaIS5_EE
libkigal.so.9.0.1:_ZN5KIGFX10OPENGL_GAL13DrawRectangleERK7VECTOR2IdES4_
libkigal.so.9.0.1:_ZN5KIGFX10OPENGL_GAL13UnlockContextEi
libkigal.so.9.0.1:_ZN5KIGFX10OPENGL_GAL14DrawArcSegmentERK7VECTOR2IdEdRK9EDA_ANGLES7_dd
libkigal.so.9.0.1:_ZN5KIGFX10OPENGL_GAL14StartDiffLayerEv
libkigal.so.9.0.1:_ZN5KIGFX10OPENGL_GAL14drawBitmapCharEmb
libkigal.so.9.0.1:_ZN5KIGFX10OPENGL_GAL14drawSemiCircleERK7VECTOR2IdEdd
libkigal.so.9.0.1:_ZN5KIGFX10OPENGL_GAL14skipMouseEventER12wxMouseEvent
libkigal.so.9.0.1:_ZN5KIGFX10OPENGL_GAL15EnableDepthTestEb
libkigal.so.9.0.1:_ZN5KIGFX10OPENGL_GAL16ChangeGroupColorEiRKNS_7COLOR4DE
libkigal.so.9.0.1:_ZN5KIGFX10OPENGL_GAL16ChangeGroupDepthEii
libkigal.so.9.0.1:_ZN5KIGFX10OPENGL_GAL16DrawSegmentChainERK16SHAPE_LINE_CHAINd
libkigal.so.9.0.1:_ZN5KIGFX10OPENGL_GAL16DrawSegmentChainERKSt6vectorI7VECTOR2IdESaIS3_EEd
libkigal.so.9.0.1:_ZN5KIGFX10OPENGL_GAL16drawSegmentChainERKSt8functionIF7VECTOR2IdEiEEidb
libkigal.so.9.0.1:_ZN5KIGFX10OPENGL_GAL16reserveLineQuadsEi
libkigal.so.9.0.1:_ZN5KIGFX10OPENGL_GAL16skipGestureEventER14wxGestureEvent
libkigal.so.9.0.1:_ZN5KIGFX10OPENGL_GAL17drawBitmapOverbarEddb
libkigal.so.9.0.1:_ZN5KIGFX10OPENGL_GAL17getNewGroupNumberEv
libkigal.so.9.0.1:_ZN5KIGFX10OPENGL_GAL17onSetNativeCursorER16wxSetCursorEvent
libkigal.so.9.0.1:_ZN5KIGFX10OPENGL_GAL20SetNativeCursorStyleE8KICURSORb
libkigal.so.9.0.1:_ZN5KIGFX10OPENGL_GAL20drawFilledSemiCircleERK7VECTOR2IdEdd
libkigal.so.9.0.1:_ZN5KIGFX10OPENGL_GAL21drawStrokedSemiCircleERK7VECTOR2IdEddb
libkigal.so.9.0.1:_ZN5KIGFX10OPENGL_GAL23drawTriangulatedPolysetERK14SHAPE_POLY_SETb
libkigal.so.9.0.1:_ZN5KIGFX10OPENGL_GAL24ComputeWorldScreenMatrixEv
libkigal.so.9.0.1:_ZN5KIGFX10OPENGL_GAL24updatedGalDisplayOptionsERKNS_19GAL_DISPLAY_OPTIONSE
libkigal.so.9.0.1:_ZN5KIGFX10OPENGL_GAL4SaveEv
libkigal.so.9.0.1:_ZN5KIGFX10OPENGL_GAL4ShowEb
libkigal.so.9.0.1:_ZN5KIGFX10OPENGL_GAL4initEv
libkigal.so.9.0.1:_ZN5KIGFX10OPENGL_GAL5FlushEv
libkigal.so.9.0.1:_ZN5KIGFX10OPENGL_GAL5ScaleERK7VECTOR2IdE
libkigal.so.9.0.1:_ZN5KIGFX10OPENGL_GAL6RotateEd
libkigal.so.9.0.1:_ZN5KIGFX10OPENGL_GAL7DrawArcERK7VECTOR2IdEdRK9EDA_ANGLES7_
libkigal.so.9.0.1:_ZN5KIGFX10OPENGL_GAL7RestoreEv
libkigal.so.9.0.1:_ZN5KIGFX10OPENGL_GAL7onPaintER12wxPaintEvent
libkigal.so.9.0.1:_ZN5KIGFX10OPENGL_GAL8DrawGridEv
libkigal.so.9.0.1:_ZN5KIGFX10OPENGL_GAL8DrawLineERK7VECTOR2IdES4_
libkigal.so.9.0.1:_ZN5KIGFX10OPENGL_GAL8EndGroupEv
libkigal.so.9.0.1:_ZN5KIGFX10OPENGL_GAL9DrawCurveERK7VECTOR2IdES4_S4_S4_d
libkigal.so.9.0.1:_ZN5KIGFX10OPENGL_GAL9DrawGlyphERKN6KIFONT5GLYPHEii
libkigal.so.9.0.1:_ZN5KIGFX10OPENGL_GAL9DrawGroupEi
libkigal.so.9.0.1:_ZN5KIGFX10OPENGL_GAL9HasTargetENS_13RENDER_TARGETE
libkigal.so.9.0.1:_ZN5KIGFX10OPENGL_GAL9PostPaintER12wxPaintEvent
libkigal.so.9.0.1:_ZN5KIGFX10OPENGL_GAL9SetTargetENS_13RENDER_TARGETE
libkigal.so.9.0.1:_ZN5KIGFX10OPENGL_GAL9TransformERK9MATRIX3x3IdE
libkigal.so.9.0.1:_ZN5KIGFX10OPENGL_GAL9TranslateERK7VECTOR2IdE
libkigal.so.9.0.1:_ZN5KIGFX10OPENGL_GAL9endUpdateEv
libkigal.so.9.0.1:_ZN5KIGFX10OPENGL_GALC1ERKNS_11VC_SETTINGSERNS_19GAL_DISPLAY_OPTIONSEP8wxWindowP12wxEvtHandlerS9_RK8wxString
libkigal.so.9.0.1:_ZN5KIGFX10OPENGL_GALC2ERKNS_11VC_SETTINGSERNS_19GAL_DISPLAY_OPTIONSEP8wxWindowP12wxEvtHandlerS9_RK8wxString
libkigal.so.9.0.1:_ZN5KIGFX10OPENGL_GALD0Ev
libkigal.so.9.0.1:_ZN5KIGFX10OPENGL_GALD1Ev
libkigal.so.9.0.1:_ZN5KIGFX10OPENGL_GALD2Ev
libkigal.so.9.0.1:_ZN5KIGFX10VIEW_GROUP3AddEPNS_9VIEW_ITEME
libkigal.so.9.0.1:_ZN5KIGFX10VIEW_GROUP5ClearEv
libkigal.so.9.0.1:_ZN5KIGFX10VIEW_GROUP6RemoveEPNS_9VIEW_ITEME
libkigal.so.9.0.1:_ZN5KIGFX10VIEW_GROUP9FreeItemsEv
libkigal.so.9.0.1:_ZN5KIGFX10VIEW_GROUPC1EPNS_4VIEWE
libkigal.so.9.0.1:_ZN5KIGFX10VIEW_GROUPC2EPNS_4VIEWE
libkigal.so.9.0.1:_ZN5KIGFX10VIEW_GROUPD0Ev
libkigal.so.9.0.1:_ZN5KIGFX10VIEW_GROUPD1Ev
libkigal.so.9.0.1:_ZN5KIGFX10VIEW_GROUPD2Ev
libkigal.so.9.0.1:_ZN5KIGFX11VC_SETTINGS5ResetEv
libkigal.so.9.0.1:_ZN5KIGFX12VIEW_OVERLAY10BitmapTextERK8wxStringRK7VECTOR2IiERK9EDA_ANGLE
libkigal.so.9.0.1:_ZN5KIGFX12VIEW_OVERLAY11SetIsStrokeEb
libkigal.so.9.0.1:_ZN5KIGFX12VIEW_OVERLAY12SetFillColorERKNS_7COLOR4DE
libkigal.so.9.0.1:_ZN5KIGFX12VIEW_OVERLAY12SetGlyphSizeERK7VECTOR2IiE
libkigal.so.9.0.1:_ZN5KIGFX12VIEW_OVERLAY12SetLineWidthEd
libkigal.so.9.0.1:_ZN5KIGFX12VIEW_OVERLAY14SetStrokeColorERKNS_7COLOR4DE
libkigal.so.9.0.1:_ZN5KIGFX12VIEW_OVERLAY15releaseCommandsEv
libkigal.so.9.0.1:_ZN5KIGFX12VIEW_OVERLAY3ArcERK7VECTOR2IdEdRK9EDA_ANGLES7_
libkigal.so.9.0.1:_ZN5KIGFX12VIEW_OVERLAY4LineERK3SEG
libkigal.so.9.0.1:_ZN5KIGFX12VIEW_OVERLAY4LineERK7VECTOR2IdES4_
libkigal.so.9.0.1:_ZN5KIGFX12VIEW_OVERLAY5ClearEv
libkigal.so.9.0.1:_ZN5KIGFX12VIEW_OVERLAY5CrossERK7VECTOR2IdEi
libkigal.so.9.0.1:_ZN5KIGFX12VIEW_OVERLAY6CircleERK7VECTOR2IdEd
libkigal.so.9.0.1:_ZN5KIGFX12VIEW_OVERLAY7PolygonEPK7VECTOR2IdEi
libkigal.so.9.0.1:_ZN5KIGFX12VIEW_OVERLAY7PolygonERK14SHAPE_POLY_SET
libkigal.so.9.0.1:_ZN5KIGFX12VIEW_OVERLAY7PolygonERKSt5dequeI7VECTOR2IdESaIS3_EE
libkigal.so.9.0.1:_ZN5KIGFX12VIEW_OVERLAY7SegmentERK7VECTOR2IdES4_d
libkigal.so.9.0.1:_ZN5KIGFX12VIEW_OVERLAY8PolylineERK16SHAPE_LINE_CHAIN
libkigal.so.9.0.1:_ZN5KIGFX12VIEW_OVERLAY9RectangleERK7VECTOR2IdES4_
libkigal.so.9.0.1:_ZN5KIGFX12VIEW_OVERLAY9SetIsFillEb
libkigal.so.9.0.1:_ZN5KIGFX12VIEW_OVERLAYC1Ev
libkigal.so.9.0.1:_ZN5KIGFX12VIEW_OVERLAYC2Ev
libkigal.so.9.0.1:_ZN5KIGFX12VIEW_OVERLAYD0Ev
libkigal.so.9.0.1:_ZN5KIGFX12VIEW_OVERLAYD1Ev
libkigal.so.9.0.1:_ZN5KIGFX12VIEW_OVERLAYD2Ev
libkigal.so.9.0.1:_ZN5KIGFX13VIEW_CONTROLS10ShowCursorEb
libkigal.so.9.0.1:_ZN5KIGFX13VIEW_CONTROLS13ApplySettingsERKNS_11VC_SETTINGSE
libkigal.so.9.0.1:_ZN5KIGFX13VIEW_CONTROLS5ResetEv
libkigal.so.9.0.1:_ZN5KIGFX14CAIRO_GAL_BASE10BeginGroupEv
libkigal.so.9.0.1:_ZN5KIGFX14CAIRO_GAL_BASE10ClearCacheEv
libkigal.so.9.0.1:_ZN5KIGFX14CAIRO_GAL_BASE10DrawBitmapERK11BITMAP_BASEd
libkigal.so.9.0.1:_ZN5KIGFX14CAIRO_GAL_BASE10DrawCircleERK7VECTOR2IdEd
libkigal.so.9.0.1:_ZN5KIGFX14CAIRO_GAL_BASE10DrawCursorERK7VECTOR2IdE
libkigal.so.9.0.1:_ZN5KIGFX14CAIRO_GAL_BASE10EndDrawingEv
libkigal.so.9.0.1:_ZN5KIGFX14CAIRO_GAL_BASE10blitCursorER10wxMemoryDC
libkigal.so.9.0.1:_ZN5KIGFX14CAIRO_GAL_BASE11ClearScreenEv
libkigal.so.9.0.1:_ZN5KIGFX14CAIRO_GAL_BASE11DeleteGroupEi
libkigal.so.9.0.1:_ZN5KIGFX14CAIRO_GAL_BASE11DrawPolygonERK14SHAPE_POLY_SETb
libkigal.so.9.0.1:_ZN5KIGFX14CAIRO_GAL_BASE11DrawPolygonERK16SHAPE_LINE_CHAIN
libkigal.so.9.0.1:_ZN5KIGFX14CAIRO_GAL_BASE11DrawSegmentERK7VECTOR2IdES4_d
libkigal.so.9.0.1:_ZN5KIGFX14CAIRO_GAL_BASE11SetIsStrokeEb
libkigal.so.9.0.1:_ZN5KIGFX14CAIRO_GAL_BASE11angle_xformEd
libkigal.so.9.0.1:_ZN5KIGFX14CAIRO_GAL_BASE12BeginDrawingEv
libkigal.so.9.0.1:_ZN5KIGFX14CAIRO_GAL_BASE12ResizeScreenEii
libkigal.so.9.0.1:_ZN5KIGFX14CAIRO_GAL_BASE12SetFillColorERKNS_7COLOR4DE
libkigal.so.9.0.1:_ZN5KIGFX14CAIRO_GAL_BASE12SetLineWidthEf
libkigal.so.9.0.1:_ZN5KIGFX14CAIRO_GAL_BASE12drawGridLineERK7VECTOR2IdES4_
libkigal.so.9.0.1:_ZN5KIGFX14CAIRO_GAL_BASE12resetContextEv
libkigal.so.9.0.1:_ZN5KIGFX14CAIRO_GAL_BASE13DrawRectangleERK7VECTOR2IdES4_
libkigal.so.9.0.1:_ZN5KIGFX14CAIRO_GAL_BASE13SetLayerDepthEd
libkigal.so.9.0.1:_ZN5KIGFX14CAIRO_GAL_BASE13drawGridCrossERK7VECTOR2IdE
libkigal.so.9.0.1:_ZN5KIGFX14CAIRO_GAL_BASE13drawGridPointERK7VECTOR2IdEdd
libkigal.so.9.0.1:_ZN5KIGFX14CAIRO_GAL_BASE13syncLineWidthEbd
libkigal.so.9.0.1:_ZN5KIGFX14CAIRO_GAL_BASE14DrawArcSegmentERK7VECTOR2IdEdRK9EDA_ANGLES7_dd
libkigal.so.9.0.1:_ZN5KIGFX14CAIRO_GAL_BASE14SetStrokeColorERKNS_7COLOR4DE
libkigal.so.9.0.1:_ZN5KIGFX14CAIRO_GAL_BASE15EnableDepthTestEb
libkigal.so.9.0.1:_ZN5KIGFX14CAIRO_GAL_BASE16ChangeGroupColorEiRKNS_7COLOR4DE
libkigal.so.9.0.1:_ZN5KIGFX14CAIRO_GAL_BASE16ChangeGroupDepthEii
libkigal.so.9.0.1:_ZN5KIGFX14CAIRO_GAL_BASE16DrawSegmentChainERK16SHAPE_LINE_CHAINd
libkigal.so.9.0.1:_ZN5KIGFX14CAIRO_GAL_BASE16DrawSegmentChainERKSt6vectorI7VECTOR2IdESaIS3_EEd
libkigal.so.9.0.1:_ZN5KIGFX14CAIRO_GAL_BASE17getNewGroupNumberEv
libkigal.so.9.0.1:_ZN5KIGFX14CAIRO_GAL_BASE19SetNegativeDrawModeEb
libkigal.so.9.0.1:_ZN5KIGFX14CAIRO_GAL_BASE23updateWorldScreenMatrixEv
libkigal.so.9.0.1:_ZN5KIGFX14CAIRO_GAL_BASE30arc_angles_xform_and_normalizeERdS1_
libkigal.so.9.0.1:_ZN5KIGFX14CAIRO_GAL_BASE4SaveEv
libkigal.so.9.0.1:_ZN5KIGFX14CAIRO_GAL_BASE5FlushEv
libkigal.so.9.0.1:_ZN5KIGFX14CAIRO_GAL_BASE5ScaleERK7VECTOR2IdE
libkigal.so.9.0.1:_ZN5KIGFX14CAIRO_GAL_BASE5xformERK7VECTOR2IdE
libkigal.so.9.0.1:_ZN5KIGFX14CAIRO_GAL_BASE5xformEd
libkigal.so.9.0.1:_ZN5KIGFX14CAIRO_GAL_BASE5xformEdd
libkigal.so.9.0.1:_ZN5KIGFX14CAIRO_GAL_BASE6RotateEd
libkigal.so.9.0.1:_ZN5KIGFX14CAIRO_GAL_BASE6roundpERK7VECTOR2IdE
libkigal.so.9.0.1:_ZN5KIGFX14CAIRO_GAL_BASE7DrawArcERK7VECTOR2IdEdRK9EDA_ANGLES7_
libkigal.so.9.0.1:_ZN5KIGFX14CAIRO_GAL_BASE7RestoreEv
libkigal.so.9.0.1:_ZN5KIGFX14CAIRO_GAL_BASE8DrawGridEv
libkigal.so.9.0.1:_ZN5KIGFX14CAIRO_GAL_BASE8DrawLineERK7VECTOR2IdES4_
libkigal.so.9.0.1:_ZN5KIGFX14CAIRO_GAL_BASE8EndGroupEv
libkigal.so.9.0.1:_ZN5KIGFX14CAIRO_GAL_BASE8drawAxesERK7VECTOR2IdES4_
libkigal.so.9.0.1:_ZN5KIGFX14CAIRO_GAL_BASE8drawPolyEPK7VECTOR2IdEi
libkigal.so.9.0.1:_ZN5KIGFX14CAIRO_GAL_BASE8drawPolyERK16SHAPE_LINE_CHAIN
libkigal.so.9.0.1:_ZN5KIGFX14CAIRO_GAL_BASE8drawPolyERKSt5dequeI7VECTOR2IdESaIS3_EE
libkigal.so.9.0.1:_ZN5KIGFX14CAIRO_GAL_BASE8drawPolyERKSt6vectorI7VECTOR2IdESaIS3_EE
libkigal.so.9.0.1:_ZN5KIGFX14CAIRO_GAL_BASE9DrawCurveERK7VECTOR2IdES4_S4_S4_d
libkigal.so.9.0.1:_ZN5KIGFX14CAIRO_GAL_BASE9DrawGlyphERKN6KIFONT5GLYPHEii
libkigal.so.9.0.1:_ZN5KIGFX14CAIRO_GAL_BASE9DrawGroupEi
libkigal.so.9.0.1:_ZN5KIGFX14CAIRO_GAL_BASE9SetIsFillEb
libkigal.so.9.0.1:_ZN5KIGFX14CAIRO_GAL_BASE9TransformERK9MATRIX3x3IdE
libkigal.so.9.0.1:_ZN5KIGFX14CAIRO_GAL_BASE9TranslateERK7VECTOR2IdE
libkigal.so.9.0.1:_ZN5KIGFX14CAIRO_GAL_BASE9flushPathEv
libkigal.so.9.0.1:_ZN5KIGFX14CAIRO_GAL_BASE9storePathEv
libkigal.so.9.0.1:_ZN5KIGFX14CAIRO_GAL_BASEC1ERNS_19GAL_DISPLAY_OPTIONSE
libkigal.so.9.0.1:_ZN5KIGFX14CAIRO_GAL_BASEC2ERNS_19GAL_DISPLAY_OPTIONSE
libkigal.so.9.0.1:_ZN5KIGFX14CAIRO_GAL_BASED0Ev
libkigal.so.9.0.1:_ZN5KIGFX14CAIRO_GAL_BASED1Ev
libkigal.so.9.0.1:_ZN5KIGFX14CAIRO_GAL_BASED2Ev
libkigal.so.9.0.1:_ZN5KIGFX19GAL_DISPLAY_OPTIONS13NotifyChangedEv
libkigal.so.9.0.1:_ZN5KIGFX19GAL_DISPLAY_OPTIONSC1Ev
libkigal.so.9.0.1:_ZN5KIGFX19GAL_DISPLAY_OPTIONSC2Ev
libkigal.so.9.0.1:_ZN5KIGFX24CONSTANT_ZOOM_CONTROLLER19GetScaleForRotationEi
libkigal.so.9.0.1:_ZN5KIGFX24CONSTANT_ZOOM_CONTROLLERC1Ed
libkigal.so.9.0.1:_ZN5KIGFX24CONSTANT_ZOOM_CONTROLLERC2Ed
libkigal.so.9.0.1:_ZN5KIGFX28ACCELERATING_ZOOM_CONTROLLER19GetScaleForRotationEi
libkigal.so.9.0.1:_ZN5KIGFX28ACCELERATING_ZOOM_CONTROLLERC1EdRKNSt6chrono8durationIlSt5ratioILl1ELl1000EEEEPNS0_18TIMESTAMP_PROVIDERE
libkigal.so.9.0.1:_ZN5KIGFX28ACCELERATING_ZOOM_CONTROLLERC2EdRKNSt6chrono8durationIlSt5ratioILl1ELl1000EEEEPNS0_18TIMESTAMP_PROVIDERE
libkigal.so.9.0.1:_ZN5KIGFX3GAL10BitmapTextERK8wxStringRK7VECTOR2IiERK9EDA_ANGLE
libkigal.so.9.0.1:_ZN5KIGFX3GAL19ResetTextAttributesEv
libkigal.so.9.0.1:_ZN5KIGFX3GAL20SetNativeCursorStyleE8KICURSORb
libkigal.so.9.0.1:_ZN5KIGFX3GAL24ComputeWorldScreenMatrixEv
libkigal.so.9.0.1:_ZN5KIGFX3GAL24updatedGalDisplayOptionsERKNS_19GAL_DISPLAY_OPTIONSE
libkigal.so.9.0.1:_ZN5KIGFX3GAL26OnGalDisplayOptionsChangedERKNS_19GAL_DISPLAY_OPTIONSE
libkigal.so.9.0.1:_ZN5KIGFX3GALC1ERNS_19GAL_DISPLAY_OPTIONSE
libkigal.so.9.0.1:_ZN5KIGFX3GALC2ERNS_19GAL_DISPLAY_OPTIONSE
libkigal.so.9.0.1:_ZN5KIGFX3GALD0Ev
libkigal.so.9.0.1:_ZN5KIGFX3GALD1Ev
libkigal.so.9.0.1:_ZN5KIGFX3GALD2Ev
libkigal.so.9.0.1:_ZN5KIGFX4VIEW10SetVisibleEPNS_9VIEW_ITEMEb
libkigal.so.9.0.1:_ZN5KIGFX4VIEW10redrawRectERK4BOX2I7VECTOR2IiEE
libkigal.so.9.0.1:_ZN5KIGFX4VIEW10updateBboxEPNS_9VIEW_ITEME
libkigal.so.9.0.1:_ZN5KIGFX4VIEW11InitPreviewEv
libkigal.so.9.0.1:_ZN5KIGFX4VIEW11MakeOverlayEv
libkigal.so.9.0.1:_ZN5KIGFX4VIEW11SetRequiredEiib
libkigal.so.9.0.1:_ZN5KIGFX4VIEW11SetTopLayerEib
libkigal.so.9.0.1:_ZN5KIGFX4VIEW11SetViewportERK4BOX2I7VECTOR2IdEE
libkigal.so.9.0.1:_ZN5KIGFX4VIEW11ShowPreviewEb
libkigal.so.9.0.1:_ZN5KIGFX4VIEW11UpdateItemsEv
libkigal.so.9.0.1:_ZN5KIGFX4VIEW12AddToPreviewEPNS_9VIEW_ITEMEb
libkigal.so.9.0.1:_ZN5KIGFX4VIEW12ClearPreviewEv
libkigal.so.9.0.1:_ZN5KIGFX4VIEW12ClearTargetsEv
libkigal.so.9.0.1:_ZN5KIGFX4VIEW12CopySettingsEPKS0_
libkigal.so.9.0.1:_ZN5KIGFX4VIEW12updateLayersEPNS_9VIEW_ITEME
libkigal.so.9.0.1:_ZN5KIGFX4VIEW13SetLayerOrderEii
libkigal.so.9.0.1:_ZN5KIGFX4VIEW14ClearTopLayersEv
libkigal.so.9.0.1:_ZN5KIGFX4VIEW14EnableTopLayerEb
libkigal.so.9.0.1:_ZN5KIGFX4VIEW14UpdateAllItemsEi
libkigal.so.9.0.1:_ZN5KIGFX4VIEW14invalidateItemEPNS_9VIEW_ITEMEi
libkigal.so.9.0.1:_ZN5KIGFX4VIEW15RecacheAllItemsEv
libkigal.so.9.0.1:_ZN5KIGFX4VIEW15clearGroupCacheEv
libkigal.so.9.0.1:_ZN5KIGFX4VIEW15updateItemColorEPNS_9VIEW_ITEMEi
libkigal.so.9.0.1:_ZN5KIGFX4VIEW16ReorderLayerDataESt13unordered_mapIiiSt4hashIiESt8equal_toIiESaISt4pairIKiiEEE
libkigal.so.9.0.1:_ZN5KIGFX4VIEW16UpdateLayerColorEi
libkigal.so.9.0.1:_ZN5KIGFX4VIEW17sortOrderedLayersEv
libkigal.so.9.0.1:_ZN5KIGFX4VIEW18updateItemGeometryEPNS_9VIEW_ITEMEi
libkigal.so.9.0.1:_ZN5KIGFX4VIEW20UpdateAllLayersColorEv
libkigal.so.9.0.1:_ZN5KIGFX4VIEW20UpdateAllLayersOrderEv
libkigal.so.9.0.1:_ZN5KIGFX4VIEW27UpdateAllItemsConditionallyESt8functionIFiPNS_9VIEW_ITEMEEE
libkigal.so.9.0.1:_ZN5KIGFX4VIEW27UpdateAllItemsConditionallyEiSt8functionIFbPNS_9VIEW_ITEMEEE
libkigal.so.9.0.1:_ZN5KIGFX4VIEW3AddEPNS_9VIEW_ITEMEi
libkigal.so.9.0.1:_ZN5KIGFX4VIEW4HideEPNS_9VIEW_ITEMEbb
libkigal.so.9.0.1:_ZN5KIGFX4VIEW4drawEPNS_10VIEW_GROUPEb
libkigal.so.9.0.1:_ZN5KIGFX4VIEW4drawEPNS_9VIEW_ITEMEb
libkigal.so.9.0.1:_ZN5KIGFX4VIEW4drawEPNS_9VIEW_ITEMEib
libkigal.so.9.0.1:_ZN5KIGFX4VIEW5ClearEv
libkigal.so.9.0.1:_ZN5KIGFX4VIEW6RedrawEv
libkigal.so.9.0.1:_ZN5KIGFX4VIEW6RemoveEPNS_9VIEW_ITEME
libkigal.so.9.0.1:_ZN5KIGFX4VIEW6SetGALEPNS_3GALE
libkigal.so.9.0.1:_ZN5KIGFX4VIEW8SetScaleEd7VECTOR2IdE
libkigal.so.9.0.1:_ZN5KIGFX4VIEW9OnDestroyEPNS_9VIEW_ITEME
libkigal.so.9.0.1:_ZN5KIGFX4VIEW9SetCenterERK7VECTOR2IdE
libkigal.so.9.0.1:_ZN5KIGFX4VIEW9SetCenterERK7VECTOR2IdERKSt6vectorI4BOX2IS2_ESaIS7_EE
libkigal.so.9.0.1:_ZN5KIGFX4VIEW9SetMirrorEbb
libkigal.so.9.0.1:_ZN5KIGFX4VIEWC1Ev
libkigal.so.9.0.1:_ZN5KIGFX4VIEWC2Ev
libkigal.so.9.0.1:_ZN5KIGFX4VIEWD0Ev
libkigal.so.9.0.1:_ZN5KIGFX4VIEWD1Ev
libkigal.so.9.0.1:_ZN5KIGFX4VIEWD2Ev
libkigal.so.9.0.1:_ZN5KIGFX7PAINTERC1EPNS_3GALE
libkigal.so.9.0.1:_ZN5KIGFX7PAINTERC2EPNS_3GALE
libkigal.so.9.0.1:_ZN5KIGFX7PAINTERD0Ev
libkigal.so.9.0.1:_ZN5KIGFX7PAINTERD1Ev
libkigal.so.9.0.1:_ZN5KIGFX7PAINTERD2Ev
libkigal.so.9.0.1:_ZN5KIGFX9CAIRO_GAL10BeginGroupEv
libkigal.so.9.0.1:_ZN5KIGFX9CAIRO_GAL10EndDrawingEv
libkigal.so.9.0.1:_ZN5KIGFX9CAIRO_GAL11ClearTargetENS_13RENDER_TARGETE
libkigal.so.9.0.1:_ZN5KIGFX9CAIRO_GAL11initSurfaceEv
libkigal.so.9.0.1:_ZN5KIGFX9CAIRO_GAL12BeginDrawingEv
libkigal.so.9.0.1:_ZN5KIGFX9CAIRO_GAL12EndDiffLayerEv
libkigal.so.9.0.1:_ZN5KIGFX9CAIRO_GAL12ResizeScreenEii
libkigal.so.9.0.1:_ZN5KIGFX9CAIRO_GAL13deinitSurfaceEv
libkigal.so.9.0.1:_ZN5KIGFX9CAIRO_GAL13deleteBitmapsEv
libkigal.so.9.0.1:_ZN5KIGFX9CAIRO_GAL13setCompositorEv
libkigal.so.9.0.1:_ZN5KIGFX9CAIRO_GAL14StartDiffLayerEv
libkigal.so.9.0.1:_ZN5KIGFX9CAIRO_GAL14skipMouseEventER12wxMouseEvent
libkigal.so.9.0.1:_ZN5KIGFX9CAIRO_GAL15allocateBitmapsEv
libkigal.so.9.0.1:_ZN5KIGFX9CAIRO_GAL16skipGestureEventER14wxGestureEvent
libkigal.so.9.0.1:_ZN5KIGFX9CAIRO_GAL17EndNegativesLayerEv
libkigal.so.9.0.1:_ZN5KIGFX9CAIRO_GAL17onSetNativeCursorER16wxSetCursorEvent
libkigal.so.9.0.1:_ZN5KIGFX9CAIRO_GAL19StartNegativesLayerEv
libkigal.so.9.0.1:_ZN5KIGFX9CAIRO_GAL20SetNativeCursorStyleE8KICURSORb
libkigal.so.9.0.1:_ZN5KIGFX9CAIRO_GAL24updatedGalDisplayOptionsERKNS_19GAL_DISPLAY_OPTIONSE
libkigal.so.9.0.1:_ZN5KIGFX9CAIRO_GAL4ShowEb
libkigal.so.9.0.1:_ZN5KIGFX9CAIRO_GAL7onPaintER12wxPaintEvent
libkigal.so.9.0.1:_ZN5KIGFX9CAIRO_GAL8EndGroupEv
libkigal.so.9.0.1:_ZN5KIGFX9CAIRO_GAL9PostPaintER12wxPaintEvent
libkigal.so.9.0.1:_ZN5KIGFX9CAIRO_GAL9SetTargetENS_13RENDER_TARGETE
libkigal.so.9.0.1:_ZN5KIGFX9CAIRO_GALC1ERNS_19GAL_DISPLAY_OPTIONSEP8wxWindowP12wxEvtHandlerS6_RK8wxString
libkigal.so.9.0.1:_ZN5KIGFX9CAIRO_GALC2ERNS_19GAL_DISPLAY_OPTIONSEP8wxWindowP12wxEvtHandlerS6_RK8wxString
libkigal.so.9.0.1:_ZN5KIGFX9CAIRO_GALD0Ev
libkigal.so.9.0.1:_ZN5KIGFX9CAIRO_GALD1Ev
libkigal.so.9.0.1:_ZN5KIGFX9CAIRO_GALD2Ev
libkigal.so.9.0.1:_ZN5KIGFX9GAL_PRINT6CreateERNS_19GAL_DISPLAY_OPTIONSEP4wxDC
libkigal.so.9.0.1:_ZN5KIGFX9VIEW_ITEM20lodScaleForThresholdEPKNS_4VIEWEii
libkigal.so.9.0.1:_ZN5KIGFX9VIEW_ITEMD0Ev
libkigal.so.9.0.1:_ZN5KIGFX9VIEW_ITEMD1Ev
libkigal.so.9.0.1:_ZN5KIGFX9VIEW_ITEMD2Ev
libkigal.so.9.0.1:_ZN6CAMERA10ResetXYposEv
libkigal.so.9.0.1:_ZN6CAMERA10RotateX_T1Ef
libkigal.so.9.0.1:_ZN6CAMERA10RotateY_T1Ef
libkigal.so.9.0.1:_ZN6CAMERA10RotateZ_T1Ef
libkigal.so.9.0.1:_ZN6CAMERA11InterpolateEf
libkigal.so.9.0.1:_ZN6CAMERA11zoomChangedEv
libkigal.so.9.0.1:_ZN6CAMERA12RotateScreenEf
libkigal.so.9.0.1:_ZN6CAMERA13ResetXYpos_T1Ev
libkigal.so.9.0.1:_ZN6CAMERA13SetViewMatrixEN3glm3matILi4ELi4EfLNS0_9qualifierE0EEE
libkigal.so.9.0.1:_ZN6CAMERA13updateFrustumEv
libkigal.so.9.0.1:_ZN6CAMERA14ViewCommand_T1E11VIEW3D_TYPE
libkigal.so.9.0.1:_ZN6CAMERA16SetCurWindowSizeERK6wxSize
libkigal.so.9.0.1:_ZN6CAMERA16ToggleProjectionEv
libkigal.so.9.0.1:_ZN6CAMERA16updateViewMatrixEv
libkigal.so.9.0.1:_ZN6CAMERA17ParametersChangedEv
libkigal.so.9.0.1:_ZN6CAMERA17SetBoardLookAtPosERKN3glm3vecILi3EfLNS0_9qualifierE0EEE
libkigal.so.9.0.1:_ZN6CAMERA17SetRotationMatrixERKN3glm3matILi4ELi4EfLNS0_9qualifierE0EEE
libkigal.so.9.0.1:_ZN6CAMERA17rebuildProjectionEv
libkigal.so.9.0.1:_ZN6CAMERA19SetCurMousePositionERK7wxPoint
libkigal.so.9.0.1:_ZN6CAMERA20updateRotationMatrixEv
libkigal.so.9.0.1:_ZN6CAMERA22SetT0_and_T1_current_TEv
libkigal.so.9.0.1:_ZN6CAMERA4ZoomEf
libkigal.so.9.0.1:_ZN6CAMERA5ResetEv
libkigal.so.9.0.1:_ZN6CAMERA7RotateXEf
libkigal.so.9.0.1:_ZN6CAMERA7RotateYEf
libkigal.so.9.0.1:_ZN6CAMERA7RotateZEf
libkigal.so.9.0.1:_ZN6CAMERA7Zoom_T1Ef
libkigal.so.9.0.1:_ZN6CAMERA8Reset_T1Ev
libkigal.so.9.0.1:_ZN6CAMERA9ZoomResetEv
libkigal.so.9.0.1:_ZN6CAMERAC1EN3glm3vecILi3EfLNS0_9qualifierE0EEES3_15PROJECTION_TYPE
libkigal.so.9.0.1:_ZN6CAMERAC1Ef
libkigal.so.9.0.1:_ZN6CAMERAC2EN3glm3vecILi3EfLNS0_9qualifierE0EEES3_15PROJECTION_TYPE
libkigal.so.9.0.1:_ZN6CAMERAC2Ef
libkigal.so.9.0.1:_ZN6KIFONT11STROKE_FONT17loadNewStrokeFontEPKPKci
libkigal.so.9.0.1:_ZN6KIFONT11STROKE_FONT8LoadFontERK8wxString
libkigal.so.9.0.1:_ZN6KIFONT11STROKE_FONTC1Ev
libkigal.so.9.0.1:_ZN6KIFONT11STROKE_FONTC2Ev
libkigal.so.9.0.1:_ZN6KIFONT12OUTLINE_FONT8LoadFontERK8wxStringbbPKSt6vectorIS1_SaIS1_EEb
libkigal.so.9.0.1:_ZN6KIFONT12OUTLINE_FONT8loadFaceERK8wxStringi
libkigal.so.9.0.1:_ZN6KIFONT12OUTLINE_FONTC1Ev
libkigal.so.9.0.1:_ZN6KIFONT12OUTLINE_FONTC2Ev
libkigal.so.9.0.1:_ZN6KIFONT12STROKE_GLYPH4MoveERK7VECTOR2IiE
libkigal.so.9.0.1:_ZN6KIFONT12STROKE_GLYPH8AddPointERK7VECTOR2IdE
libkigal.so.9.0.1:_ZN6KIFONT12STROKE_GLYPH8FinalizeEv
libkigal.so.9.0.1:_ZN6KIFONT12STROKE_GLYPH8RaisePenEv
libkigal.so.9.0.1:_ZN6KIFONT12STROKE_GLYPH9TransformERK7VECTOR2IdERKS1_IiEdRK9EDA_ANGLEbS7_
libkigal.so.9.0.1:_ZN6KIFONT12STROKE_GLYPHC1ERKS0_
libkigal.so.9.0.1:_ZN6KIFONT12STROKE_GLYPHC2ERKS0_
libkigal.so.9.0.1:_ZN6KIFONT13OUTLINE_GLYPH11BoundingBoxEv
libkigal.so.9.0.1:_ZN6KIFONT13OUTLINE_GLYPH18CacheTriangulationERSt6vectorISt10unique_ptrIN14SHAPE_POLY_SET20TRIANGULATED_POLYGONESt14default_deleteIS4_EESaIS7_EE
libkigal.so.9.0.1:_ZN6KIFONT13OUTLINE_GLYPH18CacheTriangulationEbb
libkigal.so.9.0.1:_ZN6KIFONT4FONT14getDefaultFontEv
libkigal.so.9.0.1:_ZN6KIFONT4FONT7GetFontERK8wxStringbbPKSt6vectorIS1_SaIS1_EEb
libkigal.so.9.0.1:_ZN6KIFONT4FONT8IsStrokeERK8wxString
libkigal.so.9.0.1:_ZN6KIFONT4FONTC1Ev
libkigal.so.9.0.1:_ZN6KIFONT4FONTC2Ev
libkigal.so.9.0.1:_ZN6KIFONT7METRICS7DefaultEv
libkigal.so.9.0.1:_ZNK15HIDPI_GL_CANVAS14GetScaleFactorEv
libkigal.so.9.0.1:_ZNK15HIDPI_GL_CANVAS17GetNativePositionERK7wxPoint
libkigal.so.9.0.1:_ZNK15HIDPI_GL_CANVAS18GetNativePixelSizeEv
libkigal.so.9.0.1:_ZNK15TEXT_ATTRIBUTES7CompareERKS_
libkigal.so.9.0.1:_ZNK5KIGFX10OPENGL_GAL17getWorldPixelSizeEv
libkigal.so.9.0.1:_ZNK5KIGFX10OPENGL_GAL18getScreenPixelSizeEv
libkigal.so.9.0.1:_ZNK5KIGFX10OPENGL_GAL21computeBitmapTextSizeERK4UTF8
libkigal.so.9.0.1:_ZNK5KIGFX10OPENGL_GAL9GetTargetEv
libkigal.so.9.0.1:_ZNK5KIGFX10VIEW_GROUP13ViewGetLayersEv
libkigal.so.9.0.1:_ZNK5KIGFX10VIEW_GROUP14updateDrawListEv
libkigal.so.9.0.1:_ZNK5KIGFX10VIEW_GROUP7GetItemEj
libkigal.so.9.0.1:_ZNK5KIGFX10VIEW_GROUP7GetSizeEv
libkigal.so.9.0.1:_ZNK5KIGFX10VIEW_GROUP8ViewBBoxEv
libkigal.so.9.0.1:_ZNK5KIGFX10VIEW_GROUP8ViewDrawEiPNS_4VIEWE
libkigal.so.9.0.1:_ZNK5KIGFX12VIEW_OVERLAY13ViewGetLayersEv
libkigal.so.9.0.1:_ZNK5KIGFX12VIEW_OVERLAY8ViewBBoxEv
libkigal.so.9.0.1:_ZNK5KIGFX12VIEW_OVERLAY8ViewDrawEiPNS_4VIEWE
libkigal.so.9.0.1:_ZNK5KIGFX13VIEW_CONTROLS13IsCursorShownEv
libkigal.so.9.0.1:_ZNK5KIGFX3GAL12GetGridPointERK7VECTOR2IdE
libkigal.so.9.0.1:_ZNK5KIGFX3GAL14getCursorColorEv
libkigal.so.9.0.1:_ZNK5KIGFX3GAL21computeMinGridSpacingEv
libkigal.so.9.0.1:_ZNK5KIGFX3GAL22GetVisibleWorldExtentsEv
libkigal.so.9.0.1:_ZNK5KIGFX4VIEW10SortLayersERSt6vectorIiSaIiEE
libkigal.so.9.0.1:_ZNK5KIGFX4VIEW11GetTopLayerEv
libkigal.so.9.0.1:_ZNK5KIGFX4VIEW11GetViewportEv
libkigal.so.9.0.1:_ZNK5KIGFX4VIEW13DataReferenceEv
libkigal.so.9.0.1:_ZNK5KIGFX4VIEW13GetLayerOrderEi
libkigal.so.9.0.1:_ZNK5KIGFX4VIEW17IsHiddenOnOverlayEPKNS_9VIEW_ITEME
libkigal.so.9.0.1:_ZNK5KIGFX4VIEW18GetScreenPixelSizeEv
libkigal.so.9.0.1:_ZNK5KIGFX4VIEW24areRequiredLayersEnabledEi
libkigal.so.9.0.1:_ZNK5KIGFX4VIEW5QueryERK4BOX2I7VECTOR2IiEERKSt8functionIFbPNS_9VIEW_ITEMEEE
libkigal.so.9.0.1:_ZNK5KIGFX4VIEW5QueryERK4BOX2I7VECTOR2IiEERSt6vectorISt4pairIPNS_9VIEW_ITEMEiESaISB_EE
libkigal.so.9.0.1:_ZNK5KIGFX4VIEW6UpdateEPKNS_9VIEW_ITEME
libkigal.so.9.0.1:_ZNK5KIGFX4VIEW6UpdateEPKNS_9VIEW_ITEMEi
libkigal.so.9.0.1:_ZNK5KIGFX4VIEW7HasItemEPKNS_9VIEW_ITEME
libkigal.so.9.0.1:_ZNK5KIGFX4VIEW7ToWorldERK7VECTOR2IdEb
libkigal.so.9.0.1:_ZNK5KIGFX4VIEW7ToWorldEd
libkigal.so.9.0.1:_ZNK5KIGFX4VIEW8ToScreenERK7VECTOR2IdEb
libkigal.so.9.0.1:_ZNK5KIGFX4VIEW8ToScreenEd
libkigal.so.9.0.1:_ZNK5KIGFX4VIEW9IsVisibleEPKNS_9VIEW_ITEME
libkigal.so.9.0.1:_ZNK5KIGFX9CAIRO_GAL9GetTargetEv
libkigal.so.9.0.1:_ZNK6CAMERA13GetViewMatrixEv
libkigal.so.9.0.1:_ZNK6CAMERA17GetRotationMatrixEv
libkigal.so.9.0.1:_ZNK6CAMERA17GetViewMatrix_InvEv
libkigal.so.9.0.1:_ZNK6CAMERA19GetProjectionMatrixEv
libkigal.so.9.0.1:_ZNK6CAMERA21GetCameraMinDimensionEv
libkigal.so.9.0.1:_ZNK6CAMERA22GetProjectionMatrixInvEv
libkigal.so.9.0.1:_ZNK6CAMERA29MakeRayAtCurrentMousePositionERN3glm3vecILi3EfLNS0_9qualifierE0EEES4_
libkigal.so.9.0.1:_ZNK6CAMERA7MakeRayERKN3glm3vecILi2EfLNS0_9qualifierE0EEERNS1_ILi3EfLS2_0EEES7_
libkigal.so.9.0.1:_ZNK6CAMERA7MakeRayERKN3glm3vecILi2EiLNS0_9qualifierE0EEERNS1_ILi3EfLS2_0EEES7_
libkigal.so.9.0.1:_ZNK6KIFONT11STROKE_FONT12GetInterlineEdRKNS_7METRICSE
libkigal.so.9.0.1:_ZNK6KIFONT11STROKE_FONT15GetTextAsGlyphsEP4BOX2I7VECTOR2IiEEPSt6vectorISt10unique_ptrINS_5GLYPHESt14default_deleteIS8_EESaISB_EERK8wxStringRKS3_SJ_RK9EDA_ANGLEbSJ_j
libkigal.so.9.0.1:_ZNK6KIFONT12OUTLINE_FONT12GetInterlineEdRKNS_7METRICSE
libkigal.so.9.0.1:_ZNK6KIFONT12OUTLINE_FONT14getBoundingBoxERKSt6vectorISt10unique_ptrINS_5GLYPHESt14default_deleteIS3_EESaIS6_EE
libkigal.so.9.0.1:_ZNK6KIFONT12OUTLINE_FONT15GetTextAsGlyphsEP4BOX2I7VECTOR2IiEEPSt6vectorISt10unique_ptrINS_5GLYPHESt14default_deleteIS8_EESaISB_EERK8wxStringRKS3_SJ_RK9EDA_ANGLEbSJ_j
libkigal.so.9.0.1:_ZNK6KIFONT12OUTLINE_FONT15getTextAsGlyphsEP4BOX2I7VECTOR2IiEEPSt6vectorISt10unique_ptrINS_5GLYPHESt14default_deleteIS8_EESaISB_EERK8wxStringRKS3_SJ_RK9EDA_ANGLEbSJ_j
libkigal.so.9.0.1:_ZNK6KIFONT12OUTLINE_FONT16GetLinesAsGlyphsEPSt6vectorISt10unique_ptrINS_5GLYPHESt14default_deleteIS3_EESaIS6_EERK8wxStringRK7VECTOR2IiERK15TEXT_ATTRIBUTESRKNS_7METRICSE
libkigal.so.9.0.1:_ZNK6KIFONT12OUTLINE_FONT22GetEmbeddingPermissionEv
libkigal.so.9.0.1:_ZNK6KIFONT12OUTLINE_FONT23getTextAsGlyphsUnlockedEP4BOX2I7VECTOR2IiEEPSt6vectorISt10unique_ptrINS_5GLYPHESt14default_deleteIS8_EESaISB_EERK8wxStringRKS3_SJ_RK9EDA_ANGLEbSJ_j
libkigal.so.9.0.1:_ZNK6KIFONT13OUTLINE_GLYPH11TriangulateESt8functionIFvRK7VECTOR2IiES5_S5_EE
libkigal.so.9.0.1:_ZNK6KIFONT13OUTLINE_GLYPH20GetTriangulationDataEv
libkigal.so.9.0.1:_ZNK6KIFONT4FONT10drawMarkupEP4BOX2I7VECTOR2IiEEPSt6vectorISt10unique_ptrINS_5GLYPHESt14default_deleteIS8_EESaISB_EERK8wxStringRKS3_SJ_RK9EDA_ANGLEbSJ_jRKNS_7METRICSE
libkigal.so.9.0.1:_ZNK6KIFONT4FONT13LinebreakTextER8wxStringiRK7VECTOR2IiEibb
libkigal.so.9.0.1:_ZNK6KIFONT4FONT15wordbreakMarkupEPSt6vectorISt4pairI8wxStringiESaIS4_EERKS3_RK7VECTOR2IiEj
libkigal.so.9.0.1:_ZNK6KIFONT4FONT16getLinePositionsERK8wxStringRK7VECTOR2IiER13wxArrayStringRSt6vectorIS5_SaIS5_EESD_RK15TEXT_ATTRIBUTESRKNS_7METRICSE
libkigal.so.9.0.1:_ZNK6KIFONT4FONT18drawSingleLineTextEPN5KIGFX3GALEP4BOX2I7VECTOR2IiEERK8wxStringRKS6_SD_RK9EDA_ANGLEbSD_bbRKNS_7METRICSE
libkigal.so.9.0.1:_ZNK6KIFONT4FONT20StringBoundaryLimitsERK8wxStringRK7VECTOR2IiEibbRKNS_7METRICSE
libkigal.so.9.0.1:_ZNK6KIFONT4FONT21boundingBoxSingleLineEP4BOX2I7VECTOR2IiEERK8wxStringRKS3_SA_bRKNS_7METRICSE
libkigal.so.9.0.1:_ZNK6KIFONT4FONT4DrawEPN5KIGFX3GALERK8wxStringRK7VECTOR2IiESA_RK15TEXT_ATTRIBUTESRKNS_7METRICSE
libkigal.so.9.0.1:_ZThn1072_N5KIGFX9CAIRO_GAL4ShowEb
libkigal.so.9.0.1:_ZThn1072_N5KIGFX9CAIRO_GALD0Ev
libkigal.so.9.0.1:_ZThn1072_N5KIGFX9CAIRO_GALD1Ev
libkigal.so.9.0.1:_ZThn768_N5KIGFX10OPENGL_GAL4ShowEb
libkigal.so.9.0.1:_ZThn768_N5KIGFX10OPENGL_GALD0Ev
libkigal.so.9.0.1:_ZThn768_N5KIGFX10OPENGL_GALD1Ev
libkigal.so.9.0.1:_ZThn8_N6KIFONT13OUTLINE_GLYPH18CacheTriangulationEbb
libkigal.so.9.0.1:_ZlsRSoRK15TEXT_ATTRIBUTES
libkigal.so.9.0.1:eglewGetExtension
libkigal.so.9.0.1:eglewInit
libkigal.so.9.0.1:eglewIsSupported
libkigal.so.9.0.1:glewGetErrorString
libkigal.so.9.0.1:glewGetExtension
libkigal.so.9.0.1:glewGetString
libkigal.so.9.0.1:glewInit
libkigal.so.9.0.1:glewIsSupported
